   1               		.file	"chdelegates.c"
   2               	__SP_H__ = 0x3e
   3               	__SP_L__ = 0x3d
   4               	__SREG__ = 0x3f
   5               	__tmp_reg__ = 0
   6               	__zero_reg__ = 1
   7               		.text
   8               	.Ltext0:
   9               		.cfi_sections	.debug_frame
  10               		.file 1 "../../os/oslib/src/chdelegates.c"
  11               		.section	.text.__ch_delegate_fn0,"ax",@progbits
  12               	.global	__ch_delegate_fn0
  14               	__ch_delegate_fn0:
  15               	.LVL0:
  16               	.LFB98:
   1:../../os/oslib/src/chdelegates.c **** /*
   2:../../os/oslib/src/chdelegates.c ****     ChibiOS - Copyright (C) 2006,2007,2008,2009,2010,2011,2012,2013,2014,
   3:../../os/oslib/src/chdelegates.c ****               2015,2016,2017,2018,2019,2020,2021 Giovanni Di Sirio.
   4:../../os/oslib/src/chdelegates.c **** 
   5:../../os/oslib/src/chdelegates.c ****     This file is part of ChibiOS.
   6:../../os/oslib/src/chdelegates.c **** 
   7:../../os/oslib/src/chdelegates.c ****     ChibiOS is free software; you can redistribute it and/or modify
   8:../../os/oslib/src/chdelegates.c ****     it under the terms of the GNU General Public License as published by
   9:../../os/oslib/src/chdelegates.c ****     the Free Software Foundation version 3 of the License.
  10:../../os/oslib/src/chdelegates.c **** 
  11:../../os/oslib/src/chdelegates.c ****     ChibiOS is distributed in the hope that it will be useful,
  12:../../os/oslib/src/chdelegates.c ****     but WITHOUT ANY WARRANTY; without even the implied warranty of
  13:../../os/oslib/src/chdelegates.c ****     MERCHANTABILITY or FITNESS FOR A PARTICULAR PURPOSE.  See the
  14:../../os/oslib/src/chdelegates.c ****     GNU General Public License for more details.
  15:../../os/oslib/src/chdelegates.c **** 
  16:../../os/oslib/src/chdelegates.c ****     You should have received a copy of the GNU General Public License
  17:../../os/oslib/src/chdelegates.c ****     along with this program.  If not, see <http://www.gnu.org/licenses/>.
  18:../../os/oslib/src/chdelegates.c **** */
  19:../../os/oslib/src/chdelegates.c **** 
  20:../../os/oslib/src/chdelegates.c **** /**
  21:../../os/oslib/src/chdelegates.c ****  * @file    oslib/src/chdelegates.c
  22:../../os/oslib/src/chdelegates.c ****  * @brief   Delegate threads code.
  23:../../os/oslib/src/chdelegates.c ****  * @details Delegate threads.
  24:../../os/oslib/src/chdelegates.c ****  *          <h2>Operation mode</h2>
  25:../../os/oslib/src/chdelegates.c ****  *          A delegate thread is a thread performing function calls triggered
  26:../../os/oslib/src/chdelegates.c ****  *          by other threads. This functionality is especially useful when
  27:../../os/oslib/src/chdelegates.c ****  *          encapsulating a library not designed for threading into a
  28:../../os/oslib/src/chdelegates.c ****  *          delegate thread. Other threads have access to the library without
  29:../../os/oslib/src/chdelegates.c ****  *          having to worry about mutual exclusion.
  30:../../os/oslib/src/chdelegates.c ****  * @pre     In order to use the pipes APIs the @p CH_CFG_USE_DELEGATES
  31:../../os/oslib/src/chdelegates.c ****  *          option must be enabled in @p chconf.h.
  32:../../os/oslib/src/chdelegates.c ****  * @note    Compatible with RT and NIL.
  33:../../os/oslib/src/chdelegates.c ****  *
  34:../../os/oslib/src/chdelegates.c ****  * @addtogroup oslib_delegates
  35:../../os/oslib/src/chdelegates.c ****  * @{
  36:../../os/oslib/src/chdelegates.c ****  */
  37:../../os/oslib/src/chdelegates.c **** 
  38:../../os/oslib/src/chdelegates.c **** #include "ch.h"
  39:../../os/oslib/src/chdelegates.c **** 
  40:../../os/oslib/src/chdelegates.c **** #if (CH_CFG_USE_DELEGATES == TRUE) || defined(__DOXYGEN__)
  41:../../os/oslib/src/chdelegates.c **** 
  42:../../os/oslib/src/chdelegates.c **** /*===========================================================================*/
  43:../../os/oslib/src/chdelegates.c **** /* Module local definitions.                                                 */
  44:../../os/oslib/src/chdelegates.c **** /*===========================================================================*/
  45:../../os/oslib/src/chdelegates.c **** 
  46:../../os/oslib/src/chdelegates.c **** /*===========================================================================*/
  47:../../os/oslib/src/chdelegates.c **** /* Module exported variables.                                                */
  48:../../os/oslib/src/chdelegates.c **** /*===========================================================================*/
  49:../../os/oslib/src/chdelegates.c **** 
  50:../../os/oslib/src/chdelegates.c **** /*===========================================================================*/
  51:../../os/oslib/src/chdelegates.c **** /* Module local types.                                                       */
  52:../../os/oslib/src/chdelegates.c **** /*===========================================================================*/
  53:../../os/oslib/src/chdelegates.c **** 
  54:../../os/oslib/src/chdelegates.c **** /**
  55:../../os/oslib/src/chdelegates.c ****  * @brief   Type of a structure representing a delegate call.
  56:../../os/oslib/src/chdelegates.c ****  */
  57:../../os/oslib/src/chdelegates.c **** typedef struct {
  58:../../os/oslib/src/chdelegates.c ****   /**
  59:../../os/oslib/src/chdelegates.c ****    * @brief   The delegate veneer function.
  60:../../os/oslib/src/chdelegates.c ****    */
  61:../../os/oslib/src/chdelegates.c ****   delegate_veneer_t veneer;
  62:../../os/oslib/src/chdelegates.c ****   /**
  63:../../os/oslib/src/chdelegates.c ****    * @brief   Pointer to the caller @p va_list object.
  64:../../os/oslib/src/chdelegates.c ****    */
  65:../../os/oslib/src/chdelegates.c ****   va_list           *argsp;
  66:../../os/oslib/src/chdelegates.c **** } call_message_t;
  67:../../os/oslib/src/chdelegates.c **** 
  68:../../os/oslib/src/chdelegates.c **** /*===========================================================================*/
  69:../../os/oslib/src/chdelegates.c **** /* Module local variables.                                                   */
  70:../../os/oslib/src/chdelegates.c **** /*===========================================================================*/
  71:../../os/oslib/src/chdelegates.c **** 
  72:../../os/oslib/src/chdelegates.c **** /*===========================================================================*/
  73:../../os/oslib/src/chdelegates.c **** /* Module local functions.                                                   */
  74:../../os/oslib/src/chdelegates.c **** /*===========================================================================*/
  75:../../os/oslib/src/chdelegates.c **** 
  76:../../os/oslib/src/chdelegates.c **** /*===========================================================================*/
  77:../../os/oslib/src/chdelegates.c **** /* Module exported functions.                                                */
  78:../../os/oslib/src/chdelegates.c **** /*===========================================================================*/
  79:../../os/oslib/src/chdelegates.c **** 
  80:../../os/oslib/src/chdelegates.c **** /*lint -save -e586 [17.1] Required by design.*/
  81:../../os/oslib/src/chdelegates.c **** 
  82:../../os/oslib/src/chdelegates.c **** /**
  83:../../os/oslib/src/chdelegates.c ****  * @brief   Veneer for functions with no parameters.
  84:../../os/oslib/src/chdelegates.c ****  *
  85:../../os/oslib/src/chdelegates.c ****  * @param[in] argsp     the list of arguments
  86:../../os/oslib/src/chdelegates.c ****  * @return              The function return value.
  87:../../os/oslib/src/chdelegates.c ****  */
  88:../../os/oslib/src/chdelegates.c **** msg_t __ch_delegate_fn0(va_list *argsp) {
  17               		.loc 1 88 41 view -0
  18               		.cfi_startproc
  19               	/* prologue: function */
  20               	/* frame size = 0 */
  21               	/* stack size = 0 */
  22               	.L__stack_usage = 0
  23               		.loc 1 88 41 is_stmt 0 view .LVU1
  24 0000 FC01      		movw r30,r24
  89:../../os/oslib/src/chdelegates.c ****   delegate_fn0_t fn0 = (delegate_fn0_t)va_arg(*argsp, delegate_fn0_t);
  25               		.loc 1 89 3 is_stmt 1 view .LVU2
  26               		.loc 1 89 18 is_stmt 0 view .LVU3
  27 0002 A081      		ld r26,Z
  28 0004 B181      		ldd r27,Z+1
  29 0006 CD01      		movw r24,r26
  30               	.LVL1:
  31               		.loc 1 89 18 view .LVU4
  32 0008 0296      		adiw r24,2
  33 000a 9183      		std Z+1,r25
  34 000c 8083      		st Z,r24
  90:../../os/oslib/src/chdelegates.c ****   return fn0();
  35               		.loc 1 90 3 is_stmt 1 view .LVU5
  36               		.loc 1 90 10 is_stmt 0 view .LVU6
  37 000e ED91      		ld r30,X+
  38 0010 FC91      		ld r31,X
  39               	.LVL2:
  40               		.loc 1 90 10 view .LVU7
  41 0012 0994      		ijmp
  42               	.LVL3:
  43               		.cfi_endproc
  44               	.LFE98:
  46               		.section	.text.__ch_delegate_fn1,"ax",@progbits
  47               	.global	__ch_delegate_fn1
  49               	__ch_delegate_fn1:
  50               	.LVL4:
  51               	.LFB99:
  91:../../os/oslib/src/chdelegates.c **** }
  92:../../os/oslib/src/chdelegates.c **** 
  93:../../os/oslib/src/chdelegates.c **** /**
  94:../../os/oslib/src/chdelegates.c ****  * @brief   Veneer for functions with one parameter.
  95:../../os/oslib/src/chdelegates.c ****  *
  96:../../os/oslib/src/chdelegates.c ****  * @param[in] argsp     the list of arguments
  97:../../os/oslib/src/chdelegates.c ****  * @return              The function return value.
  98:../../os/oslib/src/chdelegates.c ****  */
  99:../../os/oslib/src/chdelegates.c **** msg_t __ch_delegate_fn1(va_list *argsp) {
  52               		.loc 1 99 41 is_stmt 1 view -0
  53               		.cfi_startproc
  54               		.loc 1 99 41 is_stmt 0 view .LVU9
  55 0000 CF93      		push r28
  56               	.LCFI0:
  57               		.cfi_def_cfa_offset 3
  58               		.cfi_offset 28, -2
  59 0002 DF93      		push r29
  60               	.LCFI1:
  61               		.cfi_def_cfa_offset 4
  62               		.cfi_offset 29, -3
  63               	/* prologue: function */
  64               	/* frame size = 0 */
  65               	/* stack size = 2 */
  66               	.L__stack_usage = 2
  67 0004 EC01      		movw r28,r24
 100:../../os/oslib/src/chdelegates.c ****   delegate_fn1_t fn1 = (delegate_fn1_t)va_arg(*argsp, delegate_fn1_t);
  68               		.loc 1 100 3 is_stmt 1 view .LVU10
  69               		.loc 1 100 18 is_stmt 0 view .LVU11
  70 0006 A881      		ld r26,Y
  71 0008 B981      		ldd r27,Y+1
  72 000a CD01      		movw r24,r26
  73               	.LVL5:
  74               		.loc 1 100 18 view .LVU12
  75 000c 0296      		adiw r24,2
  76 000e 9983      		std Y+1,r25
  77 0010 8883      		st Y,r24
  78 0012 ED91      		ld r30,X+
  79 0014 FC91      		ld r31,X
  80 0016 1197      		sbiw r26,1
 101:../../os/oslib/src/chdelegates.c ****   msg_t p1 = (msg_t)va_arg(*argsp, msg_t);
  81               		.loc 1 101 3 is_stmt 1 view .LVU13
  82               		.loc 1 101 9 is_stmt 0 view .LVU14
  83 0018 0296      		adiw r24,2
  84 001a 9983      		std Y+1,r25
  85 001c 8883      		st Y,r24
 102:../../os/oslib/src/chdelegates.c ****   return fn1(p1);
  86               		.loc 1 102 3 is_stmt 1 view .LVU15
  87               		.loc 1 102 10 is_stmt 0 view .LVU16
  88 001e 1296      		adiw r26,2
  89 0020 8D91      		ld r24,X+
  90 0022 9C91      		ld r25,X
  91               	/* epilogue start */
 103:../../os/oslib/src/chdelegates.c **** }
  92               		.loc 1 103 1 view .LVU17
  93 0024 DF91      		pop r29
  94 0026 CF91      		pop r28
  95               	.LVL6:
 102:../../os/oslib/src/chdelegates.c ****   return fn1(p1);
  96               		.loc 1 102 10 view .LVU18
  97 0028 0994      		ijmp
  98               	.LVL7:
  99               		.cfi_endproc
 100               	.LFE99:
 102               		.section	.text.__ch_delegate_fn2,"ax",@progbits
 103               	.global	__ch_delegate_fn2
 105               	__ch_delegate_fn2:
 106               	.LVL8:
 107               	.LFB100:
 104:../../os/oslib/src/chdelegates.c **** 
 105:../../os/oslib/src/chdelegates.c **** /**
 106:../../os/oslib/src/chdelegates.c ****  * @brief   Veneer for functions with two parameters.
 107:../../os/oslib/src/chdelegates.c ****  *
 108:../../os/oslib/src/chdelegates.c ****  * @param[in] argsp     the list of arguments
 109:../../os/oslib/src/chdelegates.c ****  * @return              The function return value.
 110:../../os/oslib/src/chdelegates.c ****  */
 111:../../os/oslib/src/chdelegates.c **** msg_t __ch_delegate_fn2(va_list *argsp) {
 108               		.loc 1 111 41 is_stmt 1 view -0
 109               		.cfi_startproc
 110               		.loc 1 111 41 is_stmt 0 view .LVU20
 111 0000 CF93      		push r28
 112               	.LCFI2:
 113               		.cfi_def_cfa_offset 3
 114               		.cfi_offset 28, -2
 115 0002 DF93      		push r29
 116               	.LCFI3:
 117               		.cfi_def_cfa_offset 4
 118               		.cfi_offset 29, -3
 119               	/* prologue: function */
 120               	/* frame size = 0 */
 121               	/* stack size = 2 */
 122               	.L__stack_usage = 2
 123 0004 EC01      		movw r28,r24
 112:../../os/oslib/src/chdelegates.c ****   delegate_fn2_t fn2 = (delegate_fn2_t)va_arg(*argsp, delegate_fn2_t);
 124               		.loc 1 112 3 is_stmt 1 view .LVU21
 125               		.loc 1 112 18 is_stmt 0 view .LVU22
 126 0006 A881      		ld r26,Y
 127 0008 B981      		ldd r27,Y+1
 128 000a CD01      		movw r24,r26
 129               	.LVL9:
 130               		.loc 1 112 18 view .LVU23
 131 000c 0296      		adiw r24,2
 132 000e 9983      		std Y+1,r25
 133 0010 8883      		st Y,r24
 134 0012 ED91      		ld r30,X+
 135 0014 FC91      		ld r31,X
 136 0016 1197      		sbiw r26,1
 113:../../os/oslib/src/chdelegates.c ****   msg_t p1 = (msg_t)va_arg(*argsp, msg_t);
 137               		.loc 1 113 3 is_stmt 1 view .LVU24
 138               		.loc 1 113 9 is_stmt 0 view .LVU25
 139 0018 1296      		adiw r26,2
 140 001a 8D91      		ld r24,X+
 141 001c 9C91      		ld r25,X
 142 001e 1397      		sbiw r26,2+1
 114:../../os/oslib/src/chdelegates.c ****   msg_t p2 = (msg_t)va_arg(*argsp, msg_t);
 143               		.loc 1 114 3 is_stmt 1 view .LVU26
 144               		.loc 1 114 9 is_stmt 0 view .LVU27
 145 0020 9D01      		movw r18,r26
 146 0022 2A5F      		subi r18,-6
 147 0024 3F4F      		sbci r19,-1
 148 0026 3983      		std Y+1,r19
 149 0028 2883      		st Y,r18
 115:../../os/oslib/src/chdelegates.c ****   return fn2(p1, p2);
 150               		.loc 1 115 3 is_stmt 1 view .LVU28
 151               		.loc 1 115 10 is_stmt 0 view .LVU29
 152 002a 1496      		adiw r26,4
 153 002c 6D91      		ld r22,X+
 154 002e 7C91      		ld r23,X
 155               	/* epilogue start */
 116:../../os/oslib/src/chdelegates.c **** }
 156               		.loc 1 116 1 view .LVU30
 157 0030 DF91      		pop r29
 158 0032 CF91      		pop r28
 159               	.LVL10:
 115:../../os/oslib/src/chdelegates.c ****   return fn2(p1, p2);
 160               		.loc 1 115 10 view .LVU31
 161 0034 0994      		ijmp
 162               	.LVL11:
 163               		.cfi_endproc
 164               	.LFE100:
 166               		.section	.text.__ch_delegate_fn3,"ax",@progbits
 167               	.global	__ch_delegate_fn3
 169               	__ch_delegate_fn3:
 170               	.LVL12:
 171               	.LFB101:
 117:../../os/oslib/src/chdelegates.c **** 
 118:../../os/oslib/src/chdelegates.c **** /**
 119:../../os/oslib/src/chdelegates.c ****  * @brief   Veneer for functions with three parameters.
 120:../../os/oslib/src/chdelegates.c ****  *
 121:../../os/oslib/src/chdelegates.c ****  * @param[in] argsp     the list of arguments
 122:../../os/oslib/src/chdelegates.c ****  * @return              The function return value.
 123:../../os/oslib/src/chdelegates.c ****  */
 124:../../os/oslib/src/chdelegates.c **** msg_t __ch_delegate_fn3(va_list *argsp) {
 172               		.loc 1 124 41 is_stmt 1 view -0
 173               		.cfi_startproc
 174               		.loc 1 124 41 is_stmt 0 view .LVU33
 175 0000 CF93      		push r28
 176               	.LCFI4:
 177               		.cfi_def_cfa_offset 3
 178               		.cfi_offset 28, -2
 179 0002 DF93      		push r29
 180               	.LCFI5:
 181               		.cfi_def_cfa_offset 4
 182               		.cfi_offset 29, -3
 183               	/* prologue: function */
 184               	/* frame size = 0 */
 185               	/* stack size = 2 */
 186               	.L__stack_usage = 2
 187 0004 EC01      		movw r28,r24
 125:../../os/oslib/src/chdelegates.c ****   delegate_fn3_t fn3 = (delegate_fn3_t)va_arg(*argsp, delegate_fn3_t);
 188               		.loc 1 125 3 is_stmt 1 view .LVU34
 189               		.loc 1 125 18 is_stmt 0 view .LVU35
 190 0006 A881      		ld r26,Y
 191 0008 B981      		ldd r27,Y+1
 192 000a CD01      		movw r24,r26
 193               	.LVL13:
 194               		.loc 1 125 18 view .LVU36
 195 000c 0296      		adiw r24,2
 196 000e 9983      		std Y+1,r25
 197 0010 8883      		st Y,r24
 198 0012 ED91      		ld r30,X+
 199 0014 FC91      		ld r31,X
 200 0016 1197      		sbiw r26,1
 126:../../os/oslib/src/chdelegates.c ****   msg_t p1 = (msg_t)va_arg(*argsp, msg_t);
 201               		.loc 1 126 3 is_stmt 1 view .LVU37
 202               		.loc 1 126 9 is_stmt 0 view .LVU38
 203 0018 1296      		adiw r26,2
 204 001a 8D91      		ld r24,X+
 205 001c 9C91      		ld r25,X
 206 001e 1397      		sbiw r26,2+1
 127:../../os/oslib/src/chdelegates.c ****   msg_t p2 = (msg_t)va_arg(*argsp, msg_t);
 207               		.loc 1 127 3 is_stmt 1 view .LVU39
 208               		.loc 1 127 9 is_stmt 0 view .LVU40
 209 0020 1496      		adiw r26,4
 210 0022 6D91      		ld r22,X+
 211 0024 7C91      		ld r23,X
 212 0026 1597      		sbiw r26,4+1
 128:../../os/oslib/src/chdelegates.c ****   msg_t p3 = (msg_t)va_arg(*argsp, msg_t);
 213               		.loc 1 128 3 is_stmt 1 view .LVU41
 214               		.loc 1 128 9 is_stmt 0 view .LVU42
 215 0028 9D01      		movw r18,r26
 216 002a 285F      		subi r18,-8
 217 002c 3F4F      		sbci r19,-1
 218 002e 3983      		std Y+1,r19
 219 0030 2883      		st Y,r18
 129:../../os/oslib/src/chdelegates.c ****   return fn3(p1, p2, p3);
 220               		.loc 1 129 3 is_stmt 1 view .LVU43
 221               		.loc 1 129 10 is_stmt 0 view .LVU44
 222 0032 1696      		adiw r26,6
 223 0034 4D91      		ld r20,X+
 224 0036 5C91      		ld r21,X
 225               	/* epilogue start */
 130:../../os/oslib/src/chdelegates.c **** }
 226               		.loc 1 130 1 view .LVU45
 227 0038 DF91      		pop r29
 228 003a CF91      		pop r28
 229               	.LVL14:
 129:../../os/oslib/src/chdelegates.c ****   return fn3(p1, p2, p3);
 230               		.loc 1 129 10 view .LVU46
 231 003c 0994      		ijmp
 232               	.LVL15:
 233               		.cfi_endproc
 234               	.LFE101:
 236               		.section	.text.__ch_delegate_fn4,"ax",@progbits
 237               	.global	__ch_delegate_fn4
 239               	__ch_delegate_fn4:
 240               	.LVL16:
 241               	.LFB102:
 131:../../os/oslib/src/chdelegates.c **** 
 132:../../os/oslib/src/chdelegates.c **** /**
 133:../../os/oslib/src/chdelegates.c ****  * @brief   Veneer for functions with four parameters.
 134:../../os/oslib/src/chdelegates.c ****  *
 135:../../os/oslib/src/chdelegates.c ****  * @param[in] argsp     the list of arguments
 136:../../os/oslib/src/chdelegates.c ****  * @return              The function return value.
 137:../../os/oslib/src/chdelegates.c ****  */
 138:../../os/oslib/src/chdelegates.c **** msg_t __ch_delegate_fn4(va_list *argsp) {
 242               		.loc 1 138 41 is_stmt 1 view -0
 243               		.cfi_startproc
 244               		.loc 1 138 41 is_stmt 0 view .LVU48
 245 0000 CF93      		push r28
 246               	.LCFI6:
 247               		.cfi_def_cfa_offset 3
 248               		.cfi_offset 28, -2
 249 0002 DF93      		push r29
 250               	.LCFI7:
 251               		.cfi_def_cfa_offset 4
 252               		.cfi_offset 29, -3
 253               	/* prologue: function */
 254               	/* frame size = 0 */
 255               	/* stack size = 2 */
 256               	.L__stack_usage = 2
 257 0004 EC01      		movw r28,r24
 139:../../os/oslib/src/chdelegates.c ****   delegate_fn4_t fn4 = (delegate_fn4_t)va_arg(*argsp, delegate_fn4_t);
 258               		.loc 1 139 3 is_stmt 1 view .LVU49
 259               		.loc 1 139 18 is_stmt 0 view .LVU50
 260 0006 A881      		ld r26,Y
 261 0008 B981      		ldd r27,Y+1
 262 000a CD01      		movw r24,r26
 263               	.LVL17:
 264               		.loc 1 139 18 view .LVU51
 265 000c 0296      		adiw r24,2
 266 000e 9983      		std Y+1,r25
 267 0010 8883      		st Y,r24
 268 0012 ED91      		ld r30,X+
 269 0014 FC91      		ld r31,X
 270 0016 1197      		sbiw r26,1
 140:../../os/oslib/src/chdelegates.c ****   msg_t p1 = (msg_t)va_arg(*argsp, msg_t);
 271               		.loc 1 140 3 is_stmt 1 view .LVU52
 272               		.loc 1 140 9 is_stmt 0 view .LVU53
 273 0018 1296      		adiw r26,2
 274 001a 8D91      		ld r24,X+
 275 001c 9C91      		ld r25,X
 276 001e 1397      		sbiw r26,2+1
 141:../../os/oslib/src/chdelegates.c ****   msg_t p2 = (msg_t)va_arg(*argsp, msg_t);
 277               		.loc 1 141 3 is_stmt 1 view .LVU54
 278               		.loc 1 141 9 is_stmt 0 view .LVU55
 279 0020 1496      		adiw r26,4
 280 0022 6D91      		ld r22,X+
 281 0024 7C91      		ld r23,X
 282 0026 1597      		sbiw r26,4+1
 142:../../os/oslib/src/chdelegates.c ****   msg_t p3 = (msg_t)va_arg(*argsp, msg_t);
 283               		.loc 1 142 3 is_stmt 1 view .LVU56
 284               		.loc 1 142 9 is_stmt 0 view .LVU57
 285 0028 1696      		adiw r26,6
 286 002a 4D91      		ld r20,X+
 287 002c 5C91      		ld r21,X
 288 002e 1797      		sbiw r26,6+1
 143:../../os/oslib/src/chdelegates.c ****   msg_t p4 = (msg_t)va_arg(*argsp, msg_t);
 289               		.loc 1 143 3 is_stmt 1 view .LVU58
 290               		.loc 1 143 9 is_stmt 0 view .LVU59
 291 0030 9D01      		movw r18,r26
 292 0032 265F      		subi r18,-10
 293 0034 3F4F      		sbci r19,-1
 294 0036 3983      		std Y+1,r19
 295 0038 2883      		st Y,r18
 144:../../os/oslib/src/chdelegates.c ****   return fn4(p1, p2, p3, p4);
 296               		.loc 1 144 3 is_stmt 1 view .LVU60
 297               		.loc 1 144 10 is_stmt 0 view .LVU61
 298 003a 1896      		adiw r26,8
 299 003c 2D91      		ld r18,X+
 300 003e 3C91      		ld r19,X
 301               	/* epilogue start */
 145:../../os/oslib/src/chdelegates.c **** }
 302               		.loc 1 145 1 view .LVU62
 303 0040 DF91      		pop r29
 304 0042 CF91      		pop r28
 305               	.LVL18:
 144:../../os/oslib/src/chdelegates.c ****   return fn4(p1, p2, p3, p4);
 306               		.loc 1 144 10 view .LVU63
 307 0044 0994      		ijmp
 308               	.LVL19:
 309               		.cfi_endproc
 310               	.LFE102:
 312               		.section	.text.chDelegateCallVeneer,"ax",@progbits
 313               	.global	chDelegateCallVeneer
 315               	chDelegateCallVeneer:
 316               	.LVL20:
 317               	.LFB103:
 146:../../os/oslib/src/chdelegates.c **** 
 147:../../os/oslib/src/chdelegates.c **** /**
 148:../../os/oslib/src/chdelegates.c ****  * @brief   Triggers a function call on a delegate thread.
 149:../../os/oslib/src/chdelegates.c ****  * @note    The thread must be executing @p chDelegateDispatchTimeout() in
 150:../../os/oslib/src/chdelegates.c ****  *          order to have the functions called.
 151:../../os/oslib/src/chdelegates.c ****  *
 152:../../os/oslib/src/chdelegates.c ****  * @param[in] tp        pointer to the delegate thread
 153:../../os/oslib/src/chdelegates.c ****  * @param[in] veneer    pointer to the veneer function to be called
 154:../../os/oslib/src/chdelegates.c ****  * @param[in] ...       variable number of parameters
 155:../../os/oslib/src/chdelegates.c ****  * @return              The function return value casted to msg_t. It is
 156:../../os/oslib/src/chdelegates.c ****  *                      garbage for functions returning @p void.
 157:../../os/oslib/src/chdelegates.c ****  */
 158:../../os/oslib/src/chdelegates.c **** msg_t chDelegateCallVeneer(thread_t *tp, delegate_veneer_t veneer, ...) {
 318               		.loc 1 158 73 is_stmt 1 view -0
 319               		.cfi_startproc
 320               		.loc 1 158 73 is_stmt 0 view .LVU65
 321 0000 CF93      		push r28
 322               	.LCFI8:
 323               		.cfi_def_cfa_offset 3
 324               		.cfi_offset 28, -2
 325 0002 DF93      		push r29
 326               	.LCFI9:
 327               		.cfi_def_cfa_offset 4
 328               		.cfi_offset 29, -3
 329 0004 00D0      		rcall .
 330 0006 00D0      		rcall .
 331 0008 00D0      		rcall .
 332               	.LCFI10:
 333               		.cfi_def_cfa_offset 10
 334 000a CDB7      		in r28,__SP_L__
 335 000c DEB7      		in r29,__SP_H__
 336               	.LCFI11:
 337               		.cfi_def_cfa_register 28
 338               	/* prologue: function */
 339               	/* frame size = 6 */
 340               	/* stack size = 8 */
 341               	.L__stack_usage = 8
 159:../../os/oslib/src/chdelegates.c ****   va_list args;
 342               		.loc 1 159 3 is_stmt 1 view .LVU66
 160:../../os/oslib/src/chdelegates.c ****   call_message_t cm;
 343               		.loc 1 160 3 view .LVU67
 161:../../os/oslib/src/chdelegates.c ****   msg_t msg;
 344               		.loc 1 161 3 view .LVU68
 162:../../os/oslib/src/chdelegates.c **** 
 163:../../os/oslib/src/chdelegates.c ****   va_start(args, veneer);
 345               		.loc 1 163 3 view .LVU69
 346 000e CE01      		movw r24,r28
 347 0010 0F96      		adiw r24,15
 348 0012 9E83      		std Y+6,r25
 349 0014 8D83      		std Y+5,r24
 164:../../os/oslib/src/chdelegates.c **** 
 165:../../os/oslib/src/chdelegates.c ****   /* Preparing the call message.*/
 166:../../os/oslib/src/chdelegates.c ****   cm.veneer = veneer;
 350               		.loc 1 166 3 view .LVU70
 351               		.loc 1 166 13 is_stmt 0 view .LVU71
 352 0016 8D85      		ldd r24,Y+13
 353 0018 9E85      		ldd r25,Y+14
 354 001a 9A83      		std Y+2,r25
 355 001c 8983      		std Y+1,r24
 167:../../os/oslib/src/chdelegates.c ****   cm.argsp  = &args;
 356               		.loc 1 167 3 is_stmt 1 view .LVU72
 357               		.loc 1 167 13 is_stmt 0 view .LVU73
 358 001e CE01      		movw r24,r28
 359 0020 0596      		adiw r24,5
 360 0022 9C83      		std Y+4,r25
 361 0024 8B83      		std Y+3,r24
 168:../../os/oslib/src/chdelegates.c ****   (void)cm; /* Suppresses a lint warning.*/
 362               		.loc 1 168 3 is_stmt 1 view .LVU74
 169:../../os/oslib/src/chdelegates.c **** 
 170:../../os/oslib/src/chdelegates.c ****   /* Sending the message to the dispatcher thread, the return value is
 171:../../os/oslib/src/chdelegates.c ****      contained in the returned message.*/
 172:../../os/oslib/src/chdelegates.c ****   msg = chMsgSend(tp, (msg_t)&cm);
 363               		.loc 1 172 3 view .LVU75
 364               		.loc 1 172 9 is_stmt 0 view .LVU76
 365 0026 BE01      		movw r22,r28
 366 0028 6F5F      		subi r22,-1
 367 002a 7F4F      		sbci r23,-1
 368 002c 8B85      		ldd r24,Y+11
 369 002e 9C85      		ldd r25,Y+12
 370 0030 0E94 0000 		call chMsgSend
 371               	.LVL21:
 173:../../os/oslib/src/chdelegates.c **** 
 174:../../os/oslib/src/chdelegates.c ****   va_end(args);
 372               		.loc 1 174 3 is_stmt 1 view .LVU77
 175:../../os/oslib/src/chdelegates.c **** 
 176:../../os/oslib/src/chdelegates.c ****   return msg;
 373               		.loc 1 176 3 view .LVU78
 374               	/* epilogue start */
 177:../../os/oslib/src/chdelegates.c **** }
 375               		.loc 1 177 1 is_stmt 0 view .LVU79
 376 0034 0F90      		pop __tmp_reg__
 377 0036 0F90      		pop __tmp_reg__
 378 0038 0F90      		pop __tmp_reg__
 379 003a 0F90      		pop __tmp_reg__
 380 003c 0F90      		pop __tmp_reg__
 381 003e 0F90      		pop __tmp_reg__
 382 0040 DF91      		pop r29
 383 0042 CF91      		pop r28
 384 0044 0895      		ret
 385               		.cfi_endproc
 386               	.LFE103:
 388               		.section	.text.chDelegateDispatch,"ax",@progbits
 389               	.global	chDelegateDispatch
 391               	chDelegateDispatch:
 392               	.LFB104:
 178:../../os/oslib/src/chdelegates.c **** 
 179:../../os/oslib/src/chdelegates.c **** /*lint -restore*/
 180:../../os/oslib/src/chdelegates.c **** 
 181:../../os/oslib/src/chdelegates.c **** /**
 182:../../os/oslib/src/chdelegates.c ****  * @brief   Call messages dispatching.
 183:../../os/oslib/src/chdelegates.c ****  * @details The function awaits for an incoming call messages and calls the
 184:../../os/oslib/src/chdelegates.c ****  *          specified functions, then it returns. In case multiple threads
 185:../../os/oslib/src/chdelegates.c ****  *          are sending messages then the requests are served in priority
 186:../../os/oslib/src/chdelegates.c ****  *          order.
 187:../../os/oslib/src/chdelegates.c ****  *
 188:../../os/oslib/src/chdelegates.c ****  * @api
 189:../../os/oslib/src/chdelegates.c ****  */
 190:../../os/oslib/src/chdelegates.c **** void chDelegateDispatch(void) {
 393               		.loc 1 190 31 is_stmt 1 view -0
 394               		.cfi_startproc
 395 0000 CF93      		push r28
 396               	.LCFI12:
 397               		.cfi_def_cfa_offset 3
 398               		.cfi_offset 28, -2
 399 0002 DF93      		push r29
 400               	.LCFI13:
 401               		.cfi_def_cfa_offset 4
 402               		.cfi_offset 29, -3
 403               	/* prologue: function */
 404               	/* frame size = 0 */
 405               	/* stack size = 2 */
 406               	.L__stack_usage = 2
 191:../../os/oslib/src/chdelegates.c ****   thread_t *tp;
 407               		.loc 1 191 3 view .LVU81
 192:../../os/oslib/src/chdelegates.c ****   const call_message_t *cmp;
 408               		.loc 1 192 3 view .LVU82
 193:../../os/oslib/src/chdelegates.c ****   msg_t ret;
 409               		.loc 1 193 3 view .LVU83
 194:../../os/oslib/src/chdelegates.c **** 
 195:../../os/oslib/src/chdelegates.c ****   tp = chMsgWait();
 410               		.loc 1 195 3 view .LVU84
 411               		.loc 1 195 8 is_stmt 0 view .LVU85
 412 0004 0E94 0000 		call chMsgWait
 413               	.LVL22:
 414 0008 EC01      		movw r28,r24
 415               	.LVL23:
 196:../../os/oslib/src/chdelegates.c ****   cmp = (const call_message_t *)chMsgGet(tp);
 416               		.loc 1 196 3 is_stmt 1 view .LVU86
 417               		.loc 1 196 7 is_stmt 0 view .LVU87
 418 000a A885      		ldd r26,Y+8
 419 000c B985      		ldd r27,Y+9
 420               	.LVL24:
 197:../../os/oslib/src/chdelegates.c ****   ret = cmp->veneer(cmp->argsp);
 421               		.loc 1 197 3 is_stmt 1 view .LVU88
 422               		.loc 1 197 9 is_stmt 0 view .LVU89
 423 000e ED91      		ld r30,X+
 424 0010 FC91      		ld r31,X
 425 0012 1197      		sbiw r26,1
 426 0014 1296      		adiw r26,2
 427 0016 8D91      		ld r24,X+
 428 0018 9C91      		ld r25,X
 429               	.LVL25:
 430               		.loc 1 197 9 view .LVU90
 431 001a 0995      		icall
 432               	.LVL26:
 433               		.loc 1 197 9 view .LVU91
 434 001c BC01      		movw r22,r24
 435               	.LVL27:
 198:../../os/oslib/src/chdelegates.c **** 
 199:../../os/oslib/src/chdelegates.c ****   chMsgRelease(tp, ret);
 436               		.loc 1 199 3 is_stmt 1 view .LVU92
 437 001e CE01      		movw r24,r28
 438               	/* epilogue start */
 200:../../os/oslib/src/chdelegates.c **** }
 439               		.loc 1 200 1 is_stmt 0 view .LVU93
 440 0020 DF91      		pop r29
 441 0022 CF91      		pop r28
 442               	.LVL28:
 199:../../os/oslib/src/chdelegates.c **** }
 443               		.loc 1 199 3 view .LVU94
 444 0024 0C94 0000 		jmp chMsgRelease
 445               	.LVL29:
 199:../../os/oslib/src/chdelegates.c **** }
 446               		.loc 1 199 3 view .LVU95
 447               		.cfi_endproc
 448               	.LFE104:
 450               		.section	.text.chDelegateDispatchTimeout,"ax",@progbits
 451               	.global	chDelegateDispatchTimeout
 453               	chDelegateDispatchTimeout:
 454               	.LVL30:
 455               	.LFB105:
 201:../../os/oslib/src/chdelegates.c **** 
 202:../../os/oslib/src/chdelegates.c **** /**
 203:../../os/oslib/src/chdelegates.c ****  * @brief   Call messages dispatching with timeout.
 204:../../os/oslib/src/chdelegates.c ****  * @details The function awaits for an incoming call messages and calls the
 205:../../os/oslib/src/chdelegates.c ****  *          specified functions, then it returns. In case multiple threads
 206:../../os/oslib/src/chdelegates.c ****  *          are sending messages then the requests are served in priority
 207:../../os/oslib/src/chdelegates.c ****  *          order.
 208:../../os/oslib/src/chdelegates.c ****  *
 209:../../os/oslib/src/chdelegates.c ****  * @param[in] timeout   the number of ticks before the operation timeouts,
 210:../../os/oslib/src/chdelegates.c ****  *                      the following special values are allowed:
 211:../../os/oslib/src/chdelegates.c ****  *                      - @a TIME_INFINITE no timeout.
 212:../../os/oslib/src/chdelegates.c ****  *                      .
 213:../../os/oslib/src/chdelegates.c ****  * @return              The function outcome.
 214:../../os/oslib/src/chdelegates.c ****  * @retval MSG_OK       if a function has been called.
 215:../../os/oslib/src/chdelegates.c ****  * @retval MSG_TIMEOUT  if a timeout occurred.
 216:../../os/oslib/src/chdelegates.c ****  *
 217:../../os/oslib/src/chdelegates.c ****  * @api
 218:../../os/oslib/src/chdelegates.c ****  */
 219:../../os/oslib/src/chdelegates.c **** msg_t chDelegateDispatchTimeout(sysinterval_t timeout) {
 456               		.loc 1 219 56 is_stmt 1 view -0
 457               		.cfi_startproc
 458               		.loc 1 219 56 is_stmt 0 view .LVU97
 459 0000 CF93      		push r28
 460               	.LCFI14:
 461               		.cfi_def_cfa_offset 3
 462               		.cfi_offset 28, -2
 463 0002 DF93      		push r29
 464               	.LCFI15:
 465               		.cfi_def_cfa_offset 4
 466               		.cfi_offset 29, -3
 467               	/* prologue: function */
 468               	/* frame size = 0 */
 469               	/* stack size = 2 */
 470               	.L__stack_usage = 2
 220:../../os/oslib/src/chdelegates.c ****   thread_t *tp;
 471               		.loc 1 220 3 is_stmt 1 view .LVU98
 221:../../os/oslib/src/chdelegates.c ****   const call_message_t *cmp;
 472               		.loc 1 221 3 view .LVU99
 222:../../os/oslib/src/chdelegates.c ****   msg_t ret;
 473               		.loc 1 222 3 view .LVU100
 223:../../os/oslib/src/chdelegates.c **** 
 224:../../os/oslib/src/chdelegates.c ****   tp = chMsgWaitTimeout(timeout);
 474               		.loc 1 224 3 view .LVU101
 475               		.loc 1 224 8 is_stmt 0 view .LVU102
 476 0004 0E94 0000 		call chMsgWaitTimeout
 477               	.LVL31:
 478               		.loc 1 224 8 view .LVU103
 479 0008 EC01      		movw r28,r24
 480               	.LVL32:
 225:../../os/oslib/src/chdelegates.c ****   if (tp == NULL) {
 481               		.loc 1 225 3 is_stmt 1 view .LVU104
 482               		.loc 1 225 6 is_stmt 0 view .LVU105
 483 000a 892B      		or r24,r25
 484 000c 01F0      		breq .L11
 226:../../os/oslib/src/chdelegates.c ****     return MSG_TIMEOUT;
 227:../../os/oslib/src/chdelegates.c ****   }
 228:../../os/oslib/src/chdelegates.c **** 
 229:../../os/oslib/src/chdelegates.c ****   cmp = (const call_message_t *)chMsgGet(tp);
 485               		.loc 1 229 3 is_stmt 1 view .LVU106
 486               		.loc 1 229 7 is_stmt 0 view .LVU107
 487 000e A885      		ldd r26,Y+8
 488 0010 B985      		ldd r27,Y+9
 489               	.LVL33:
 230:../../os/oslib/src/chdelegates.c ****   ret = cmp->veneer(cmp->argsp);
 490               		.loc 1 230 3 is_stmt 1 view .LVU108
 491               		.loc 1 230 9 is_stmt 0 view .LVU109
 492 0012 ED91      		ld r30,X+
 493 0014 FC91      		ld r31,X
 494 0016 1197      		sbiw r26,1
 495 0018 1296      		adiw r26,2
 496 001a 8D91      		ld r24,X+
 497 001c 9C91      		ld r25,X
 498               	.LVL34:
 499               		.loc 1 230 9 view .LVU110
 500 001e 0995      		icall
 501               	.LVL35:
 502               		.loc 1 230 9 view .LVU111
 503 0020 BC01      		movw r22,r24
 504               	.LVL36:
 231:../../os/oslib/src/chdelegates.c **** 
 232:../../os/oslib/src/chdelegates.c ****   chMsgRelease(tp, ret);
 505               		.loc 1 232 3 is_stmt 1 view .LVU112
 506 0022 CE01      		movw r24,r28
 507 0024 0E94 0000 		call chMsgRelease
 508               	.LVL37:
 233:../../os/oslib/src/chdelegates.c **** 
 234:../../os/oslib/src/chdelegates.c ****   return MSG_OK;
 509               		.loc 1 234 3 view .LVU113
 510               		.loc 1 234 10 is_stmt 0 view .LVU114
 511 0028 80E0      		ldi r24,0
 512 002a 90E0      		ldi r25,0
 513               	.LVL38:
 514               	.L9:
 515               	/* epilogue start */
 235:../../os/oslib/src/chdelegates.c **** }
 516               		.loc 1 235 1 view .LVU115
 517 002c DF91      		pop r29
 518 002e CF91      		pop r28
 519               	.LVL39:
 520               		.loc 1 235 1 view .LVU116
 521 0030 0895      		ret
 522               	.LVL40:
 523               	.L11:
 226:../../os/oslib/src/chdelegates.c ****   }
 524               		.loc 1 226 12 view .LVU117
 525 0032 8FEF      		ldi r24,lo8(-1)
 526 0034 9FEF      		ldi r25,lo8(-1)
 527               	.LVL41:
 226:../../os/oslib/src/chdelegates.c ****   }
 528               		.loc 1 226 12 view .LVU118
 529 0036 00C0      		rjmp .L9
 530               		.cfi_endproc
 531               	.LFE105:
 533               		.text
 534               	.Letext0:
 535               		.file 2 "/usr/avr/include/stdint.h"
 536               		.file 3 "../../os/common/ports/AVR/compilers/GCC/chtypes.h"
 537               		.file 4 "../../os/nil/include/ch.h"
 538               		.file 5 "../../os/common/ports/AVR/chcore.h"
 539               		.file 6 "/usr/lib/gcc/avr/14.1.0/include/stdarg.h"
 540               		.file 7 "../../os/oslib/include/chdelegates.h"
 541               		.file 8 "../../os/nil/include/chmsg.h"