   1               		.file	"chfactory.c"
   2               	__SP_H__ = 0x3e
   3               	__SP_L__ = 0x3d
   4               	__SREG__ = 0x3f
   5               	__tmp_reg__ = 0
   6               	__zero_reg__ = 1
   7               		.text
   8               	.Ltext0:
   9               		.cfi_sections	.debug_frame
  10               		.file 1 "../../os/oslib/src/chfactory.c"
  11               		.section	.text.chCoreAllocAlignedI,"ax",@progbits
  13               	chCoreAllocAlignedI:
  14               	.LVL0:
  15               	.LFB32:
  16               		.file 2 "../../os/oslib/include/chmemcore.h"
   1:../../os/oslib/include/chmemcore.h **** /*
   2:../../os/oslib/include/chmemcore.h ****     ChibiOS - Copyright (C) 2006,2007,2008,2009,2010,2011,2012,2013,2014,
   3:../../os/oslib/include/chmemcore.h ****               2015,2016,2017,2018,2019,2020,2021 Giovanni Di Sirio.
   4:../../os/oslib/include/chmemcore.h **** 
   5:../../os/oslib/include/chmemcore.h ****     This file is part of ChibiOS.
   6:../../os/oslib/include/chmemcore.h **** 
   7:../../os/oslib/include/chmemcore.h ****     ChibiOS is free software; you can redistribute it and/or modify
   8:../../os/oslib/include/chmemcore.h ****     it under the terms of the GNU General Public License as published by
   9:../../os/oslib/include/chmemcore.h ****     the Free Software Foundation version 3 of the License.
  10:../../os/oslib/include/chmemcore.h **** 
  11:../../os/oslib/include/chmemcore.h ****     ChibiOS is distributed in the hope that it will be useful,
  12:../../os/oslib/include/chmemcore.h ****     but WITHOUT ANY WARRANTY; without even the implied warranty of
  13:../../os/oslib/include/chmemcore.h ****     MERCHANTABILITY or FITNESS FOR A PARTICULAR PURPOSE.  See the
  14:../../os/oslib/include/chmemcore.h ****     GNU General Public License for more details.
  15:../../os/oslib/include/chmemcore.h **** 
  16:../../os/oslib/include/chmemcore.h ****     You should have received a copy of the GNU General Public License
  17:../../os/oslib/include/chmemcore.h ****     along with this program.  If not, see <http://www.gnu.org/licenses/>.
  18:../../os/oslib/include/chmemcore.h **** */
  19:../../os/oslib/include/chmemcore.h **** 
  20:../../os/oslib/include/chmemcore.h **** /**
  21:../../os/oslib/include/chmemcore.h ****  * @file    oslib/include/chmemcore.h
  22:../../os/oslib/include/chmemcore.h ****  * @brief   Core memory manager macros and structures.
  23:../../os/oslib/include/chmemcore.h ****  *
  24:../../os/oslib/include/chmemcore.h ****  * @addtogroup oslib_memcore
  25:../../os/oslib/include/chmemcore.h ****  * @{
  26:../../os/oslib/include/chmemcore.h ****  */
  27:../../os/oslib/include/chmemcore.h **** 
  28:../../os/oslib/include/chmemcore.h **** #ifndef CHMEMCORE_H
  29:../../os/oslib/include/chmemcore.h **** #define CHMEMCORE_H
  30:../../os/oslib/include/chmemcore.h **** 
  31:../../os/oslib/include/chmemcore.h **** #if (CH_CFG_USE_MEMCORE == TRUE) || defined(__DOXYGEN__)
  32:../../os/oslib/include/chmemcore.h **** 
  33:../../os/oslib/include/chmemcore.h **** /*===========================================================================*/
  34:../../os/oslib/include/chmemcore.h **** /* Module constants.                                                         */
  35:../../os/oslib/include/chmemcore.h **** /*===========================================================================*/
  36:../../os/oslib/include/chmemcore.h **** 
  37:../../os/oslib/include/chmemcore.h **** /*===========================================================================*/
  38:../../os/oslib/include/chmemcore.h **** /* Module pre-compile time settings.                                         */
  39:../../os/oslib/include/chmemcore.h **** /*===========================================================================*/
  40:../../os/oslib/include/chmemcore.h **** 
  41:../../os/oslib/include/chmemcore.h **** /**
  42:../../os/oslib/include/chmemcore.h ****  * @brief   Managed RAM size.
  43:../../os/oslib/include/chmemcore.h ****  * @details Size of the RAM area to be managed by the OS. If set to zero
  44:../../os/oslib/include/chmemcore.h ****  *          then the whole available RAM is used. The core memory is made
  45:../../os/oslib/include/chmemcore.h ****  *          available to the heap allocator and/or can be used directly through
  46:../../os/oslib/include/chmemcore.h ****  *          the simplified core memory allocator.
  47:../../os/oslib/include/chmemcore.h ****  *
  48:../../os/oslib/include/chmemcore.h ****  * @note    In order to let the OS manage the whole RAM the linker script must
  49:../../os/oslib/include/chmemcore.h ****  *          provide the @p __heap_base__ and @p __heap_end__ symbols.
  50:../../os/oslib/include/chmemcore.h ****  * @note    Requires @p CH_CFG_USE_MEMCORE.
  51:../../os/oslib/include/chmemcore.h ****  */
  52:../../os/oslib/include/chmemcore.h **** #if !defined(CH_CFG_MEMCORE_SIZE) || defined(__DOXYGEN__)
  53:../../os/oslib/include/chmemcore.h **** #define CH_CFG_MEMCORE_SIZE                 0
  54:../../os/oslib/include/chmemcore.h **** #endif
  55:../../os/oslib/include/chmemcore.h **** 
  56:../../os/oslib/include/chmemcore.h **** /*===========================================================================*/
  57:../../os/oslib/include/chmemcore.h **** /* Derived constants and error checks.                                       */
  58:../../os/oslib/include/chmemcore.h **** /*===========================================================================*/
  59:../../os/oslib/include/chmemcore.h **** 
  60:../../os/oslib/include/chmemcore.h **** #if CH_CFG_MEMCORE_SIZE < 0
  61:../../os/oslib/include/chmemcore.h **** #error "invalid CH_CFG_MEMCORE_SIZE value specified"
  62:../../os/oslib/include/chmemcore.h **** #endif
  63:../../os/oslib/include/chmemcore.h **** 
  64:../../os/oslib/include/chmemcore.h **** /*===========================================================================*/
  65:../../os/oslib/include/chmemcore.h **** /* Module data structures and types.                                         */
  66:../../os/oslib/include/chmemcore.h **** /*===========================================================================*/
  67:../../os/oslib/include/chmemcore.h **** 
  68:../../os/oslib/include/chmemcore.h **** /**
  69:../../os/oslib/include/chmemcore.h ****  * @brief   Memory get function.
  70:../../os/oslib/include/chmemcore.h ****  */
  71:../../os/oslib/include/chmemcore.h **** typedef void *(*memgetfunc_t)(size_t size, unsigned align);
  72:../../os/oslib/include/chmemcore.h **** 
  73:../../os/oslib/include/chmemcore.h **** /**
  74:../../os/oslib/include/chmemcore.h ****  * @brief   Enhanced memory get function.
  75:../../os/oslib/include/chmemcore.h ****  */
  76:../../os/oslib/include/chmemcore.h **** typedef void *(*memgetfunc2_t)(size_t size, unsigned align, size_t offset);
  77:../../os/oslib/include/chmemcore.h **** 
  78:../../os/oslib/include/chmemcore.h **** /**
  79:../../os/oslib/include/chmemcore.h ****  * @brief   Type of memory core object.
  80:../../os/oslib/include/chmemcore.h ****  */
  81:../../os/oslib/include/chmemcore.h **** typedef struct {
  82:../../os/oslib/include/chmemcore.h ****   /**
  83:../../os/oslib/include/chmemcore.h ****    * @brief   Next free address.
  84:../../os/oslib/include/chmemcore.h ****    */
  85:../../os/oslib/include/chmemcore.h ****   uint8_t *basemem;
  86:../../os/oslib/include/chmemcore.h ****   /**
  87:../../os/oslib/include/chmemcore.h ****    * @brief   Final address.
  88:../../os/oslib/include/chmemcore.h ****    */
  89:../../os/oslib/include/chmemcore.h ****   uint8_t *topmem;
  90:../../os/oslib/include/chmemcore.h **** } memcore_t;
  91:../../os/oslib/include/chmemcore.h **** 
  92:../../os/oslib/include/chmemcore.h **** /*===========================================================================*/
  93:../../os/oslib/include/chmemcore.h **** /* Module macros.                                                            */
  94:../../os/oslib/include/chmemcore.h **** /*===========================================================================*/
  95:../../os/oslib/include/chmemcore.h **** 
  96:../../os/oslib/include/chmemcore.h **** /**
  97:../../os/oslib/include/chmemcore.h ****  * @brief   Allocates a memory block.
  98:../../os/oslib/include/chmemcore.h ****  * @note    This is a generic form with unspecified allocation position.
  99:../../os/oslib/include/chmemcore.h ****  *
 100:../../os/oslib/include/chmemcore.h ****  * @iclass
 101:../../os/oslib/include/chmemcore.h ****  */
 102:../../os/oslib/include/chmemcore.h **** #define chCoreAllocAlignedWithOffsetI chCoreAllocFromTopI
 103:../../os/oslib/include/chmemcore.h **** 
 104:../../os/oslib/include/chmemcore.h **** /**
 105:../../os/oslib/include/chmemcore.h ****  * @brief   Allocates a memory block.
 106:../../os/oslib/include/chmemcore.h ****  * @note    This is a generic form with unspecified allocation position.
 107:../../os/oslib/include/chmemcore.h ****  *
 108:../../os/oslib/include/chmemcore.h ****  * @api
 109:../../os/oslib/include/chmemcore.h ****  */
 110:../../os/oslib/include/chmemcore.h **** #define chCoreAllocAlignedWithOffset chCoreAllocFromTop
 111:../../os/oslib/include/chmemcore.h **** 
 112:../../os/oslib/include/chmemcore.h **** /*===========================================================================*/
 113:../../os/oslib/include/chmemcore.h **** /* External declarations.                                                    */
 114:../../os/oslib/include/chmemcore.h **** /*===========================================================================*/
 115:../../os/oslib/include/chmemcore.h **** 
 116:../../os/oslib/include/chmemcore.h **** #if !defined(__DOXYGEN__)
 117:../../os/oslib/include/chmemcore.h **** extern memcore_t ch_memcore;
 118:../../os/oslib/include/chmemcore.h **** #endif
 119:../../os/oslib/include/chmemcore.h **** 
 120:../../os/oslib/include/chmemcore.h **** #ifdef __cplusplus
 121:../../os/oslib/include/chmemcore.h **** extern "C" {
 122:../../os/oslib/include/chmemcore.h **** #endif
 123:../../os/oslib/include/chmemcore.h ****   void __core_init(void);
 124:../../os/oslib/include/chmemcore.h ****   void *chCoreAllocFromBaseI(size_t size, unsigned align, size_t offset);
 125:../../os/oslib/include/chmemcore.h ****   void *chCoreAllocFromTopI(size_t size, unsigned align, size_t offset);
 126:../../os/oslib/include/chmemcore.h ****   void *chCoreAllocFromBase(size_t size, unsigned align, size_t offset);
 127:../../os/oslib/include/chmemcore.h ****   void *chCoreAllocFromTop(size_t size, unsigned align, size_t offset);
 128:../../os/oslib/include/chmemcore.h ****   size_t chCoreGetStatusX(void);
 129:../../os/oslib/include/chmemcore.h **** #ifdef __cplusplus
 130:../../os/oslib/include/chmemcore.h **** }
 131:../../os/oslib/include/chmemcore.h **** #endif
 132:../../os/oslib/include/chmemcore.h **** 
 133:../../os/oslib/include/chmemcore.h **** /*===========================================================================*/
 134:../../os/oslib/include/chmemcore.h **** /* Module inline functions.                                                  */
 135:../../os/oslib/include/chmemcore.h **** /*===========================================================================*/
 136:../../os/oslib/include/chmemcore.h **** 
 137:../../os/oslib/include/chmemcore.h **** /**
 138:../../os/oslib/include/chmemcore.h ****  * @brief   Allocates a memory block.
 139:../../os/oslib/include/chmemcore.h ****  * @details The allocated block is guaranteed to be properly aligned to the
 140:../../os/oslib/include/chmemcore.h ****  *          specified alignment.
 141:../../os/oslib/include/chmemcore.h ****  * @note    This is a generic form with unspecified allocation position.
 142:../../os/oslib/include/chmemcore.h ****  *
 143:../../os/oslib/include/chmemcore.h ****  * @param[in] size      the size of the block to be allocated.
 144:../../os/oslib/include/chmemcore.h ****  * @param[in] align     desired memory alignment
 145:../../os/oslib/include/chmemcore.h ****  * @return              A pointer to the allocated memory block.
 146:../../os/oslib/include/chmemcore.h ****  * @retval NULL         allocation failed, core memory exhausted.
 147:../../os/oslib/include/chmemcore.h ****  *
 148:../../os/oslib/include/chmemcore.h ****  * @iclass
 149:../../os/oslib/include/chmemcore.h ****  */
 150:../../os/oslib/include/chmemcore.h **** static inline void *chCoreAllocAlignedI(size_t size, unsigned align) {
  17               		.loc 2 150 70 view -0
  18               		.cfi_startproc
  19               	/* prologue: function */
  20               	/* frame size = 0 */
  21               	/* stack size = 0 */
  22               	.L__stack_usage = 0
 151:../../os/oslib/include/chmemcore.h **** 
 152:../../os/oslib/include/chmemcore.h ****   return chCoreAllocAlignedWithOffsetI(size, align, 0U);
  23               		.loc 2 152 3 view .LVU1
  24               		.loc 2 152 10 is_stmt 0 view .LVU2
  25 0000 40E0      		ldi r20,0
  26 0002 50E0      		ldi r21,0
  27 0004 0C94 0000 		jmp chCoreAllocFromTopI
  28               	.LVL1:
  29               		.loc 2 152 10 view .LVU3
  30               		.cfi_endproc
  31               	.LFE32:
  33               		.section	.text.dyn_create_object_heap,"ax",@progbits
  35               	dyn_create_object_heap:
  36               	.LVL2:
  37               	.LFB102:
   1:../../os/oslib/src/chfactory.c **** /*
   2:../../os/oslib/src/chfactory.c ****     ChibiOS - Copyright (C) 2006,2007,2008,2009,2010,2011,2012,2013,2014,
   3:../../os/oslib/src/chfactory.c ****               2015,2016,2017,2018,2019,2020,2021 Giovanni Di Sirio.
   4:../../os/oslib/src/chfactory.c **** 
   5:../../os/oslib/src/chfactory.c ****     This file is part of ChibiOS.
   6:../../os/oslib/src/chfactory.c **** 
   7:../../os/oslib/src/chfactory.c ****     ChibiOS is free software; you can redistribute it and/or modify
   8:../../os/oslib/src/chfactory.c ****     it under the terms of the GNU General Public License as published by
   9:../../os/oslib/src/chfactory.c ****     the Free Software Foundation version 3 of the License.
  10:../../os/oslib/src/chfactory.c **** 
  11:../../os/oslib/src/chfactory.c ****     ChibiOS is distributed in the hope that it will be useful,
  12:../../os/oslib/src/chfactory.c ****     but WITHOUT ANY WARRANTY; without even the implied warranty of
  13:../../os/oslib/src/chfactory.c ****     MERCHANTABILITY or FITNESS FOR A PARTICULAR PURPOSE.  See the
  14:../../os/oslib/src/chfactory.c ****     GNU General Public License for more details.
  15:../../os/oslib/src/chfactory.c **** 
  16:../../os/oslib/src/chfactory.c ****     You should have received a copy of the GNU General Public License
  17:../../os/oslib/src/chfactory.c ****     along with this program.  If not, see <http://www.gnu.org/licenses/>.
  18:../../os/oslib/src/chfactory.c **** */
  19:../../os/oslib/src/chfactory.c **** 
  20:../../os/oslib/src/chfactory.c **** /**
  21:../../os/oslib/src/chfactory.c ****  * @file    oslib/src/chfactory.c
  22:../../os/oslib/src/chfactory.c ****  * @brief   ChibiOS objects factory and registry code.
  23:../../os/oslib/src/chfactory.c ****  *
  24:../../os/oslib/src/chfactory.c ****  * @addtogroup oslib_objects_factory
  25:../../os/oslib/src/chfactory.c ****  * @details The object factory is a subsystem that allows to:
  26:../../os/oslib/src/chfactory.c ****  *          - Register static objects by name.
  27:../../os/oslib/src/chfactory.c ****  *          - Dynamically create objects and assign them a name.
  28:../../os/oslib/src/chfactory.c ****  *          - Retrieve existing objects by name.
  29:../../os/oslib/src/chfactory.c ****  *          - Free objects by reference.
  30:../../os/oslib/src/chfactory.c ****  *          .
  31:../../os/oslib/src/chfactory.c ****  *          Allocated OS objects are handled using a reference counter, only
  32:../../os/oslib/src/chfactory.c ****  *          when all references have been released then the object memory is
  33:../../os/oslib/src/chfactory.c ****  *          freed in a pool.<br>
  34:../../os/oslib/src/chfactory.c ****  * @pre     This subsystem requires the @p CH_CFG_USE_MEMCORE and
  35:../../os/oslib/src/chfactory.c ****  *          @p CH_CFG_USE_MEMPOOLS options to be set to @p TRUE. The
  36:../../os/oslib/src/chfactory.c ****  *          option @p CH_CFG_USE_HEAP is also required if the support
  37:../../os/oslib/src/chfactory.c ****  *          for variable length objects is enabled.
  38:../../os/oslib/src/chfactory.c ****  * @note    Compatible with RT and NIL.
  39:../../os/oslib/src/chfactory.c ****  * @{
  40:../../os/oslib/src/chfactory.c ****  */
  41:../../os/oslib/src/chfactory.c **** 
  42:../../os/oslib/src/chfactory.c **** #include <string.h>
  43:../../os/oslib/src/chfactory.c **** 
  44:../../os/oslib/src/chfactory.c **** #include "ch.h"
  45:../../os/oslib/src/chfactory.c **** 
  46:../../os/oslib/src/chfactory.c **** #if (CH_CFG_USE_FACTORY == TRUE) || defined(__DOXYGEN__)
  47:../../os/oslib/src/chfactory.c **** 
  48:../../os/oslib/src/chfactory.c **** /*===========================================================================*/
  49:../../os/oslib/src/chfactory.c **** /* Module local definitions.                                                 */
  50:../../os/oslib/src/chfactory.c **** /*===========================================================================*/
  51:../../os/oslib/src/chfactory.c **** 
  52:../../os/oslib/src/chfactory.c **** /*
  53:../../os/oslib/src/chfactory.c ****  * Defaults on the best synchronization mechanism available.
  54:../../os/oslib/src/chfactory.c ****  */
  55:../../os/oslib/src/chfactory.c **** #if (CH_CFG_USE_MUTEXES == TRUE) || defined(__DOXYGEN__)
  56:../../os/oslib/src/chfactory.c **** #define F_LOCK()        chMtxLock(&ch_factory.mtx)
  57:../../os/oslib/src/chfactory.c **** #define F_UNLOCK()      chMtxUnlock(&ch_factory.mtx)
  58:../../os/oslib/src/chfactory.c **** #else
  59:../../os/oslib/src/chfactory.c **** #define F_LOCK()        (void) chSemWait(&ch_factory.sem)
  60:../../os/oslib/src/chfactory.c **** #define F_UNLOCK()      chSemSignal(&ch_factory.sem)
  61:../../os/oslib/src/chfactory.c **** #endif
  62:../../os/oslib/src/chfactory.c **** 
  63:../../os/oslib/src/chfactory.c **** /*===========================================================================*/
  64:../../os/oslib/src/chfactory.c **** /* Module exported variables.                                                */
  65:../../os/oslib/src/chfactory.c **** /*===========================================================================*/
  66:../../os/oslib/src/chfactory.c **** 
  67:../../os/oslib/src/chfactory.c **** /**
  68:../../os/oslib/src/chfactory.c ****  * @brief   Factory object static instance.
  69:../../os/oslib/src/chfactory.c ****  * @note    It is a global object because it could be accessed through
  70:../../os/oslib/src/chfactory.c ****  *          a specific debugger plugin.
  71:../../os/oslib/src/chfactory.c ****  */
  72:../../os/oslib/src/chfactory.c **** objects_factory_t ch_factory;
  73:../../os/oslib/src/chfactory.c **** 
  74:../../os/oslib/src/chfactory.c **** /*===========================================================================*/
  75:../../os/oslib/src/chfactory.c **** /* Module local types.                                                       */
  76:../../os/oslib/src/chfactory.c **** /*===========================================================================*/
  77:../../os/oslib/src/chfactory.c **** 
  78:../../os/oslib/src/chfactory.c **** /*===========================================================================*/
  79:../../os/oslib/src/chfactory.c **** /* Module local variables.                                                   */
  80:../../os/oslib/src/chfactory.c **** /*===========================================================================*/
  81:../../os/oslib/src/chfactory.c **** 
  82:../../os/oslib/src/chfactory.c **** /*===========================================================================*/
  83:../../os/oslib/src/chfactory.c **** /* Module local functions.                                                   */
  84:../../os/oslib/src/chfactory.c **** /*===========================================================================*/
  85:../../os/oslib/src/chfactory.c **** 
  86:../../os/oslib/src/chfactory.c **** static void copy_name(const char *sp, char *dp) {
  87:../../os/oslib/src/chfactory.c ****   unsigned i;
  88:../../os/oslib/src/chfactory.c ****   char c;
  89:../../os/oslib/src/chfactory.c **** 
  90:../../os/oslib/src/chfactory.c ****   i = CH_CFG_FACTORY_MAX_NAMES_LENGTH;
  91:../../os/oslib/src/chfactory.c ****   do {
  92:../../os/oslib/src/chfactory.c ****     c = *sp++;
  93:../../os/oslib/src/chfactory.c ****     *dp++ = c;
  94:../../os/oslib/src/chfactory.c ****     i--;
  95:../../os/oslib/src/chfactory.c ****   } while ((c != (char)0) && (i > 0U));
  96:../../os/oslib/src/chfactory.c **** }
  97:../../os/oslib/src/chfactory.c **** 
  98:../../os/oslib/src/chfactory.c **** static inline void dyn_list_init(dyn_list_t *dlp) {
  99:../../os/oslib/src/chfactory.c **** 
 100:../../os/oslib/src/chfactory.c ****   dlp->next = (dyn_element_t *)dlp;
 101:../../os/oslib/src/chfactory.c **** }
 102:../../os/oslib/src/chfactory.c **** 
 103:../../os/oslib/src/chfactory.c **** static dyn_element_t *dyn_list_find(const char *name, dyn_list_t *dlp) {
 104:../../os/oslib/src/chfactory.c ****   dyn_element_t *p = dlp->next;
 105:../../os/oslib/src/chfactory.c **** 
 106:../../os/oslib/src/chfactory.c ****   while (p != (dyn_element_t *)dlp) {
 107:../../os/oslib/src/chfactory.c ****     if (strncmp(p->name, name, CH_CFG_FACTORY_MAX_NAMES_LENGTH) == 0) {
 108:../../os/oslib/src/chfactory.c ****       return p;
 109:../../os/oslib/src/chfactory.c ****     }
 110:../../os/oslib/src/chfactory.c ****     p = p->next;
 111:../../os/oslib/src/chfactory.c ****   }
 112:../../os/oslib/src/chfactory.c **** 
 113:../../os/oslib/src/chfactory.c ****   return NULL;
 114:../../os/oslib/src/chfactory.c **** }
 115:../../os/oslib/src/chfactory.c **** 
 116:../../os/oslib/src/chfactory.c **** static dyn_element_t *dyn_list_unlink(dyn_element_t *element,
 117:../../os/oslib/src/chfactory.c ****                                       dyn_list_t *dlp) {
 118:../../os/oslib/src/chfactory.c ****   dyn_element_t *prev = (dyn_element_t *)dlp;
 119:../../os/oslib/src/chfactory.c **** 
 120:../../os/oslib/src/chfactory.c ****   /* Scanning the list.*/
 121:../../os/oslib/src/chfactory.c ****   while (prev->next != (dyn_element_t *)dlp) {
 122:../../os/oslib/src/chfactory.c ****     if (prev->next == element) {
 123:../../os/oslib/src/chfactory.c ****       /* Found.*/
 124:../../os/oslib/src/chfactory.c ****       prev->next = element->next;
 125:../../os/oslib/src/chfactory.c ****       return element;
 126:../../os/oslib/src/chfactory.c ****     }
 127:../../os/oslib/src/chfactory.c **** 
 128:../../os/oslib/src/chfactory.c ****     /* Next element in the list.*/
 129:../../os/oslib/src/chfactory.c ****     prev = prev->next;
 130:../../os/oslib/src/chfactory.c ****   }
 131:../../os/oslib/src/chfactory.c **** 
 132:../../os/oslib/src/chfactory.c ****   return NULL;
 133:../../os/oslib/src/chfactory.c **** }
 134:../../os/oslib/src/chfactory.c **** 
 135:../../os/oslib/src/chfactory.c **** #if CH_FACTORY_REQUIRES_HEAP || defined(__DOXYGEN__)
 136:../../os/oslib/src/chfactory.c **** static dyn_element_t *dyn_create_object_heap(const char *name,
 137:../../os/oslib/src/chfactory.c ****                                              dyn_list_t *dlp,
 138:../../os/oslib/src/chfactory.c ****                                              size_t size,
 139:../../os/oslib/src/chfactory.c ****                                              unsigned align) {
  38               		.loc 1 139 62 is_stmt 1 view -0
  39               		.cfi_startproc
  40               		.loc 1 139 62 is_stmt 0 view .LVU5
  41 0000 8F92      		push r8
  42               	.LCFI0:
  43               		.cfi_def_cfa_offset 3
  44               		.cfi_offset 8, -2
  45 0002 9F92      		push r9
  46               	.LCFI1:
  47               		.cfi_def_cfa_offset 4
  48               		.cfi_offset 9, -3
  49 0004 AF92      		push r10
  50               	.LCFI2:
  51               		.cfi_def_cfa_offset 5
  52               		.cfi_offset 10, -4
  53 0006 BF92      		push r11
  54               	.LCFI3:
  55               		.cfi_def_cfa_offset 6
  56               		.cfi_offset 11, -5
  57 0008 CF92      		push r12
  58               	.LCFI4:
  59               		.cfi_def_cfa_offset 7
  60               		.cfi_offset 12, -6
  61 000a DF92      		push r13
  62               	.LCFI5:
  63               		.cfi_def_cfa_offset 8
  64               		.cfi_offset 13, -7
  65 000c EF92      		push r14
  66               	.LCFI6:
  67               		.cfi_def_cfa_offset 9
  68               		.cfi_offset 14, -8
  69 000e FF92      		push r15
  70               	.LCFI7:
  71               		.cfi_def_cfa_offset 10
  72               		.cfi_offset 15, -9
  73 0010 0F93      		push r16
  74               	.LCFI8:
  75               		.cfi_def_cfa_offset 11
  76               		.cfi_offset 16, -10
  77 0012 1F93      		push r17
  78               	.LCFI9:
  79               		.cfi_def_cfa_offset 12
  80               		.cfi_offset 17, -11
  81 0014 CF93      		push r28
  82               	.LCFI10:
  83               		.cfi_def_cfa_offset 13
  84               		.cfi_offset 28, -12
  85 0016 DF93      		push r29
  86               	.LCFI11:
  87               		.cfi_def_cfa_offset 14
  88               		.cfi_offset 29, -13
  89               	/* prologue: function */
  90               	/* frame size = 0 */
  91               	/* stack size = 12 */
  92               	.L__stack_usage = 12
  93 0018 8C01      		movw r16,r24
  94 001a 7B01      		movw r14,r22
  95 001c 5A01      		movw r10,r20
  96 001e 4901      		movw r8,r18
 140:../../os/oslib/src/chfactory.c ****   dyn_element_t *dep;
  97               		.loc 1 140 3 is_stmt 1 view .LVU6
 141:../../os/oslib/src/chfactory.c **** 
 142:../../os/oslib/src/chfactory.c ****   chDbgCheck(name != NULL);
  98               		.loc 1 142 3 view .LVU7
  99               		.loc 1 142 3 view .LVU8
 100               		.loc 1 142 3 discriminator 5 view .LVU9
 143:../../os/oslib/src/chfactory.c **** 
 144:../../os/oslib/src/chfactory.c ****   /* Checking if an object with this name has already been created.*/
 145:../../os/oslib/src/chfactory.c ****   dep = dyn_list_find(name, dlp);
 101               		.loc 1 145 3 view .LVU10
 102               	.LVL3:
 103               	.LBB34:
 104               	.LBI34:
 103:../../os/oslib/src/chfactory.c ****   dyn_element_t *p = dlp->next;
 105               		.loc 1 103 23 view .LVU11
 106               	.LBB35:
 104:../../os/oslib/src/chfactory.c **** 
 107               		.loc 1 104 3 view .LVU12
 104:../../os/oslib/src/chfactory.c **** 
 108               		.loc 1 104 18 is_stmt 0 view .LVU13
 109 0020 FB01      		movw r30,r22
 110 0022 C081      		ld r28,Z
 111 0024 D181      		ldd r29,Z+1
 112               	.LVL4:
 106:../../os/oslib/src/chfactory.c ****     if (strncmp(p->name, name, CH_CFG_FACTORY_MAX_NAMES_LENGTH) == 0) {
 113               		.loc 1 106 3 is_stmt 1 view .LVU14
 106:../../os/oslib/src/chfactory.c ****     if (strncmp(p->name, name, CH_CFG_FACTORY_MAX_NAMES_LENGTH) == 0) {
 114               		.loc 1 106 12 view .LVU15
 115 0026 6C17      		cp r22,r28
 116 0028 7D07      		cpc r23,r29
 117 002a 01F4      		brne .L6
 118 002c 00C0      		rjmp .L4
 119               	.LVL5:
 120               	.L22:
 110:../../os/oslib/src/chfactory.c ****   }
 121               		.loc 1 110 5 view .LVU16
 110:../../os/oslib/src/chfactory.c ****   }
 122               		.loc 1 110 7 is_stmt 0 view .LVU17
 123 002e 0990      		ld __tmp_reg__,Y+
 124 0030 D881      		ld r29,Y
 125 0032 C02D      		mov r28,__tmp_reg__
 126               	.LVL6:
 106:../../os/oslib/src/chfactory.c ****     if (strncmp(p->name, name, CH_CFG_FACTORY_MAX_NAMES_LENGTH) == 0) {
 127               		.loc 1 106 12 is_stmt 1 view .LVU18
 128 0034 EC16      		cp r14,r28
 129 0036 FD06      		cpc r15,r29
 130 0038 01F0      		breq .L4
 131               	.L6:
 107:../../os/oslib/src/chfactory.c ****       return p;
 132               		.loc 1 107 5 view .LVU19
 107:../../os/oslib/src/chfactory.c ****       return p;
 133               		.loc 1 107 9 is_stmt 0 view .LVU20
 134 003a 48E0      		ldi r20,lo8(8)
 135 003c 50E0      		ldi r21,0
 136 003e B801      		movw r22,r16
 137 0040 CE01      		movw r24,r28
 138 0042 0396      		adiw r24,3
 139 0044 0E94 0000 		call strncmp
 140               	.LVL7:
 107:../../os/oslib/src/chfactory.c ****       return p;
 141               		.loc 1 107 8 discriminator 1 view .LVU21
 142 0048 892B      		or r24,r25
 143 004a 01F4      		brne .L22
 144               	.LVL8:
 107:../../os/oslib/src/chfactory.c ****       return p;
 145               		.loc 1 107 8 discriminator 1 view .LVU22
 146               	.LBE35:
 147               	.LBE34:
 146:../../os/oslib/src/chfactory.c ****   if (dep != NULL) {
 148               		.loc 1 146 3 is_stmt 1 view .LVU23
 149               		.loc 1 146 6 is_stmt 0 view .LVU24
 150 004c CD2B      		or r28,r29
 151 004e 01F0      		breq .L4
 152               	.LVL9:
 153               	.L8:
 147:../../os/oslib/src/chfactory.c ****     return NULL;
 154               		.loc 1 147 12 view .LVU25
 155 0050 C12C      		mov r12,__zero_reg__
 156 0052 D12C      		mov r13,__zero_reg__
 157               	.LVL10:
 158               	.L3:
 148:../../os/oslib/src/chfactory.c ****   }
 149:../../os/oslib/src/chfactory.c **** 
 150:../../os/oslib/src/chfactory.c ****   /* Allocating space for the new buffer object.*/
 151:../../os/oslib/src/chfactory.c ****   dep = (dyn_element_t *)chHeapAllocAligned(NULL, size, align);
 152:../../os/oslib/src/chfactory.c ****   if (dep == NULL) {
 153:../../os/oslib/src/chfactory.c ****     return NULL;
 154:../../os/oslib/src/chfactory.c ****   }
 155:../../os/oslib/src/chfactory.c **** 
 156:../../os/oslib/src/chfactory.c ****   /* Initializing object list element.*/
 157:../../os/oslib/src/chfactory.c ****   copy_name(name, dep->name);
 158:../../os/oslib/src/chfactory.c ****   dep->refs = (ucnt_t)1;
 159:../../os/oslib/src/chfactory.c ****   dep->next = dlp->next;
 160:../../os/oslib/src/chfactory.c **** 
 161:../../os/oslib/src/chfactory.c ****   /* Updating factory list.*/
 162:../../os/oslib/src/chfactory.c ****   dlp->next = dep;
 163:../../os/oslib/src/chfactory.c **** 
 164:../../os/oslib/src/chfactory.c ****   return dep;
 165:../../os/oslib/src/chfactory.c **** }
 159               		.loc 1 165 1 view .LVU26
 160 0054 C601      		movw r24,r12
 161               	/* epilogue start */
 162 0056 DF91      		pop r29
 163 0058 CF91      		pop r28
 164 005a 1F91      		pop r17
 165 005c 0F91      		pop r16
 166 005e FF90      		pop r15
 167 0060 EF90      		pop r14
 168               	.LVL11:
 169               		.loc 1 165 1 view .LVU27
 170 0062 DF90      		pop r13
 171 0064 CF90      		pop r12
 172 0066 BF90      		pop r11
 173 0068 AF90      		pop r10
 174               	.LVL12:
 175               		.loc 1 165 1 view .LVU28
 176 006a 9F90      		pop r9
 177 006c 8F90      		pop r8
 178               	.LVL13:
 179               		.loc 1 165 1 view .LVU29
 180 006e 0895      		ret
 181               	.LVL14:
 182               	.L4:
 146:../../os/oslib/src/chfactory.c ****     return NULL;
 183               		.loc 1 146 3 is_stmt 1 view .LVU30
 151:../../os/oslib/src/chfactory.c ****   if (dep == NULL) {
 184               		.loc 1 151 3 view .LVU31
 151:../../os/oslib/src/chfactory.c ****   if (dep == NULL) {
 185               		.loc 1 151 26 is_stmt 0 view .LVU32
 186 0070 A401      		movw r20,r8
 187 0072 B501      		movw r22,r10
 188 0074 80E0      		ldi r24,0
 189 0076 90E0      		ldi r25,0
 190 0078 0E94 0000 		call chHeapAllocAligned
 191               	.LVL15:
 192 007c 6C01      		movw r12,r24
 193               	.LVL16:
 152:../../os/oslib/src/chfactory.c ****     return NULL;
 194               		.loc 1 152 3 is_stmt 1 view .LVU33
 152:../../os/oslib/src/chfactory.c ****     return NULL;
 195               		.loc 1 152 6 is_stmt 0 view .LVU34
 196 007e 0097      		sbiw r24,0
 197 0080 01F0      		breq .L8
 157:../../os/oslib/src/chfactory.c ****   dep->refs = (ucnt_t)1;
 198               		.loc 1 157 3 is_stmt 1 view .LVU35
 157:../../os/oslib/src/chfactory.c ****   dep->refs = (ucnt_t)1;
 199               		.loc 1 157 22 is_stmt 0 view .LVU36
 200 0082 0396      		adiw r24,3
 201               	.LVL17:
 202               	.LBB36:
 203               	.LBI36:
  86:../../os/oslib/src/chfactory.c ****   unsigned i;
 204               		.loc 1 86 13 is_stmt 1 view .LVU37
 205               	.LBB37:
  87:../../os/oslib/src/chfactory.c ****   char c;
 206               		.loc 1 87 3 view .LVU38
  88:../../os/oslib/src/chfactory.c **** 
 207               		.loc 1 88 3 view .LVU39
  90:../../os/oslib/src/chfactory.c ****   do {
 208               		.loc 1 90 3 view .LVU40
  90:../../os/oslib/src/chfactory.c ****   do {
 209               		.loc 1 90 3 is_stmt 0 view .LVU41
 210 0084 A801      		movw r20,r16
 211 0086 485F      		subi r20,-8
 212 0088 5F4F      		sbci r21,-1
 213               	.LVL18:
 214               	.L10:
  91:../../os/oslib/src/chfactory.c ****     c = *sp++;
 215               		.loc 1 91 3 is_stmt 1 view .LVU42
  92:../../os/oslib/src/chfactory.c ****     *dp++ = c;
 216               		.loc 1 92 5 view .LVU43
 217 008a F801      		movw r30,r16
  92:../../os/oslib/src/chfactory.c ****     *dp++ = c;
 218               		.loc 1 92 7 is_stmt 0 view .LVU44
 219 008c 2081      		ld r18,Z
 220 008e 0F5F      		subi r16,-1
 221 0090 1F4F      		sbci r17,-1
 222               	.LVL19:
  93:../../os/oslib/src/chfactory.c ****     i--;
 223               		.loc 1 93 5 is_stmt 1 view .LVU45
 224 0092 FC01      		movw r30,r24
 225               	.LVL20:
  93:../../os/oslib/src/chfactory.c ****     i--;
 226               		.loc 1 93 11 is_stmt 0 view .LVU46
 227 0094 2083      		st Z,r18
 228 0096 0196      		adiw r24,1
 229               	.LVL21:
  94:../../os/oslib/src/chfactory.c ****   } while ((c != (char)0) && (i > 0U));
 230               		.loc 1 94 5 is_stmt 1 view .LVU47
  95:../../os/oslib/src/chfactory.c **** }
 231               		.loc 1 95 27 discriminator 2 view .LVU48
 232 0098 2115      		cp r18, __zero_reg__
 233 009a 01F0      		breq .L9
  95:../../os/oslib/src/chfactory.c **** }
 234               		.loc 1 95 27 is_stmt 0 discriminator 1 view .LVU49
 235 009c 0417      		cp r16,r20
 236 009e 1507      		cpc r17,r21
 237 00a0 01F4      		brne .L10
 238               	.L9:
 239               	.LVL22:
  95:../../os/oslib/src/chfactory.c **** }
 240               		.loc 1 95 27 discriminator 1 view .LVU50
 241               	.LBE37:
 242               	.LBE36:
 158:../../os/oslib/src/chfactory.c ****   dep->next = dlp->next;
 243               		.loc 1 158 3 is_stmt 1 view .LVU51
 158:../../os/oslib/src/chfactory.c ****   dep->next = dlp->next;
 244               		.loc 1 158 13 is_stmt 0 view .LVU52
 245 00a2 81E0      		ldi r24,lo8(1)
 246 00a4 F601      		movw r30,r12
 247 00a6 8283      		std Z+2,r24
 159:../../os/oslib/src/chfactory.c **** 
 248               		.loc 1 159 3 is_stmt 1 view .LVU53
 159:../../os/oslib/src/chfactory.c **** 
 249               		.loc 1 159 13 is_stmt 0 view .LVU54
 250 00a8 F701      		movw r30,r14
 251 00aa 8081      		ld r24,Z
 252 00ac 9181      		ldd r25,Z+1
 253 00ae F601      		movw r30,r12
 254 00b0 9183      		std Z+1,r25
 255 00b2 8083      		st Z,r24
 162:../../os/oslib/src/chfactory.c **** 
 256               		.loc 1 162 3 is_stmt 1 view .LVU55
 162:../../os/oslib/src/chfactory.c **** 
 257               		.loc 1 162 13 is_stmt 0 view .LVU56
 258 00b4 F701      		movw r30,r14
 259 00b6 D182      		std Z+1,r13
 260 00b8 C082      		st Z,r12
 164:../../os/oslib/src/chfactory.c **** }
 261               		.loc 1 164 3 is_stmt 1 view .LVU57
 164:../../os/oslib/src/chfactory.c **** }
 262               		.loc 1 164 10 is_stmt 0 view .LVU58
 263 00ba 00C0      		rjmp .L3
 264               		.cfi_endproc
 265               	.LFE102:
 267               		.section	.text.dyn_create_object_pool,"ax",@progbits
 269               	dyn_create_object_pool:
 270               	.LVL23:
 271               	.LFB104:
 166:../../os/oslib/src/chfactory.c **** 
 167:../../os/oslib/src/chfactory.c **** static void dyn_release_object_heap(dyn_element_t *dep,
 168:../../os/oslib/src/chfactory.c ****                                     dyn_list_t *dlp) {
 169:../../os/oslib/src/chfactory.c **** 
 170:../../os/oslib/src/chfactory.c ****   chDbgCheck(dep != NULL);
 171:../../os/oslib/src/chfactory.c ****   chDbgAssert(dep->refs > (ucnt_t)0, "invalid references number");
 172:../../os/oslib/src/chfactory.c **** 
 173:../../os/oslib/src/chfactory.c ****   dep->refs--;
 174:../../os/oslib/src/chfactory.c ****   if (dep->refs == (ucnt_t)0) {
 175:../../os/oslib/src/chfactory.c ****     dep = dyn_list_unlink(dep, dlp);
 176:../../os/oslib/src/chfactory.c ****     chHeapFree((void *)dep);
 177:../../os/oslib/src/chfactory.c ****   }
 178:../../os/oslib/src/chfactory.c **** }
 179:../../os/oslib/src/chfactory.c **** #endif /* CH_FACTORY_REQUIRES_HEAP */
 180:../../os/oslib/src/chfactory.c **** 
 181:../../os/oslib/src/chfactory.c **** #if CH_FACTORY_REQUIRES_POOLS || defined(__DOXYGEN__)
 182:../../os/oslib/src/chfactory.c **** static dyn_element_t *dyn_create_object_pool(const char *name,
 183:../../os/oslib/src/chfactory.c ****                                              dyn_list_t *dlp,
 184:../../os/oslib/src/chfactory.c ****                                              memory_pool_t *mp) {
 272               		.loc 1 184 65 is_stmt 1 view -0
 273               		.cfi_startproc
 274               		.loc 1 184 65 is_stmt 0 view .LVU60
 275 0000 AF92      		push r10
 276               	.LCFI12:
 277               		.cfi_def_cfa_offset 3
 278               		.cfi_offset 10, -2
 279 0002 BF92      		push r11
 280               	.LCFI13:
 281               		.cfi_def_cfa_offset 4
 282               		.cfi_offset 11, -3
 283 0004 CF92      		push r12
 284               	.LCFI14:
 285               		.cfi_def_cfa_offset 5
 286               		.cfi_offset 12, -4
 287 0006 DF92      		push r13
 288               	.LCFI15:
 289               		.cfi_def_cfa_offset 6
 290               		.cfi_offset 13, -5
 291 0008 EF92      		push r14
 292               	.LCFI16:
 293               		.cfi_def_cfa_offset 7
 294               		.cfi_offset 14, -6
 295 000a FF92      		push r15
 296               	.LCFI17:
 297               		.cfi_def_cfa_offset 8
 298               		.cfi_offset 15, -7
 299 000c 0F93      		push r16
 300               	.LCFI18:
 301               		.cfi_def_cfa_offset 9
 302               		.cfi_offset 16, -8
 303 000e 1F93      		push r17
 304               	.LCFI19:
 305               		.cfi_def_cfa_offset 10
 306               		.cfi_offset 17, -9
 307 0010 CF93      		push r28
 308               	.LCFI20:
 309               		.cfi_def_cfa_offset 11
 310               		.cfi_offset 28, -10
 311 0012 DF93      		push r29
 312               	.LCFI21:
 313               		.cfi_def_cfa_offset 12
 314               		.cfi_offset 29, -11
 315               	/* prologue: function */
 316               	/* frame size = 0 */
 317               	/* stack size = 10 */
 318               	.L__stack_usage = 10
 319 0014 8C01      		movw r16,r24
 320 0016 7B01      		movw r14,r22
 321 0018 5A01      		movw r10,r20
 185:../../os/oslib/src/chfactory.c ****   dyn_element_t *dep;
 322               		.loc 1 185 3 is_stmt 1 view .LVU61
 186:../../os/oslib/src/chfactory.c **** 
 187:../../os/oslib/src/chfactory.c ****   chDbgCheck(name != NULL);
 323               		.loc 1 187 3 view .LVU62
 324               		.loc 1 187 3 view .LVU63
 325               		.loc 1 187 3 discriminator 5 view .LVU64
 188:../../os/oslib/src/chfactory.c **** 
 189:../../os/oslib/src/chfactory.c ****   /* Checking if an object object with this name has already been created.*/
 190:../../os/oslib/src/chfactory.c ****   dep = dyn_list_find(name, dlp);
 326               		.loc 1 190 3 view .LVU65
 327               	.LVL24:
 328               	.LBB42:
 329               	.LBI42:
 103:../../os/oslib/src/chfactory.c ****   dyn_element_t *p = dlp->next;
 330               		.loc 1 103 23 view .LVU66
 331               	.LBB43:
 104:../../os/oslib/src/chfactory.c **** 
 332               		.loc 1 104 3 view .LVU67
 104:../../os/oslib/src/chfactory.c **** 
 333               		.loc 1 104 18 is_stmt 0 view .LVU68
 334 001a FB01      		movw r30,r22
 335 001c C081      		ld r28,Z
 336 001e D181      		ldd r29,Z+1
 337               	.LVL25:
 106:../../os/oslib/src/chfactory.c ****     if (strncmp(p->name, name, CH_CFG_FACTORY_MAX_NAMES_LENGTH) == 0) {
 338               		.loc 1 106 3 is_stmt 1 view .LVU69
 106:../../os/oslib/src/chfactory.c ****     if (strncmp(p->name, name, CH_CFG_FACTORY_MAX_NAMES_LENGTH) == 0) {
 339               		.loc 1 106 12 view .LVU70
 340 0020 6C17      		cp r22,r28
 341 0022 7D07      		cpc r23,r29
 342 0024 01F4      		brne .L26
 343 0026 00C0      		rjmp .L24
 344               	.LVL26:
 345               	.L42:
 110:../../os/oslib/src/chfactory.c ****   }
 346               		.loc 1 110 5 view .LVU71
 110:../../os/oslib/src/chfactory.c ****   }
 347               		.loc 1 110 7 is_stmt 0 view .LVU72
 348 0028 0990      		ld __tmp_reg__,Y+
 349 002a D881      		ld r29,Y
 350 002c C02D      		mov r28,__tmp_reg__
 351               	.LVL27:
 106:../../os/oslib/src/chfactory.c ****     if (strncmp(p->name, name, CH_CFG_FACTORY_MAX_NAMES_LENGTH) == 0) {
 352               		.loc 1 106 12 is_stmt 1 view .LVU73
 353 002e EC16      		cp r14,r28
 354 0030 FD06      		cpc r15,r29
 355 0032 01F0      		breq .L24
 356               	.L26:
 107:../../os/oslib/src/chfactory.c ****       return p;
 357               		.loc 1 107 5 view .LVU74
 107:../../os/oslib/src/chfactory.c ****       return p;
 358               		.loc 1 107 9 is_stmt 0 view .LVU75
 359 0034 48E0      		ldi r20,lo8(8)
 360 0036 50E0      		ldi r21,0
 361 0038 B801      		movw r22,r16
 362 003a CE01      		movw r24,r28
 363 003c 0396      		adiw r24,3
 364 003e 0E94 0000 		call strncmp
 365               	.LVL28:
 107:../../os/oslib/src/chfactory.c ****       return p;
 366               		.loc 1 107 8 discriminator 1 view .LVU76
 367 0042 892B      		or r24,r25
 368 0044 01F4      		brne .L42
 369               	.LVL29:
 107:../../os/oslib/src/chfactory.c ****       return p;
 370               		.loc 1 107 8 discriminator 1 view .LVU77
 371               	.LBE43:
 372               	.LBE42:
 191:../../os/oslib/src/chfactory.c ****   if (dep != NULL) {
 373               		.loc 1 191 3 is_stmt 1 view .LVU78
 374               		.loc 1 191 6 is_stmt 0 view .LVU79
 375 0046 CD2B      		or r28,r29
 376 0048 01F0      		breq .L24
 377               	.LVL30:
 378               	.L28:
 192:../../os/oslib/src/chfactory.c ****     return NULL;
 379               		.loc 1 192 12 view .LVU80
 380 004a C12C      		mov r12,__zero_reg__
 381 004c D12C      		mov r13,__zero_reg__
 382               	.LVL31:
 383               	.L23:
 193:../../os/oslib/src/chfactory.c ****   }
 194:../../os/oslib/src/chfactory.c **** 
 195:../../os/oslib/src/chfactory.c ****   /* Allocating space for the new object.*/
 196:../../os/oslib/src/chfactory.c ****   dep = (dyn_element_t *)chPoolAlloc(mp);
 197:../../os/oslib/src/chfactory.c ****   if (dep == NULL) {
 198:../../os/oslib/src/chfactory.c ****     return NULL;
 199:../../os/oslib/src/chfactory.c ****   }
 200:../../os/oslib/src/chfactory.c **** 
 201:../../os/oslib/src/chfactory.c ****   /* Initializing object list element.*/
 202:../../os/oslib/src/chfactory.c ****   copy_name(name, dep->name);
 203:../../os/oslib/src/chfactory.c ****   dep->refs = (ucnt_t)1;
 204:../../os/oslib/src/chfactory.c ****   dep->next = dlp->next;
 205:../../os/oslib/src/chfactory.c **** 
 206:../../os/oslib/src/chfactory.c ****   /* Updating factory list.*/
 207:../../os/oslib/src/chfactory.c ****   dlp->next = (dyn_element_t *)dep;
 208:../../os/oslib/src/chfactory.c **** 
 209:../../os/oslib/src/chfactory.c ****   return dep;
 210:../../os/oslib/src/chfactory.c **** }
 384               		.loc 1 210 1 view .LVU81
 385 004e C601      		movw r24,r12
 386               	/* epilogue start */
 387 0050 DF91      		pop r29
 388 0052 CF91      		pop r28
 389 0054 1F91      		pop r17
 390 0056 0F91      		pop r16
 391 0058 FF90      		pop r15
 392 005a EF90      		pop r14
 393               	.LVL32:
 394               		.loc 1 210 1 view .LVU82
 395 005c DF90      		pop r13
 396 005e CF90      		pop r12
 397 0060 BF90      		pop r11
 398 0062 AF90      		pop r10
 399               	.LVL33:
 400               		.loc 1 210 1 view .LVU83
 401 0064 0895      		ret
 402               	.LVL34:
 403               	.L24:
 191:../../os/oslib/src/chfactory.c ****     return NULL;
 404               		.loc 1 191 3 is_stmt 1 view .LVU84
 196:../../os/oslib/src/chfactory.c ****   if (dep == NULL) {
 405               		.loc 1 196 3 view .LVU85
 196:../../os/oslib/src/chfactory.c ****   if (dep == NULL) {
 406               		.loc 1 196 26 is_stmt 0 view .LVU86
 407 0066 C501      		movw r24,r10
 408 0068 0E94 0000 		call chPoolAlloc
 409               	.LVL35:
 410 006c 6C01      		movw r12,r24
 411               	.LVL36:
 197:../../os/oslib/src/chfactory.c ****     return NULL;
 412               		.loc 1 197 3 is_stmt 1 view .LVU87
 197:../../os/oslib/src/chfactory.c ****     return NULL;
 413               		.loc 1 197 6 is_stmt 0 view .LVU88
 414 006e 0097      		sbiw r24,0
 415 0070 01F0      		breq .L28
 202:../../os/oslib/src/chfactory.c ****   dep->refs = (ucnt_t)1;
 416               		.loc 1 202 3 is_stmt 1 view .LVU89
 202:../../os/oslib/src/chfactory.c ****   dep->refs = (ucnt_t)1;
 417               		.loc 1 202 22 is_stmt 0 view .LVU90
 418 0072 0396      		adiw r24,3
 419               	.LVL37:
 420               	.LBB44:
 421               	.LBI44:
  86:../../os/oslib/src/chfactory.c ****   unsigned i;
 422               		.loc 1 86 13 is_stmt 1 view .LVU91
 423               	.LBB45:
  87:../../os/oslib/src/chfactory.c ****   char c;
 424               		.loc 1 87 3 view .LVU92
  88:../../os/oslib/src/chfactory.c **** 
 425               		.loc 1 88 3 view .LVU93
  90:../../os/oslib/src/chfactory.c ****   do {
 426               		.loc 1 90 3 view .LVU94
  90:../../os/oslib/src/chfactory.c ****   do {
 427               		.loc 1 90 3 is_stmt 0 view .LVU95
 428 0074 A801      		movw r20,r16
 429 0076 485F      		subi r20,-8
 430 0078 5F4F      		sbci r21,-1
 431               	.LVL38:
 432               	.L30:
  91:../../os/oslib/src/chfactory.c ****     c = *sp++;
 433               		.loc 1 91 3 is_stmt 1 view .LVU96
  92:../../os/oslib/src/chfactory.c ****     *dp++ = c;
 434               		.loc 1 92 5 view .LVU97
 435 007a F801      		movw r30,r16
  92:../../os/oslib/src/chfactory.c ****     *dp++ = c;
 436               		.loc 1 92 7 is_stmt 0 view .LVU98
 437 007c 2081      		ld r18,Z
 438 007e 0F5F      		subi r16,-1
 439 0080 1F4F      		sbci r17,-1
 440               	.LVL39:
  93:../../os/oslib/src/chfactory.c ****     i--;
 441               		.loc 1 93 5 is_stmt 1 view .LVU99
 442 0082 FC01      		movw r30,r24
 443               	.LVL40:
  93:../../os/oslib/src/chfactory.c ****     i--;
 444               		.loc 1 93 11 is_stmt 0 view .LVU100
 445 0084 2083      		st Z,r18
 446 0086 0196      		adiw r24,1
 447               	.LVL41:
  94:../../os/oslib/src/chfactory.c ****   } while ((c != (char)0) && (i > 0U));
 448               		.loc 1 94 5 is_stmt 1 view .LVU101
  95:../../os/oslib/src/chfactory.c **** }
 449               		.loc 1 95 27 discriminator 2 view .LVU102
 450 0088 2115      		cp r18, __zero_reg__
 451 008a 01F0      		breq .L29
  95:../../os/oslib/src/chfactory.c **** }
 452               		.loc 1 95 27 is_stmt 0 discriminator 1 view .LVU103
 453 008c 0417      		cp r16,r20
 454 008e 1507      		cpc r17,r21
 455 0090 01F4      		brne .L30
 456               	.L29:
 457               	.LVL42:
  95:../../os/oslib/src/chfactory.c **** }
 458               		.loc 1 95 27 discriminator 1 view .LVU104
 459               	.LBE45:
 460               	.LBE44:
 203:../../os/oslib/src/chfactory.c ****   dep->next = dlp->next;
 461               		.loc 1 203 3 is_stmt 1 view .LVU105
 203:../../os/oslib/src/chfactory.c ****   dep->next = dlp->next;
 462               		.loc 1 203 13 is_stmt 0 view .LVU106
 463 0092 81E0      		ldi r24,lo8(1)
 464 0094 F601      		movw r30,r12
 465 0096 8283      		std Z+2,r24
 204:../../os/oslib/src/chfactory.c **** 
 466               		.loc 1 204 3 is_stmt 1 view .LVU107
 204:../../os/oslib/src/chfactory.c **** 
 467               		.loc 1 204 13 is_stmt 0 view .LVU108
 468 0098 F701      		movw r30,r14
 469 009a 8081      		ld r24,Z
 470 009c 9181      		ldd r25,Z+1
 471 009e F601      		movw r30,r12
 472 00a0 9183      		std Z+1,r25
 473 00a2 8083      		st Z,r24
 207:../../os/oslib/src/chfactory.c **** 
 474               		.loc 1 207 3 is_stmt 1 view .LVU109
 207:../../os/oslib/src/chfactory.c **** 
 475               		.loc 1 207 13 is_stmt 0 view .LVU110
 476 00a4 F701      		movw r30,r14
 477 00a6 D182      		std Z+1,r13
 478 00a8 C082      		st Z,r12
 209:../../os/oslib/src/chfactory.c **** }
 479               		.loc 1 209 3 is_stmt 1 view .LVU111
 209:../../os/oslib/src/chfactory.c **** }
 480               		.loc 1 209 10 is_stmt 0 view .LVU112
 481 00aa 00C0      		rjmp .L23
 482               		.cfi_endproc
 483               	.LFE104:
 485               		.section	.text.__factory_init,"ax",@progbits
 486               	.global	__factory_init
 488               	__factory_init:
 489               	.LFB107:
 211:../../os/oslib/src/chfactory.c **** 
 212:../../os/oslib/src/chfactory.c **** static void dyn_release_object_pool(dyn_element_t *dep,
 213:../../os/oslib/src/chfactory.c ****                                     dyn_list_t *dlp,
 214:../../os/oslib/src/chfactory.c ****                                     memory_pool_t *mp) {
 215:../../os/oslib/src/chfactory.c **** 
 216:../../os/oslib/src/chfactory.c ****   chDbgCheck(dep != NULL);
 217:../../os/oslib/src/chfactory.c ****   chDbgAssert(dep->refs > (ucnt_t)0, "invalid references number");
 218:../../os/oslib/src/chfactory.c **** 
 219:../../os/oslib/src/chfactory.c ****   dep->refs--;
 220:../../os/oslib/src/chfactory.c ****   if (dep->refs == (ucnt_t)0) {
 221:../../os/oslib/src/chfactory.c ****     dep = dyn_list_unlink(dep, dlp);
 222:../../os/oslib/src/chfactory.c ****     chPoolFree(mp, (void *)dep);
 223:../../os/oslib/src/chfactory.c ****   }
 224:../../os/oslib/src/chfactory.c **** }
 225:../../os/oslib/src/chfactory.c **** #endif /* CH_FACTORY_REQUIRES_POOLS */
 226:../../os/oslib/src/chfactory.c **** 
 227:../../os/oslib/src/chfactory.c **** static dyn_element_t *dyn_find_object(const char *name, dyn_list_t *dlp) {
 228:../../os/oslib/src/chfactory.c ****   dyn_element_t *dep;
 229:../../os/oslib/src/chfactory.c **** 
 230:../../os/oslib/src/chfactory.c ****   chDbgCheck(name != NULL);
 231:../../os/oslib/src/chfactory.c **** 
 232:../../os/oslib/src/chfactory.c ****   /* Checking if an object with this name has already been created.*/
 233:../../os/oslib/src/chfactory.c ****   dep = dyn_list_find(name, dlp);
 234:../../os/oslib/src/chfactory.c ****   if (dep != NULL) {
 235:../../os/oslib/src/chfactory.c ****     /* Increasing references counter.*/
 236:../../os/oslib/src/chfactory.c ****     dep->refs++;
 237:../../os/oslib/src/chfactory.c ****   }
 238:../../os/oslib/src/chfactory.c **** 
 239:../../os/oslib/src/chfactory.c ****   return dep;
 240:../../os/oslib/src/chfactory.c **** }
 241:../../os/oslib/src/chfactory.c **** 
 242:../../os/oslib/src/chfactory.c **** /*===========================================================================*/
 243:../../os/oslib/src/chfactory.c **** /* Module exported functions.                                                */
 244:../../os/oslib/src/chfactory.c **** /*===========================================================================*/
 245:../../os/oslib/src/chfactory.c **** 
 246:../../os/oslib/src/chfactory.c **** /**
 247:../../os/oslib/src/chfactory.c ****  * @brief   Initializes the objects factory.
 248:../../os/oslib/src/chfactory.c ****  *
 249:../../os/oslib/src/chfactory.c ****  * @init
 250:../../os/oslib/src/chfactory.c ****  */
 251:../../os/oslib/src/chfactory.c **** void __factory_init(void) {
 490               		.loc 1 251 27 is_stmt 1 view -0
 491               		.cfi_startproc
 492 0000 CF93      		push r28
 493               	.LCFI22:
 494               		.cfi_def_cfa_offset 3
 495               		.cfi_offset 28, -2
 496 0002 DF93      		push r29
 497               	.LCFI23:
 498               		.cfi_def_cfa_offset 4
 499               		.cfi_offset 29, -3
 500               	/* prologue: function */
 501               	/* frame size = 0 */
 502               	/* stack size = 2 */
 503               	.L__stack_usage = 2
 252:../../os/oslib/src/chfactory.c **** 
 253:../../os/oslib/src/chfactory.c **** #if (CH_CFG_USE_MUTEXES == TRUE) || defined(__DOXYGEN__)
 254:../../os/oslib/src/chfactory.c ****   chMtxObjectInit(&ch_factory.mtx);
 255:../../os/oslib/src/chfactory.c **** #else
 256:../../os/oslib/src/chfactory.c ****   chSemObjectInit(&ch_factory.sem, (cnt_t)1);
 504               		.loc 1 256 3 view .LVU114
 505 0004 C0E0      		ldi r28,lo8(ch_factory)
 506 0006 D0E0      		ldi r29,hi8(ch_factory)
 507 0008 81E0      		ldi r24,lo8(1)
 508 000a 8883      		st Y,r24
 257:../../os/oslib/src/chfactory.c **** #endif
 258:../../os/oslib/src/chfactory.c **** 
 259:../../os/oslib/src/chfactory.c **** #if CH_CFG_FACTORY_OBJECTS_REGISTRY == TRUE
 260:../../os/oslib/src/chfactory.c ****   dyn_list_init(&ch_factory.obj_list);
 509               		.loc 1 260 3 view .LVU115
 510               	.LVL43:
 511               	.LBB46:
 512               	.LBI46:
  98:../../os/oslib/src/chfactory.c **** 
 513               		.loc 1 98 20 view .LVU116
 514               	.LBB47:
 100:../../os/oslib/src/chfactory.c **** }
 515               		.loc 1 100 3 view .LVU117
 100:../../os/oslib/src/chfactory.c **** }
 516               		.loc 1 100 13 is_stmt 0 view .LVU118
 517 000c 80E0      		ldi r24,lo8(ch_factory+1)
 518 000e 90E0      		ldi r25,hi8(ch_factory+1)
 519               	.LVL44:
 100:../../os/oslib/src/chfactory.c **** }
 520               		.loc 1 100 13 view .LVU119
 521 0010 9A83      		std Y+2,r25
 522 0012 8983      		std Y+1,r24
 523               	.LVL45:
 100:../../os/oslib/src/chfactory.c **** }
 524               		.loc 1 100 13 view .LVU120
 525               	.LBE47:
 526               	.LBE46:
 261:../../os/oslib/src/chfactory.c ****   chPoolObjectInit(&ch_factory.obj_pool,
 527               		.loc 1 261 3 is_stmt 1 view .LVU121
 528               	.LBB48:
 529               	.LBI48:
 530               		.file 3 "../../os/oslib/include/chmempools.h"
   1:../../os/oslib/include/chmempools.h **** /*
   2:../../os/oslib/include/chmempools.h ****     ChibiOS - Copyright (C) 2006,2007,2008,2009,2010,2011,2012,2013,2014,
   3:../../os/oslib/include/chmempools.h ****               2015,2016,2017,2018,2019,2020,2021 Giovanni Di Sirio.
   4:../../os/oslib/include/chmempools.h **** 
   5:../../os/oslib/include/chmempools.h ****     This file is part of ChibiOS.
   6:../../os/oslib/include/chmempools.h **** 
   7:../../os/oslib/include/chmempools.h ****     ChibiOS is free software; you can redistribute it and/or modify
   8:../../os/oslib/include/chmempools.h ****     it under the terms of the GNU General Public License as published by
   9:../../os/oslib/include/chmempools.h ****     the Free Software Foundation version 3 of the License.
  10:../../os/oslib/include/chmempools.h **** 
  11:../../os/oslib/include/chmempools.h ****     ChibiOS is distributed in the hope that it will be useful,
  12:../../os/oslib/include/chmempools.h ****     but WITHOUT ANY WARRANTY; without even the implied warranty of
  13:../../os/oslib/include/chmempools.h ****     MERCHANTABILITY or FITNESS FOR A PARTICULAR PURPOSE.  See the
  14:../../os/oslib/include/chmempools.h ****     GNU General Public License for more details.
  15:../../os/oslib/include/chmempools.h **** 
  16:../../os/oslib/include/chmempools.h ****     You should have received a copy of the GNU General Public License
  17:../../os/oslib/include/chmempools.h ****     along with this program.  If not, see <http://www.gnu.org/licenses/>.
  18:../../os/oslib/include/chmempools.h **** */
  19:../../os/oslib/include/chmempools.h **** 
  20:../../os/oslib/include/chmempools.h **** /**
  21:../../os/oslib/include/chmempools.h ****  * @file    oslib/include/chmempools.h
  22:../../os/oslib/include/chmempools.h ****  * @brief   Memory Pools macros and structures.
  23:../../os/oslib/include/chmempools.h ****  *
  24:../../os/oslib/include/chmempools.h ****  * @addtogroup oslib_mempools
  25:../../os/oslib/include/chmempools.h ****  * @{
  26:../../os/oslib/include/chmempools.h ****  */
  27:../../os/oslib/include/chmempools.h **** 
  28:../../os/oslib/include/chmempools.h **** #ifndef CHMEMPOOLS_H
  29:../../os/oslib/include/chmempools.h **** #define CHMEMPOOLS_H
  30:../../os/oslib/include/chmempools.h **** 
  31:../../os/oslib/include/chmempools.h **** #if (CH_CFG_USE_MEMPOOLS == TRUE) || defined(__DOXYGEN__)
  32:../../os/oslib/include/chmempools.h **** 
  33:../../os/oslib/include/chmempools.h **** /*===========================================================================*/
  34:../../os/oslib/include/chmempools.h **** /* Module constants.                                                         */
  35:../../os/oslib/include/chmempools.h **** /*===========================================================================*/
  36:../../os/oslib/include/chmempools.h **** 
  37:../../os/oslib/include/chmempools.h **** /*===========================================================================*/
  38:../../os/oslib/include/chmempools.h **** /* Module pre-compile time settings.                                         */
  39:../../os/oslib/include/chmempools.h **** /*===========================================================================*/
  40:../../os/oslib/include/chmempools.h **** 
  41:../../os/oslib/include/chmempools.h **** /*===========================================================================*/
  42:../../os/oslib/include/chmempools.h **** /* Derived constants and error checks.                                       */
  43:../../os/oslib/include/chmempools.h **** /*===========================================================================*/
  44:../../os/oslib/include/chmempools.h **** 
  45:../../os/oslib/include/chmempools.h **** #if CH_CFG_USE_MEMCORE == FALSE
  46:../../os/oslib/include/chmempools.h **** #error "CH_CFG_USE_MEMPOOLS requires CH_CFG_USE_MEMCORE"
  47:../../os/oslib/include/chmempools.h **** #endif
  48:../../os/oslib/include/chmempools.h **** 
  49:../../os/oslib/include/chmempools.h **** /*===========================================================================*/
  50:../../os/oslib/include/chmempools.h **** /* Module data structures and types.                                         */
  51:../../os/oslib/include/chmempools.h **** /*===========================================================================*/
  52:../../os/oslib/include/chmempools.h **** 
  53:../../os/oslib/include/chmempools.h **** /**
  54:../../os/oslib/include/chmempools.h ****  * @brief   Memory pool free object header.
  55:../../os/oslib/include/chmempools.h ****  */
  56:../../os/oslib/include/chmempools.h **** struct pool_header {
  57:../../os/oslib/include/chmempools.h ****   struct pool_header    *next;          /**< @brief Pointer to the next pool
  58:../../os/oslib/include/chmempools.h ****                                                     header in the list.     */
  59:../../os/oslib/include/chmempools.h **** };
  60:../../os/oslib/include/chmempools.h **** 
  61:../../os/oslib/include/chmempools.h **** /**
  62:../../os/oslib/include/chmempools.h ****  * @brief   Memory pool descriptor.
  63:../../os/oslib/include/chmempools.h ****  */
  64:../../os/oslib/include/chmempools.h **** typedef struct {
  65:../../os/oslib/include/chmempools.h ****   struct pool_header    *next;          /**< @brief Pointer to the header.  */
  66:../../os/oslib/include/chmempools.h ****   size_t                object_size;    /**< @brief Memory pool objects
  67:../../os/oslib/include/chmempools.h ****                                                     size.                   */
  68:../../os/oslib/include/chmempools.h ****   unsigned              align;          /**< @brief Required alignment.     */
  69:../../os/oslib/include/chmempools.h ****   memgetfunc_t          provider;       /**< @brief Memory blocks provider
  70:../../os/oslib/include/chmempools.h ****                                                     for this pool.          */
  71:../../os/oslib/include/chmempools.h **** } memory_pool_t;
  72:../../os/oslib/include/chmempools.h **** 
  73:../../os/oslib/include/chmempools.h **** #if (CH_CFG_USE_SEMAPHORES == TRUE) || defined(__DOXYGEN__)
  74:../../os/oslib/include/chmempools.h **** /**
  75:../../os/oslib/include/chmempools.h ****  * @brief   Guarded memory pool descriptor.
  76:../../os/oslib/include/chmempools.h ****  */
  77:../../os/oslib/include/chmempools.h **** typedef struct {
  78:../../os/oslib/include/chmempools.h ****   semaphore_t           sem;            /**< @brief Counter semaphore guarding
  79:../../os/oslib/include/chmempools.h ****                                                     the memory pool.        */
  80:../../os/oslib/include/chmempools.h ****   memory_pool_t         pool;           /**< @brief The memory pool itself. */
  81:../../os/oslib/include/chmempools.h **** } guarded_memory_pool_t;
  82:../../os/oslib/include/chmempools.h **** #endif /* CH_CFG_USE_SEMAPHORES == TRUE */
  83:../../os/oslib/include/chmempools.h **** 
  84:../../os/oslib/include/chmempools.h **** /*===========================================================================*/
  85:../../os/oslib/include/chmempools.h **** /* Module macros.                                                            */
  86:../../os/oslib/include/chmempools.h **** /*===========================================================================*/
  87:../../os/oslib/include/chmempools.h **** 
  88:../../os/oslib/include/chmempools.h **** /**
  89:../../os/oslib/include/chmempools.h ****  * @brief   Data part of a static memory pool initializer.
  90:../../os/oslib/include/chmempools.h ****  * @details This macro should be used when statically initializing a
  91:../../os/oslib/include/chmempools.h ****  *          memory pool that is part of a bigger structure.
  92:../../os/oslib/include/chmempools.h ****  *
  93:../../os/oslib/include/chmempools.h ****  * @param[in] name      the name of the memory pool variable
  94:../../os/oslib/include/chmempools.h ****  * @param[in] size      size of the memory pool contained objects
  95:../../os/oslib/include/chmempools.h ****  * @param[in] align     required memory alignment
  96:../../os/oslib/include/chmempools.h ****  * @param[in] provider  memory provider function for the memory pool
  97:../../os/oslib/include/chmempools.h ****  */
  98:../../os/oslib/include/chmempools.h **** #define __MEMORYPOOL_DATA(name, size, align, provider)                      \
  99:../../os/oslib/include/chmempools.h ****   {NULL, size, align, provider}
 100:../../os/oslib/include/chmempools.h **** 
 101:../../os/oslib/include/chmempools.h **** /**
 102:../../os/oslib/include/chmempools.h ****  * @brief   Static memory pool initializer.
 103:../../os/oslib/include/chmempools.h ****  * @details Statically initialized memory pools require no explicit
 104:../../os/oslib/include/chmempools.h ****  *          initialization using @p chPoolInit().
 105:../../os/oslib/include/chmempools.h ****  *
 106:../../os/oslib/include/chmempools.h ****  * @param[in] name      the name of the memory pool variable
 107:../../os/oslib/include/chmempools.h ****  * @param[in] size      size of the memory pool contained objects
 108:../../os/oslib/include/chmempools.h ****  * @param[in] align     required memory alignment
 109:../../os/oslib/include/chmempools.h ****  * @param[in] provider  memory provider function for the memory pool or @p NULL
 110:../../os/oslib/include/chmempools.h ****  *                      if the pool is not allowed to grow automatically
 111:../../os/oslib/include/chmempools.h ****  */
 112:../../os/oslib/include/chmempools.h **** #define MEMORYPOOL_DECL(name, size, align, provider)                        \
 113:../../os/oslib/include/chmempools.h ****   memory_pool_t name = __MEMORYPOOL_DATA(name, size, align, provider)
 114:../../os/oslib/include/chmempools.h **** 
 115:../../os/oslib/include/chmempools.h **** #if (CH_CFG_USE_SEMAPHORES == TRUE) || defined(__DOXYGEN__)
 116:../../os/oslib/include/chmempools.h **** /**
 117:../../os/oslib/include/chmempools.h ****  * @brief   Data part of a static guarded memory pool initializer.
 118:../../os/oslib/include/chmempools.h ****  * @details This macro should be used when statically initializing a
 119:../../os/oslib/include/chmempools.h ****  *          memory pool that is part of a bigger structure.
 120:../../os/oslib/include/chmempools.h ****  *
 121:../../os/oslib/include/chmempools.h ****  * @param[in] name      the name of the memory pool variable
 122:../../os/oslib/include/chmempools.h ****  * @param[in] size      size of the memory pool contained objects
 123:../../os/oslib/include/chmempools.h ****  * @param[in] align     required memory alignment
 124:../../os/oslib/include/chmempools.h ****  */
 125:../../os/oslib/include/chmempools.h **** #define __GUARDEDMEMORYPOOL_DATA(name, size, align) {                       \
 126:../../os/oslib/include/chmempools.h ****   __SEMAPHORE_DATA(name.sem, (cnt_t)0),                                     \
 127:../../os/oslib/include/chmempools.h ****   __MEMORYPOOL_DATA(NULL, size, align, NULL)                                \
 128:../../os/oslib/include/chmempools.h **** }
 129:../../os/oslib/include/chmempools.h **** 
 130:../../os/oslib/include/chmempools.h **** /**
 131:../../os/oslib/include/chmempools.h ****  * @brief   Static guarded memory pool initializer.
 132:../../os/oslib/include/chmempools.h ****  * @details Statically initialized guarded memory pools require no explicit
 133:../../os/oslib/include/chmempools.h ****  *          initialization using @p chGuardedPoolInit().
 134:../../os/oslib/include/chmempools.h ****  *
 135:../../os/oslib/include/chmempools.h ****  * @param[in] name      the name of the guarded memory pool variable
 136:../../os/oslib/include/chmempools.h ****  * @param[in] size      size of the memory pool contained objects
 137:../../os/oslib/include/chmempools.h ****  * @param[in] align     required memory alignment
 138:../../os/oslib/include/chmempools.h ****  */
 139:../../os/oslib/include/chmempools.h **** #define GUARDEDMEMORYPOOL_DECL(name, size, align)                           \
 140:../../os/oslib/include/chmempools.h ****   guarded_memory_pool_t name = __GUARDEDMEMORYPOOL_DATA(name, size, align)
 141:../../os/oslib/include/chmempools.h **** #endif /* CH_CFG_USE_SEMAPHORES == TRUE */
 142:../../os/oslib/include/chmempools.h **** 
 143:../../os/oslib/include/chmempools.h **** /*===========================================================================*/
 144:../../os/oslib/include/chmempools.h **** /* External declarations.                                                    */
 145:../../os/oslib/include/chmempools.h **** /*===========================================================================*/
 146:../../os/oslib/include/chmempools.h **** 
 147:../../os/oslib/include/chmempools.h **** #ifdef __cplusplus
 148:../../os/oslib/include/chmempools.h **** extern "C" {
 149:../../os/oslib/include/chmempools.h **** #endif
 150:../../os/oslib/include/chmempools.h ****   void chPoolObjectInitAligned(memory_pool_t *mp, size_t size,
 151:../../os/oslib/include/chmempools.h ****                                unsigned align, memgetfunc_t provider);
 152:../../os/oslib/include/chmempools.h ****   void chPoolLoadArray(memory_pool_t *mp, void *p, size_t n);
 153:../../os/oslib/include/chmempools.h ****   void *chPoolAllocI(memory_pool_t *mp);
 154:../../os/oslib/include/chmempools.h ****   void *chPoolAlloc(memory_pool_t *mp);
 155:../../os/oslib/include/chmempools.h ****   void chPoolFreeI(memory_pool_t *mp, void *objp);
 156:../../os/oslib/include/chmempools.h ****   void chPoolFree(memory_pool_t *mp, void *objp);
 157:../../os/oslib/include/chmempools.h **** #if CH_CFG_USE_SEMAPHORES == TRUE
 158:../../os/oslib/include/chmempools.h ****   void chGuardedPoolObjectInitAligned(guarded_memory_pool_t *gmp,
 159:../../os/oslib/include/chmempools.h ****                                       size_t size,
 160:../../os/oslib/include/chmempools.h ****                                       unsigned align);
 161:../../os/oslib/include/chmempools.h ****   void chGuardedPoolLoadArray(guarded_memory_pool_t *gmp, void *p, size_t n);
 162:../../os/oslib/include/chmempools.h ****   void *chGuardedPoolAllocTimeoutS(guarded_memory_pool_t *gmp,
 163:../../os/oslib/include/chmempools.h ****                                    sysinterval_t timeout);
 164:../../os/oslib/include/chmempools.h ****   void *chGuardedPoolAllocTimeout(guarded_memory_pool_t *gmp,
 165:../../os/oslib/include/chmempools.h ****                                   sysinterval_t timeout);
 166:../../os/oslib/include/chmempools.h ****   void chGuardedPoolFree(guarded_memory_pool_t *gmp, void *objp);
 167:../../os/oslib/include/chmempools.h **** #endif
 168:../../os/oslib/include/chmempools.h **** #ifdef __cplusplus
 169:../../os/oslib/include/chmempools.h **** }
 170:../../os/oslib/include/chmempools.h **** #endif
 171:../../os/oslib/include/chmempools.h **** 
 172:../../os/oslib/include/chmempools.h **** /*===========================================================================*/
 173:../../os/oslib/include/chmempools.h **** /* Module inline functions.                                                  */
 174:../../os/oslib/include/chmempools.h **** /*===========================================================================*/
 175:../../os/oslib/include/chmempools.h **** 
 176:../../os/oslib/include/chmempools.h **** /**
 177:../../os/oslib/include/chmempools.h ****  * @brief   Initializes an empty memory pool.
 178:../../os/oslib/include/chmempools.h ****  *
 179:../../os/oslib/include/chmempools.h ****  * @param[out] mp       pointer to a @p memory_pool_t structure
 180:../../os/oslib/include/chmempools.h ****  * @param[in] size      the size of the objects contained in this memory pool,
 181:../../os/oslib/include/chmempools.h ****  *                      the minimum accepted size is the size of a pointer to
 182:../../os/oslib/include/chmempools.h ****  *                      void.
 183:../../os/oslib/include/chmempools.h ****  * @param[in] provider  memory provider function for the memory pool or
 184:../../os/oslib/include/chmempools.h ****  *                      @p NULL if the pool is not allowed to grow
 185:../../os/oslib/include/chmempools.h ****  *                      automatically
 186:../../os/oslib/include/chmempools.h ****  *
 187:../../os/oslib/include/chmempools.h ****  * @init
 188:../../os/oslib/include/chmempools.h ****  */
 189:../../os/oslib/include/chmempools.h **** static inline void chPoolObjectInit(memory_pool_t *mp,
 531               		.loc 3 189 20 view .LVU122
 532               	.LBB49:
 190:../../os/oslib/include/chmempools.h ****                                     size_t size,
 191:../../os/oslib/include/chmempools.h ****                                     memgetfunc_t provider) {
 192:../../os/oslib/include/chmempools.h **** 
 193:../../os/oslib/include/chmempools.h ****   chPoolObjectInitAligned(mp, size, PORT_NATURAL_ALIGN, provider);
 533               		.loc 3 193 3 view .LVU123
 534 0014 20E0      		ldi r18,lo8(gs(chCoreAllocAlignedI))
 535 0016 30E0      		ldi r19,hi8(gs(chCoreAllocAlignedI))
 536 0018 41E0      		ldi r20,lo8(1)
 537 001a 50E0      		ldi r21,0
 538 001c 6DE0      		ldi r22,lo8(13)
 539 001e 70E0      		ldi r23,0
 540 0020 80E0      		ldi r24,lo8(ch_factory+3)
 541 0022 90E0      		ldi r25,hi8(ch_factory+3)
 542               	.LVL46:
 543               		.loc 3 193 3 is_stmt 0 view .LVU124
 544 0024 0E94 0000 		call chPoolObjectInitAligned
 545               	.LVL47:
 546               		.loc 3 193 3 view .LVU125
 547               	.LBE49:
 548               	.LBE48:
 262:../../os/oslib/src/chfactory.c ****                    sizeof (registered_object_t),
 263:../../os/oslib/src/chfactory.c ****                    chCoreAllocAlignedI);
 264:../../os/oslib/src/chfactory.c **** #endif
 265:../../os/oslib/src/chfactory.c **** #if CH_CFG_FACTORY_GENERIC_BUFFERS == TRUE
 266:../../os/oslib/src/chfactory.c ****   dyn_list_init(&ch_factory.buf_list);
 549               		.loc 1 266 3 is_stmt 1 view .LVU126
 550               	.LBB50:
 551               	.LBI50:
  98:../../os/oslib/src/chfactory.c **** 
 552               		.loc 1 98 20 view .LVU127
 553               	.LBB51:
 100:../../os/oslib/src/chfactory.c **** }
 554               		.loc 1 100 3 view .LVU128
 100:../../os/oslib/src/chfactory.c **** }
 555               		.loc 1 100 13 is_stmt 0 view .LVU129
 556 0028 80E0      		ldi r24,lo8(ch_factory+11)
 557 002a 90E0      		ldi r25,hi8(ch_factory+11)
 558               	.LVL48:
 100:../../os/oslib/src/chfactory.c **** }
 559               		.loc 1 100 13 view .LVU130
 560 002c 9C87      		std Y+12,r25
 561 002e 8B87      		std Y+11,r24
 562               	.LVL49:
 100:../../os/oslib/src/chfactory.c **** }
 563               		.loc 1 100 13 view .LVU131
 564               	.LBE51:
 565               	.LBE50:
 267:../../os/oslib/src/chfactory.c **** #endif
 268:../../os/oslib/src/chfactory.c **** #if CH_CFG_FACTORY_SEMAPHORES == TRUE
 269:../../os/oslib/src/chfactory.c ****   dyn_list_init(&ch_factory.sem_list);
 566               		.loc 1 269 3 is_stmt 1 view .LVU132
 567               	.LBB52:
 568               	.LBI52:
  98:../../os/oslib/src/chfactory.c **** 
 569               		.loc 1 98 20 view .LVU133
 570               	.LBB53:
 100:../../os/oslib/src/chfactory.c **** }
 571               		.loc 1 100 3 view .LVU134
 100:../../os/oslib/src/chfactory.c **** }
 572               		.loc 1 100 13 is_stmt 0 view .LVU135
 573 0030 80E0      		ldi r24,lo8(ch_factory+13)
 574 0032 90E0      		ldi r25,hi8(ch_factory+13)
 575               	.LVL50:
 100:../../os/oslib/src/chfactory.c **** }
 576               		.loc 1 100 13 view .LVU136
 577 0034 9E87      		std Y+14,r25
 578 0036 8D87      		std Y+13,r24
 579               	.LVL51:
 100:../../os/oslib/src/chfactory.c **** }
 580               		.loc 1 100 13 view .LVU137
 581               	.LBE53:
 582               	.LBE52:
 270:../../os/oslib/src/chfactory.c ****   chPoolObjectInit(&ch_factory.sem_pool,
 583               		.loc 1 270 3 is_stmt 1 view .LVU138
 584               	.LBB54:
 585               	.LBI54:
 189:../../os/oslib/include/chmempools.h ****                                     size_t size,
 586               		.loc 3 189 20 view .LVU139
 587               	.LBB55:
 588               		.loc 3 193 3 view .LVU140
 589 0038 20E0      		ldi r18,lo8(gs(chCoreAllocAlignedI))
 590 003a 30E0      		ldi r19,hi8(gs(chCoreAllocAlignedI))
 591 003c 41E0      		ldi r20,lo8(1)
 592 003e 50E0      		ldi r21,0
 593 0040 6CE0      		ldi r22,lo8(12)
 594 0042 70E0      		ldi r23,0
 595 0044 80E0      		ldi r24,lo8(ch_factory+15)
 596 0046 90E0      		ldi r25,hi8(ch_factory+15)
 597               	.LVL52:
 598               		.loc 3 193 3 is_stmt 0 view .LVU141
 599 0048 0E94 0000 		call chPoolObjectInitAligned
 600               	.LVL53:
 601               		.loc 3 193 3 view .LVU142
 602               	.LBE55:
 603               	.LBE54:
 271:../../os/oslib/src/chfactory.c ****                    sizeof (dyn_semaphore_t),
 272:../../os/oslib/src/chfactory.c ****                    chCoreAllocAlignedI);
 273:../../os/oslib/src/chfactory.c **** #endif
 274:../../os/oslib/src/chfactory.c **** #if CH_CFG_FACTORY_MAILBOXES == TRUE
 275:../../os/oslib/src/chfactory.c ****   dyn_list_init(&ch_factory.mbx_list);
 604               		.loc 1 275 3 is_stmt 1 view .LVU143
 605               	.LBB56:
 606               	.LBI56:
  98:../../os/oslib/src/chfactory.c **** 
 607               		.loc 1 98 20 view .LVU144
 608               	.LBB57:
 100:../../os/oslib/src/chfactory.c **** }
 609               		.loc 1 100 3 view .LVU145
 100:../../os/oslib/src/chfactory.c **** }
 610               		.loc 1 100 13 is_stmt 0 view .LVU146
 611 004c 80E0      		ldi r24,lo8(ch_factory+23)
 612 004e 90E0      		ldi r25,hi8(ch_factory+23)
 613               	.LVL54:
 100:../../os/oslib/src/chfactory.c **** }
 614               		.loc 1 100 13 view .LVU147
 615 0050 988F      		std Y+24,r25
 616 0052 8F8B      		std Y+23,r24
 617               	.LVL55:
 100:../../os/oslib/src/chfactory.c **** }
 618               		.loc 1 100 13 view .LVU148
 619               	.LBE57:
 620               	.LBE56:
 276:../../os/oslib/src/chfactory.c **** #endif
 277:../../os/oslib/src/chfactory.c **** #if CH_CFG_FACTORY_OBJ_FIFOS == TRUE
 278:../../os/oslib/src/chfactory.c ****   dyn_list_init(&ch_factory.fifo_list);
 621               		.loc 1 278 3 is_stmt 1 view .LVU149
 622               	.LBB58:
 623               	.LBI58:
  98:../../os/oslib/src/chfactory.c **** 
 624               		.loc 1 98 20 view .LVU150
 625               	.LBB59:
 100:../../os/oslib/src/chfactory.c **** }
 626               		.loc 1 100 3 view .LVU151
 100:../../os/oslib/src/chfactory.c **** }
 627               		.loc 1 100 13 is_stmt 0 view .LVU152
 628 0054 80E0      		ldi r24,lo8(ch_factory+25)
 629 0056 90E0      		ldi r25,hi8(ch_factory+25)
 630               	.LVL56:
 100:../../os/oslib/src/chfactory.c **** }
 631               		.loc 1 100 13 view .LVU153
 632 0058 9A8F      		std Y+26,r25
 633 005a 898F      		std Y+25,r24
 634               	.LVL57:
 100:../../os/oslib/src/chfactory.c **** }
 635               		.loc 1 100 13 view .LVU154
 636               	.LBE59:
 637               	.LBE58:
 279:../../os/oslib/src/chfactory.c **** #endif
 280:../../os/oslib/src/chfactory.c **** #if CH_CFG_FACTORY_PIPES == TRUE
 281:../../os/oslib/src/chfactory.c ****   dyn_list_init(&ch_factory.pipe_list);
 638               		.loc 1 281 3 is_stmt 1 view .LVU155
 639               	.LBB60:
 640               	.LBI60:
  98:../../os/oslib/src/chfactory.c **** 
 641               		.loc 1 98 20 view .LVU156
 642               	.LBB61:
 100:../../os/oslib/src/chfactory.c **** }
 643               		.loc 1 100 3 view .LVU157
 100:../../os/oslib/src/chfactory.c **** }
 644               		.loc 1 100 13 is_stmt 0 view .LVU158
 645 005c 80E0      		ldi r24,lo8(ch_factory+27)
 646 005e 90E0      		ldi r25,hi8(ch_factory+27)
 647               	.LVL58:
 100:../../os/oslib/src/chfactory.c **** }
 648               		.loc 1 100 13 view .LVU159
 649 0060 9C8F      		std Y+28,r25
 650 0062 8B8F      		std Y+27,r24
 651               	.LVL59:
 652               	/* epilogue start */
 100:../../os/oslib/src/chfactory.c **** }
 653               		.loc 1 100 13 view .LVU160
 654               	.LBE61:
 655               	.LBE60:
 282:../../os/oslib/src/chfactory.c **** #endif
 283:../../os/oslib/src/chfactory.c **** }
 656               		.loc 1 283 1 view .LVU161
 657 0064 DF91      		pop r29
 658 0066 CF91      		pop r28
 659 0068 0895      		ret
 660               		.cfi_endproc
 661               	.LFE107:
 663               		.section	.text.chFactoryRegisterObject,"ax",@progbits
 664               	.global	chFactoryRegisterObject
 666               	chFactoryRegisterObject:
 667               	.LVL60:
 668               	.LFB108:
 284:../../os/oslib/src/chfactory.c **** 
 285:../../os/oslib/src/chfactory.c **** #if (CH_CFG_FACTORY_OBJECTS_REGISTRY == TRUE) || defined(__DOXIGEN__)
 286:../../os/oslib/src/chfactory.c **** /**
 287:../../os/oslib/src/chfactory.c ****  * @brief   Registers a generic object.
 288:../../os/oslib/src/chfactory.c ****  * @post    A reference to the registered object is returned and the
 289:../../os/oslib/src/chfactory.c ****  *          reference counter is initialized to one.
 290:../../os/oslib/src/chfactory.c ****  *
 291:../../os/oslib/src/chfactory.c ****  * @param[in] name      name to be assigned to the registered object
 292:../../os/oslib/src/chfactory.c ****  * @param[in] objp      pointer to the object to be registered
 293:../../os/oslib/src/chfactory.c ****  *
 294:../../os/oslib/src/chfactory.c ****  * @return              The reference to the registered object.
 295:../../os/oslib/src/chfactory.c ****  * @retval NULL         if the object to be registered cannot be allocated or
 296:../../os/oslib/src/chfactory.c ****  *                      a registered object with the same name exists.
 297:../../os/oslib/src/chfactory.c ****  *
 298:../../os/oslib/src/chfactory.c ****  * @api
 299:../../os/oslib/src/chfactory.c ****  */
 300:../../os/oslib/src/chfactory.c **** registered_object_t *chFactoryRegisterObject(const char *name,
 301:../../os/oslib/src/chfactory.c ****                                              void *objp) {
 669               		.loc 1 301 58 is_stmt 1 view -0
 670               		.cfi_startproc
 671               		.loc 1 301 58 is_stmt 0 view .LVU163
 672 0000 EF92      		push r14
 673               	.LCFI24:
 674               		.cfi_def_cfa_offset 3
 675               		.cfi_offset 14, -2
 676 0002 FF92      		push r15
 677               	.LCFI25:
 678               		.cfi_def_cfa_offset 4
 679               		.cfi_offset 15, -3
 680 0004 0F93      		push r16
 681               	.LCFI26:
 682               		.cfi_def_cfa_offset 5
 683               		.cfi_offset 16, -4
 684 0006 1F93      		push r17
 685               	.LCFI27:
 686               		.cfi_def_cfa_offset 6
 687               		.cfi_offset 17, -5
 688 0008 CF93      		push r28
 689               	.LCFI28:
 690               		.cfi_def_cfa_offset 7
 691               		.cfi_offset 28, -6
 692 000a DF93      		push r29
 693               	.LCFI29:
 694               		.cfi_def_cfa_offset 8
 695               		.cfi_offset 29, -7
 696               	/* prologue: function */
 697               	/* frame size = 0 */
 698               	/* stack size = 6 */
 699               	.L__stack_usage = 6
 700 000c 8C01      		movw r16,r24
 701 000e 7B01      		movw r14,r22
 302:../../os/oslib/src/chfactory.c ****   registered_object_t *rop;
 702               		.loc 1 302 3 is_stmt 1 view .LVU164
 303:../../os/oslib/src/chfactory.c **** 
 304:../../os/oslib/src/chfactory.c ****   F_LOCK();
 703               		.loc 1 304 3 view .LVU165
 704 0010 60E0      		ldi r22,0
 705 0012 70E0      		ldi r23,0
 706               	.LVL61:
 707               		.loc 1 304 3 is_stmt 0 view .LVU166
 708 0014 80E0      		ldi r24,lo8(ch_factory)
 709 0016 90E0      		ldi r25,hi8(ch_factory)
 710               	.LVL62:
 711               		.loc 1 304 3 view .LVU167
 712 0018 0E94 0000 		call chSemWaitTimeout
 713               	.LVL63:
 305:../../os/oslib/src/chfactory.c **** 
 306:../../os/oslib/src/chfactory.c ****   rop = (registered_object_t *)dyn_create_object_pool(name,
 714               		.loc 1 306 3 is_stmt 1 view .LVU168
 715               		.loc 1 306 32 is_stmt 0 view .LVU169
 716 001c 40E0      		ldi r20,lo8(ch_factory+3)
 717 001e 50E0      		ldi r21,hi8(ch_factory+3)
 718 0020 60E0      		ldi r22,lo8(ch_factory+1)
 719 0022 70E0      		ldi r23,hi8(ch_factory+1)
 720 0024 C801      		movw r24,r16
 721 0026 0E94 0000 		call dyn_create_object_pool
 722               	.LVL64:
 723 002a EC01      		movw r28,r24
 724               	.LVL65:
 307:../../os/oslib/src/chfactory.c ****                                                       &ch_factory.obj_list,
 308:../../os/oslib/src/chfactory.c ****                                                       &ch_factory.obj_pool);
 309:../../os/oslib/src/chfactory.c ****   if (rop != NULL) {
 725               		.loc 1 309 3 is_stmt 1 view .LVU170
 726               		.loc 1 309 6 is_stmt 0 view .LVU171
 727 002c 892B      		or r24,r25
 728 002e 01F0      		breq .L45
 310:../../os/oslib/src/chfactory.c ****     /* Initializing registered object data.*/
 311:../../os/oslib/src/chfactory.c ****     rop->objp = objp;
 729               		.loc 1 311 5 is_stmt 1 view .LVU172
 730               		.loc 1 311 15 is_stmt 0 view .LVU173
 731 0030 EB86      		std Y+11,r14
 732 0032 FC86      		std Y+12,r15
 733               	.L45:
 312:../../os/oslib/src/chfactory.c ****   }
 313:../../os/oslib/src/chfactory.c **** 
 314:../../os/oslib/src/chfactory.c ****   F_UNLOCK();
 734               		.loc 1 314 3 is_stmt 1 view .LVU174
 735 0034 80E0      		ldi r24,lo8(ch_factory)
 736 0036 90E0      		ldi r25,hi8(ch_factory)
 737               	.LVL66:
 738               		.loc 1 314 3 is_stmt 0 view .LVU175
 739 0038 0E94 0000 		call chSemSignal
 740               	.LVL67:
 315:../../os/oslib/src/chfactory.c **** 
 316:../../os/oslib/src/chfactory.c ****   return rop;
 741               		.loc 1 316 3 is_stmt 1 view .LVU176
 317:../../os/oslib/src/chfactory.c **** }
 742               		.loc 1 317 1 is_stmt 0 view .LVU177
 743 003c CE01      		movw r24,r28
 744               	/* epilogue start */
 745 003e DF91      		pop r29
 746 0040 CF91      		pop r28
 747               	.LVL68:
 748               		.loc 1 317 1 view .LVU178
 749 0042 1F91      		pop r17
 750 0044 0F91      		pop r16
 751               	.LVL69:
 752               		.loc 1 317 1 view .LVU179
 753 0046 FF90      		pop r15
 754 0048 EF90      		pop r14
 755               	.LVL70:
 756               		.loc 1 317 1 view .LVU180
 757 004a 0895      		ret
 758               		.cfi_endproc
 759               	.LFE108:
 761               		.section	.text.chFactoryFindObject,"ax",@progbits
 762               	.global	chFactoryFindObject
 764               	chFactoryFindObject:
 765               	.LVL71:
 766               	.LFB109:
 318:../../os/oslib/src/chfactory.c **** 
 319:../../os/oslib/src/chfactory.c **** /**
 320:../../os/oslib/src/chfactory.c ****  * @brief   Retrieves a registered object.
 321:../../os/oslib/src/chfactory.c ****  * @post    A reference to the registered object is returned with the
 322:../../os/oslib/src/chfactory.c ****  *          reference counter increased by one.
 323:../../os/oslib/src/chfactory.c ****  *
 324:../../os/oslib/src/chfactory.c ****  * @param[in] name      name of the registered object
 325:../../os/oslib/src/chfactory.c ****  *
 326:../../os/oslib/src/chfactory.c ****  * @return              The reference to the found registered object.
 327:../../os/oslib/src/chfactory.c ****  * @retval NULL         if a registered object with the specified name
 328:../../os/oslib/src/chfactory.c ****  *                      does not exist.
 329:../../os/oslib/src/chfactory.c ****  *
 330:../../os/oslib/src/chfactory.c ****  * @api
 331:../../os/oslib/src/chfactory.c ****  */
 332:../../os/oslib/src/chfactory.c **** registered_object_t *chFactoryFindObject(const char *name) {
 767               		.loc 1 332 60 is_stmt 1 view -0
 768               		.cfi_startproc
 769               		.loc 1 332 60 is_stmt 0 view .LVU182
 770 0000 0F93      		push r16
 771               	.LCFI30:
 772               		.cfi_def_cfa_offset 3
 773               		.cfi_offset 16, -2
 774 0002 1F93      		push r17
 775               	.LCFI31:
 776               		.cfi_def_cfa_offset 4
 777               		.cfi_offset 17, -3
 778 0004 CF93      		push r28
 779               	.LCFI32:
 780               		.cfi_def_cfa_offset 5
 781               		.cfi_offset 28, -4
 782 0006 DF93      		push r29
 783               	.LCFI33:
 784               		.cfi_def_cfa_offset 6
 785               		.cfi_offset 29, -5
 786               	/* prologue: function */
 787               	/* frame size = 0 */
 788               	/* stack size = 4 */
 789               	.L__stack_usage = 4
 790 0008 8C01      		movw r16,r24
 333:../../os/oslib/src/chfactory.c ****   registered_object_t *rop;
 791               		.loc 1 333 3 is_stmt 1 view .LVU183
 334:../../os/oslib/src/chfactory.c **** 
 335:../../os/oslib/src/chfactory.c ****   F_LOCK();
 792               		.loc 1 335 3 view .LVU184
 793 000a 60E0      		ldi r22,0
 794 000c 70E0      		ldi r23,0
 795 000e 80E0      		ldi r24,lo8(ch_factory)
 796 0010 90E0      		ldi r25,hi8(ch_factory)
 797               	.LVL72:
 798               		.loc 1 335 3 is_stmt 0 view .LVU185
 799 0012 0E94 0000 		call chSemWaitTimeout
 800               	.LVL73:
 336:../../os/oslib/src/chfactory.c **** 
 337:../../os/oslib/src/chfactory.c ****   rop = (registered_object_t *)dyn_find_object(name, &ch_factory.obj_list);
 801               		.loc 1 337 3 is_stmt 1 view .LVU186
 802               	.LBB66:
 803               	.LBI66:
 227:../../os/oslib/src/chfactory.c ****   dyn_element_t *dep;
 804               		.loc 1 227 23 view .LVU187
 805               	.LBB67:
 228:../../os/oslib/src/chfactory.c **** 
 806               		.loc 1 228 3 view .LVU188
 230:../../os/oslib/src/chfactory.c **** 
 807               		.loc 1 230 3 view .LVU189
 230:../../os/oslib/src/chfactory.c **** 
 808               		.loc 1 230 3 view .LVU190
 230:../../os/oslib/src/chfactory.c **** 
 809               		.loc 1 230 3 discriminator 5 view .LVU191
 233:../../os/oslib/src/chfactory.c ****   if (dep != NULL) {
 810               		.loc 1 233 3 view .LVU192
 811               	.LBB68:
 812               	.LBI68:
 103:../../os/oslib/src/chfactory.c ****   dyn_element_t *p = dlp->next;
 813               		.loc 1 103 23 view .LVU193
 814               	.LBB69:
 104:../../os/oslib/src/chfactory.c **** 
 815               		.loc 1 104 3 view .LVU194
 104:../../os/oslib/src/chfactory.c **** 
 816               		.loc 1 104 18 is_stmt 0 view .LVU195
 817 0016 C091 0000 		lds r28,ch_factory+1
 818 001a D091 0000 		lds r29,ch_factory+1+1
 819               	.LVL74:
 106:../../os/oslib/src/chfactory.c ****     if (strncmp(p->name, name, CH_CFG_FACTORY_MAX_NAMES_LENGTH) == 0) {
 820               		.loc 1 106 3 is_stmt 1 view .LVU196
 106:../../os/oslib/src/chfactory.c ****     if (strncmp(p->name, name, CH_CFG_FACTORY_MAX_NAMES_LENGTH) == 0) {
 821               		.loc 1 106 12 view .LVU197
 822 001e 80E0      		ldi r24,hi8(ch_factory+1)
 823 0020 C030      		cpi r28,lo8(ch_factory+1)
 824 0022 D807      		cpc r29,r24
 825 0024 01F4      		brne .L52
 826 0026 00C0      		rjmp .L56
 827               	.L58:
 110:../../os/oslib/src/chfactory.c ****   }
 828               		.loc 1 110 5 view .LVU198
 110:../../os/oslib/src/chfactory.c ****   }
 829               		.loc 1 110 7 is_stmt 0 view .LVU199
 830 0028 0990      		ld __tmp_reg__,Y+
 831 002a D881      		ld r29,Y
 832 002c C02D      		mov r28,__tmp_reg__
 833               	.LVL75:
 106:../../os/oslib/src/chfactory.c ****     if (strncmp(p->name, name, CH_CFG_FACTORY_MAX_NAMES_LENGTH) == 0) {
 834               		.loc 1 106 12 is_stmt 1 view .LVU200
 835 002e 80E0      		ldi r24,hi8(ch_factory+1)
 836 0030 C030      		cpi r28,lo8(ch_factory+1)
 837 0032 D807      		cpc r29,r24
 838 0034 01F0      		breq .L56
 839               	.L52:
 107:../../os/oslib/src/chfactory.c ****       return p;
 840               		.loc 1 107 5 view .LVU201
 107:../../os/oslib/src/chfactory.c ****       return p;
 841               		.loc 1 107 9 is_stmt 0 view .LVU202
 842 0036 48E0      		ldi r20,lo8(8)
 843 0038 50E0      		ldi r21,0
 844 003a B801      		movw r22,r16
 845 003c CE01      		movw r24,r28
 846 003e 0396      		adiw r24,3
 847 0040 0E94 0000 		call strncmp
 848               	.LVL76:
 107:../../os/oslib/src/chfactory.c ****       return p;
 849               		.loc 1 107 8 discriminator 1 view .LVU203
 850 0044 892B      		or r24,r25
 851 0046 01F4      		brne .L58
 852               	.LVL77:
 107:../../os/oslib/src/chfactory.c ****       return p;
 853               		.loc 1 107 8 discriminator 1 view .LVU204
 854               	.LBE69:
 855               	.LBE68:
 234:../../os/oslib/src/chfactory.c ****     /* Increasing references counter.*/
 856               		.loc 1 234 3 is_stmt 1 view .LVU205
 234:../../os/oslib/src/chfactory.c ****     /* Increasing references counter.*/
 857               		.loc 1 234 6 is_stmt 0 view .LVU206
 858 0048 2097      		sbiw r28,0
 859 004a 01F0      		breq .L50
 236:../../os/oslib/src/chfactory.c ****   }
 860               		.loc 1 236 5 is_stmt 1 view .LVU207
 236:../../os/oslib/src/chfactory.c ****   }
 861               		.loc 1 236 14 is_stmt 0 view .LVU208
 862 004c 8A81      		ldd r24,Y+2
 863 004e 8F5F      		subi r24,lo8(-(1))
 864 0050 8A83      		std Y+2,r24
 865               	.LVL78:
 866               	.L50:
 239:../../os/oslib/src/chfactory.c **** }
 867               		.loc 1 239 3 is_stmt 1 view .LVU209
 239:../../os/oslib/src/chfactory.c **** }
 868               		.loc 1 239 3 is_stmt 0 view .LVU210
 869               	.LBE67:
 870               	.LBE66:
 338:../../os/oslib/src/chfactory.c **** 
 339:../../os/oslib/src/chfactory.c ****   F_UNLOCK();
 871               		.loc 1 339 3 is_stmt 1 view .LVU211
 872 0052 80E0      		ldi r24,lo8(ch_factory)
 873 0054 90E0      		ldi r25,hi8(ch_factory)
 874 0056 0E94 0000 		call chSemSignal
 875               	.LVL79:
 340:../../os/oslib/src/chfactory.c **** 
 341:../../os/oslib/src/chfactory.c ****   return rop;
 876               		.loc 1 341 3 view .LVU212
 342:../../os/oslib/src/chfactory.c **** }
 877               		.loc 1 342 1 is_stmt 0 view .LVU213
 878 005a CE01      		movw r24,r28
 879               	/* epilogue start */
 880 005c DF91      		pop r29
 881 005e CF91      		pop r28
 882               	.LVL80:
 883               		.loc 1 342 1 view .LVU214
 884 0060 1F91      		pop r17
 885 0062 0F91      		pop r16
 886               	.LVL81:
 887               		.loc 1 342 1 view .LVU215
 888 0064 0895      		ret
 889               	.LVL82:
 890               	.L56:
 891               	.LBB73:
 892               	.LBB72:
 893               	.LBB71:
 894               	.LBB70:
 113:../../os/oslib/src/chfactory.c **** }
 895               		.loc 1 113 10 view .LVU216
 896 0066 C0E0      		ldi r28,0
 897 0068 D0E0      		ldi r29,0
 898               	.LVL83:
 113:../../os/oslib/src/chfactory.c **** }
 899               		.loc 1 113 10 view .LVU217
 900 006a 00C0      		rjmp .L50
 901               	.LBE70:
 902               	.LBE71:
 903               	.LBE72:
 904               	.LBE73:
 905               		.cfi_endproc
 906               	.LFE109:
 908               		.section	.text.chFactoryFindObjectByPointer,"ax",@progbits
 909               	.global	chFactoryFindObjectByPointer
 911               	chFactoryFindObjectByPointer:
 912               	.LVL84:
 913               	.LFB110:
 343:../../os/oslib/src/chfactory.c **** 
 344:../../os/oslib/src/chfactory.c **** /**
 345:../../os/oslib/src/chfactory.c ****  * @brief   Retrieves a registered object by pointer.
 346:../../os/oslib/src/chfactory.c ****  * @post    A reference to the registered object is returned with the
 347:../../os/oslib/src/chfactory.c ****  *          reference counter increased by one.
 348:../../os/oslib/src/chfactory.c ****  *
 349:../../os/oslib/src/chfactory.c ****  * @param[in] objp      pointer to the object to be retrieved
 350:../../os/oslib/src/chfactory.c ****  *
 351:../../os/oslib/src/chfactory.c ****  * @return              The reference to the found registered object.
 352:../../os/oslib/src/chfactory.c ****  * @retval NULL         if a registered object with the specified pointer
 353:../../os/oslib/src/chfactory.c ****  *                      does not exist.
 354:../../os/oslib/src/chfactory.c ****  *
 355:../../os/oslib/src/chfactory.c ****  * @api
 356:../../os/oslib/src/chfactory.c ****  */
 357:../../os/oslib/src/chfactory.c **** registered_object_t *chFactoryFindObjectByPointer(void *objp) {
 914               		.loc 1 357 63 is_stmt 1 view -0
 915               		.cfi_startproc
 916               		.loc 1 357 63 is_stmt 0 view .LVU219
 917 0000 0F93      		push r16
 918               	.LCFI34:
 919               		.cfi_def_cfa_offset 3
 920               		.cfi_offset 16, -2
 921 0002 1F93      		push r17
 922               	.LCFI35:
 923               		.cfi_def_cfa_offset 4
 924               		.cfi_offset 17, -3
 925 0004 CF93      		push r28
 926               	.LCFI36:
 927               		.cfi_def_cfa_offset 5
 928               		.cfi_offset 28, -4
 929 0006 DF93      		push r29
 930               	.LCFI37:
 931               		.cfi_def_cfa_offset 6
 932               		.cfi_offset 29, -5
 933               	/* prologue: function */
 934               	/* frame size = 0 */
 935               	/* stack size = 4 */
 936               	.L__stack_usage = 4
 937 0008 8C01      		movw r16,r24
 358:../../os/oslib/src/chfactory.c ****   registered_object_t *rop = (registered_object_t *)ch_factory.obj_list.next;
 938               		.loc 1 358 3 is_stmt 1 view .LVU220
 939               		.loc 1 358 24 is_stmt 0 view .LVU221
 940 000a C091 0000 		lds r28,ch_factory+1
 941 000e D091 0000 		lds r29,ch_factory+1+1
 942               	.LVL85:
 359:../../os/oslib/src/chfactory.c **** 
 360:../../os/oslib/src/chfactory.c ****   F_LOCK();
 943               		.loc 1 360 3 is_stmt 1 view .LVU222
 944 0012 60E0      		ldi r22,0
 945 0014 70E0      		ldi r23,0
 946 0016 80E0      		ldi r24,lo8(ch_factory)
 947 0018 90E0      		ldi r25,hi8(ch_factory)
 948               	.LVL86:
 949               		.loc 1 360 3 is_stmt 0 view .LVU223
 950 001a 0E94 0000 		call chSemWaitTimeout
 951               	.LVL87:
 361:../../os/oslib/src/chfactory.c **** 
 362:../../os/oslib/src/chfactory.c ****   while ((void *)rop != (void *)&ch_factory.obj_list) {
 952               		.loc 1 362 3 is_stmt 1 view .LVU224
 953               		.loc 1 362 22 view .LVU225
 954 001e 80E0      		ldi r24,hi8(ch_factory+1)
 955 0020 C030      		cpi r28,lo8(ch_factory+1)
 956 0022 D807      		cpc r29,r24
 957 0024 01F4      		brne .L63
 958 0026 00C0      		rjmp .L60
 959               	.L61:
 363:../../os/oslib/src/chfactory.c ****     if (rop->objp == objp) {
 364:../../os/oslib/src/chfactory.c ****       rop->element.refs++;
 365:../../os/oslib/src/chfactory.c **** 
 366:../../os/oslib/src/chfactory.c ****       F_UNLOCK();
 367:../../os/oslib/src/chfactory.c **** 
 368:../../os/oslib/src/chfactory.c ****       return rop;
 369:../../os/oslib/src/chfactory.c ****     }
 370:../../os/oslib/src/chfactory.c ****     rop = (registered_object_t *)rop->element.next;
 960               		.loc 1 370 5 view .LVU226
 961               		.loc 1 370 9 is_stmt 0 view .LVU227
 962 0028 0990      		ld __tmp_reg__,Y+
 963 002a D881      		ld r29,Y
 964 002c C02D      		mov r28,__tmp_reg__
 965               	.LVL88:
 362:../../os/oslib/src/chfactory.c ****     if (rop->objp == objp) {
 966               		.loc 1 362 22 is_stmt 1 view .LVU228
 967 002e 80E0      		ldi r24,hi8(ch_factory+1)
 968 0030 C030      		cpi r28,lo8(ch_factory+1)
 969 0032 D807      		cpc r29,r24
 970 0034 01F0      		breq .L60
 971               	.L63:
 363:../../os/oslib/src/chfactory.c ****     if (rop->objp == objp) {
 972               		.loc 1 363 5 view .LVU229
 363:../../os/oslib/src/chfactory.c ****     if (rop->objp == objp) {
 973               		.loc 1 363 8 is_stmt 0 view .LVU230
 974 0036 8B85      		ldd r24,Y+11
 975 0038 9C85      		ldd r25,Y+12
 976 003a 8017      		cp r24,r16
 977 003c 9107      		cpc r25,r17
 978 003e 01F4      		brne .L61
 364:../../os/oslib/src/chfactory.c **** 
 979               		.loc 1 364 7 is_stmt 1 view .LVU231
 364:../../os/oslib/src/chfactory.c **** 
 980               		.loc 1 364 24 is_stmt 0 view .LVU232
 981 0040 8A81      		ldd r24,Y+2
 982 0042 8F5F      		subi r24,lo8(-(1))
 983 0044 8A83      		std Y+2,r24
 366:../../os/oslib/src/chfactory.c **** 
 984               		.loc 1 366 7 is_stmt 1 view .LVU233
 985 0046 80E0      		ldi r24,lo8(ch_factory)
 986 0048 90E0      		ldi r25,hi8(ch_factory)
 987 004a 0E94 0000 		call chSemSignal
 988               	.LVL89:
 368:../../os/oslib/src/chfactory.c ****     }
 989               		.loc 1 368 7 view .LVU234
 371:../../os/oslib/src/chfactory.c ****   }
 372:../../os/oslib/src/chfactory.c **** 
 373:../../os/oslib/src/chfactory.c ****   F_UNLOCK();
 374:../../os/oslib/src/chfactory.c **** 
 375:../../os/oslib/src/chfactory.c ****   return NULL;
 376:../../os/oslib/src/chfactory.c **** }
 990               		.loc 1 376 1 is_stmt 0 view .LVU235
 991 004e CE01      		movw r24,r28
 992               	/* epilogue start */
 993 0050 DF91      		pop r29
 994 0052 CF91      		pop r28
 995               	.LVL90:
 996               		.loc 1 376 1 view .LVU236
 997 0054 1F91      		pop r17
 998 0056 0F91      		pop r16
 999               	.LVL91:
 1000               		.loc 1 376 1 view .LVU237
 1001 0058 0895      		ret
 1002               	.LVL92:
 1003               	.L60:
 373:../../os/oslib/src/chfactory.c **** 
 1004               		.loc 1 373 3 is_stmt 1 view .LVU238
 1005 005a 80E0      		ldi r24,lo8(ch_factory)
 1006 005c 90E0      		ldi r25,hi8(ch_factory)
 1007 005e 0E94 0000 		call chSemSignal
 1008               	.LVL93:
 375:../../os/oslib/src/chfactory.c **** }
 1009               		.loc 1 375 3 view .LVU239
 375:../../os/oslib/src/chfactory.c **** }
 1010               		.loc 1 375 10 is_stmt 0 view .LVU240
 1011 0062 C0E0      		ldi r28,0
 1012 0064 D0E0      		ldi r29,0
 1013               	.LVL94:
 1014               		.loc 1 376 1 view .LVU241
 1015 0066 CE01      		movw r24,r28
 1016               	/* epilogue start */
 1017 0068 DF91      		pop r29
 1018 006a CF91      		pop r28
 1019 006c 1F91      		pop r17
 1020 006e 0F91      		pop r16
 1021               	.LVL95:
 1022               		.loc 1 376 1 view .LVU242
 1023 0070 0895      		ret
 1024               		.cfi_endproc
 1025               	.LFE110:
 1027               		.section	.text.chFactoryReleaseObject,"ax",@progbits
 1028               	.global	chFactoryReleaseObject
 1030               	chFactoryReleaseObject:
 1031               	.LVL96:
 1032               	.LFB111:
 377:../../os/oslib/src/chfactory.c **** 
 378:../../os/oslib/src/chfactory.c **** /**
 379:../../os/oslib/src/chfactory.c ****  * @brief   Releases a registered object.
 380:../../os/oslib/src/chfactory.c ****  * @details The reference counter of the registered object is decreased
 381:../../os/oslib/src/chfactory.c ****  *          by one, if reaches zero then the registered object memory
 382:../../os/oslib/src/chfactory.c ****  *          is freed.
 383:../../os/oslib/src/chfactory.c ****  * @note    The object itself is not freed, it could be static, only the
 384:../../os/oslib/src/chfactory.c ****  *          allocated list element is freed.
 385:../../os/oslib/src/chfactory.c ****  *
 386:../../os/oslib/src/chfactory.c ****  * @param[in] rop       registered object reference
 387:../../os/oslib/src/chfactory.c ****  *
 388:../../os/oslib/src/chfactory.c ****  * @api
 389:../../os/oslib/src/chfactory.c ****  */
 390:../../os/oslib/src/chfactory.c **** void chFactoryReleaseObject(registered_object_t *rop) {
 1033               		.loc 1 390 55 is_stmt 1 view -0
 1034               		.cfi_startproc
 1035               		.loc 1 390 55 is_stmt 0 view .LVU244
 1036 0000 CF93      		push r28
 1037               	.LCFI38:
 1038               		.cfi_def_cfa_offset 3
 1039               		.cfi_offset 28, -2
 1040 0002 DF93      		push r29
 1041               	.LCFI39:
 1042               		.cfi_def_cfa_offset 4
 1043               		.cfi_offset 29, -3
 1044               	/* prologue: function */
 1045               	/* frame size = 0 */
 1046               	/* stack size = 2 */
 1047               	.L__stack_usage = 2
 1048 0004 EC01      		movw r28,r24
 391:../../os/oslib/src/chfactory.c **** 
 392:../../os/oslib/src/chfactory.c ****   F_LOCK();
 1049               		.loc 1 392 3 is_stmt 1 view .LVU245
 1050 0006 60E0      		ldi r22,0
 1051 0008 70E0      		ldi r23,0
 1052 000a 80E0      		ldi r24,lo8(ch_factory)
 1053 000c 90E0      		ldi r25,hi8(ch_factory)
 1054               	.LVL97:
 1055               		.loc 1 392 3 is_stmt 0 view .LVU246
 1056 000e 0E94 0000 		call chSemWaitTimeout
 1057               	.LVL98:
 393:../../os/oslib/src/chfactory.c **** 
 394:../../os/oslib/src/chfactory.c ****   dyn_release_object_pool(&rop->element,
 1058               		.loc 1 394 3 is_stmt 1 view .LVU247
 1059               	.LBB82:
 1060               	.LBI82:
 212:../../os/oslib/src/chfactory.c ****                                     dyn_list_t *dlp,
 1061               		.loc 1 212 13 view .LVU248
 1062               	.LBB83:
 216:../../os/oslib/src/chfactory.c ****   chDbgAssert(dep->refs > (ucnt_t)0, "invalid references number");
 1063               		.loc 1 216 3 view .LVU249
 216:../../os/oslib/src/chfactory.c ****   chDbgAssert(dep->refs > (ucnt_t)0, "invalid references number");
 1064               		.loc 1 216 3 view .LVU250
 216:../../os/oslib/src/chfactory.c ****   chDbgAssert(dep->refs > (ucnt_t)0, "invalid references number");
 1065               		.loc 1 216 3 discriminator 5 view .LVU251
 217:../../os/oslib/src/chfactory.c **** 
 1066               		.loc 1 217 3 view .LVU252
 217:../../os/oslib/src/chfactory.c **** 
 1067               		.loc 1 217 3 view .LVU253
 217:../../os/oslib/src/chfactory.c **** 
 1068               		.loc 1 217 3 discriminator 5 view .LVU254
 219:../../os/oslib/src/chfactory.c ****   if (dep->refs == (ucnt_t)0) {
 1069               		.loc 1 219 3 view .LVU255
 219:../../os/oslib/src/chfactory.c ****   if (dep->refs == (ucnt_t)0) {
 1070               		.loc 1 219 12 is_stmt 0 view .LVU256
 1071 0012 8A81      		ldd r24,Y+2
 1072 0014 8150      		subi r24,lo8(-(-1))
 1073 0016 8A83      		std Y+2,r24
 220:../../os/oslib/src/chfactory.c ****     dep = dyn_list_unlink(dep, dlp);
 1074               		.loc 1 220 3 is_stmt 1 view .LVU257
 220:../../os/oslib/src/chfactory.c ****     dep = dyn_list_unlink(dep, dlp);
 1075               		.loc 1 220 6 is_stmt 0 view .LVU258
 1076 0018 8111      		cpse r24,__zero_reg__
 1077 001a 00C0      		rjmp .L70
 1078               	.LBB84:
 1079               	.LBB85:
 1080               	.LBB86:
 1081               	.LBB87:
 118:../../os/oslib/src/chfactory.c **** 
 1082               		.loc 1 118 18 view .LVU259
 1083 001c E0E0      		ldi r30,lo8(ch_factory+1)
 1084 001e F0E0      		ldi r31,hi8(ch_factory+1)
 1085               	.LVL99:
 118:../../os/oslib/src/chfactory.c **** 
 1086               		.loc 1 118 18 view .LVU260
 1087 0020 00C0      		rjmp .L71
 1088               	.LVL100:
 1089               	.L73:
 122:../../os/oslib/src/chfactory.c ****       /* Found.*/
 1090               		.loc 1 122 5 is_stmt 1 view .LVU261
 122:../../os/oslib/src/chfactory.c ****       /* Found.*/
 1091               		.loc 1 122 8 is_stmt 0 view .LVU262
 1092 0022 CE17      		cp r28,r30
 1093 0024 DF07      		cpc r29,r31
 1094 0026 01F0      		breq .L75
 1095               	.LVL101:
 1096               	.L71:
 121:../../os/oslib/src/chfactory.c ****     if (prev->next == element) {
 1097               		.loc 1 121 21 is_stmt 1 view .LVU263
 1098 0028 DF01      		movw r26,r30
 121:../../os/oslib/src/chfactory.c ****     if (prev->next == element) {
 1099               		.loc 1 121 14 is_stmt 0 view .LVU264
 1100 002a 0190      		ld __tmp_reg__,Z+
 1101 002c F081      		ld r31,Z
 1102 002e E02D      		mov r30,__tmp_reg__
 1103               	.LVL102:
 121:../../os/oslib/src/chfactory.c ****     if (prev->next == element) {
 1104               		.loc 1 121 21 view .LVU265
 1105 0030 80E0      		ldi r24,hi8(ch_factory+1)
 1106 0032 E030      		cpi r30,lo8(ch_factory+1)
 1107 0034 F807      		cpc r31,r24
 1108 0036 01F4      		brne .L73
 132:../../os/oslib/src/chfactory.c **** }
 1109               		.loc 1 132 10 view .LVU266
 1110 0038 E0E0      		ldi r30,0
 1111 003a F0E0      		ldi r31,0
 1112               	.L72:
 1113               	.LVL103:
 132:../../os/oslib/src/chfactory.c **** }
 1114               		.loc 1 132 10 view .LVU267
 1115               	.LBE87:
 1116               	.LBE86:
 222:../../os/oslib/src/chfactory.c ****   }
 1117               		.loc 1 222 5 is_stmt 1 view .LVU268
 1118 003c BF01      		movw r22,r30
 1119 003e 80E0      		ldi r24,lo8(ch_factory+3)
 1120 0040 90E0      		ldi r25,hi8(ch_factory+3)
 1121               	.LVL104:
 222:../../os/oslib/src/chfactory.c ****   }
 1122               		.loc 1 222 5 is_stmt 0 view .LVU269
 1123 0042 0E94 0000 		call chPoolFree
 1124               	.LVL105:
 1125               	.L70:
 222:../../os/oslib/src/chfactory.c ****   }
 1126               		.loc 1 222 5 view .LVU270
 1127               	.LBE85:
 1128               	.LBE84:
 1129               	.LBE83:
 1130               	.LBE82:
 395:../../os/oslib/src/chfactory.c ****                           &ch_factory.obj_list,
 396:../../os/oslib/src/chfactory.c ****                           &ch_factory.obj_pool);
 397:../../os/oslib/src/chfactory.c **** 
 398:../../os/oslib/src/chfactory.c ****   F_UNLOCK();
 1131               		.loc 1 398 3 is_stmt 1 view .LVU271
 1132 0046 80E0      		ldi r24,lo8(ch_factory)
 1133 0048 90E0      		ldi r25,hi8(ch_factory)
 1134               	/* epilogue start */
 399:../../os/oslib/src/chfactory.c **** }
 1135               		.loc 1 399 1 is_stmt 0 view .LVU272
 1136 004a DF91      		pop r29
 1137 004c CF91      		pop r28
 1138               	.LVL106:
 398:../../os/oslib/src/chfactory.c **** }
 1139               		.loc 1 398 3 view .LVU273
 1140 004e 0C94 0000 		jmp chSemSignal
 1141               	.LVL107:
 1142               	.L75:
 1143               	.LBB93:
 1144               	.LBB92:
 1145               	.LBB91:
 1146               	.LBB90:
 1147               	.LBB89:
 1148               	.LBB88:
 124:../../os/oslib/src/chfactory.c ****       return element;
 1149               		.loc 1 124 7 is_stmt 1 view .LVU274
 124:../../os/oslib/src/chfactory.c ****       return element;
 1150               		.loc 1 124 27 is_stmt 0 view .LVU275
 1151 0052 8081      		ld r24,Z
 1152 0054 9181      		ldd r25,Z+1
 124:../../os/oslib/src/chfactory.c ****       return element;
 1153               		.loc 1 124 18 view .LVU276
 1154 0056 8D93      		st X+,r24
 1155 0058 9C93      		st X,r25
 125:../../os/oslib/src/chfactory.c ****     }
 1156               		.loc 1 125 7 is_stmt 1 view .LVU277
 125:../../os/oslib/src/chfactory.c ****     }
 1157               		.loc 1 125 14 is_stmt 0 view .LVU278
 1158 005a 00C0      		rjmp .L72
 1159               	.LBE88:
 1160               	.LBE89:
 1161               	.LBE90:
 1162               	.LBE91:
 1163               	.LBE92:
 1164               	.LBE93:
 1165               		.cfi_endproc
 1166               	.LFE111:
 1168               		.section	.text.chFactoryCreateBuffer,"ax",@progbits
 1169               	.global	chFactoryCreateBuffer
 1171               	chFactoryCreateBuffer:
 1172               	.LVL108:
 1173               	.LFB112:
 400:../../os/oslib/src/chfactory.c **** #endif /* CH_CFG_FACTORY_OBJECTS_REGISTRY == TRUE */
 401:../../os/oslib/src/chfactory.c **** 
 402:../../os/oslib/src/chfactory.c **** #if (CH_CFG_FACTORY_GENERIC_BUFFERS == TRUE) || defined(__DOXIGEN__)
 403:../../os/oslib/src/chfactory.c **** /**
 404:../../os/oslib/src/chfactory.c ****  * @brief   Creates a generic dynamic buffer object.
 405:../../os/oslib/src/chfactory.c ****  * @post    A reference to the dynamic buffer object is returned and the
 406:../../os/oslib/src/chfactory.c ****  *          reference counter is initialized to one.
 407:../../os/oslib/src/chfactory.c ****  * @post    The dynamic buffer object is filled with zeros.
 408:../../os/oslib/src/chfactory.c ****  *
 409:../../os/oslib/src/chfactory.c ****  * @param[in] name      name to be assigned to the new dynamic buffer object
 410:../../os/oslib/src/chfactory.c ****  * @param[in] size      payload size of the dynamic buffer object to be created
 411:../../os/oslib/src/chfactory.c ****  *
 412:../../os/oslib/src/chfactory.c ****  * @return              The reference to the created dynamic buffer object.
 413:../../os/oslib/src/chfactory.c ****  * @retval NULL         if the dynamic buffer object cannot be allocated or
 414:../../os/oslib/src/chfactory.c ****  *                      a dynamic buffer object with the same name exists.
 415:../../os/oslib/src/chfactory.c ****  *
 416:../../os/oslib/src/chfactory.c ****  * @api
 417:../../os/oslib/src/chfactory.c ****  */
 418:../../os/oslib/src/chfactory.c **** dyn_buffer_t *chFactoryCreateBuffer(const char *name, size_t size) {
 1174               		.loc 1 418 68 is_stmt 1 view -0
 1175               		.cfi_startproc
 1176               		.loc 1 418 68 is_stmt 0 view .LVU280
 1177 0000 EF92      		push r14
 1178               	.LCFI40:
 1179               		.cfi_def_cfa_offset 3
 1180               		.cfi_offset 14, -2
 1181 0002 FF92      		push r15
 1182               	.LCFI41:
 1183               		.cfi_def_cfa_offset 4
 1184               		.cfi_offset 15, -3
 1185 0004 0F93      		push r16
 1186               	.LCFI42:
 1187               		.cfi_def_cfa_offset 5
 1188               		.cfi_offset 16, -4
 1189 0006 1F93      		push r17
 1190               	.LCFI43:
 1191               		.cfi_def_cfa_offset 6
 1192               		.cfi_offset 17, -5
 1193 0008 CF93      		push r28
 1194               	.LCFI44:
 1195               		.cfi_def_cfa_offset 7
 1196               		.cfi_offset 28, -6
 1197 000a DF93      		push r29
 1198               	.LCFI45:
 1199               		.cfi_def_cfa_offset 8
 1200               		.cfi_offset 29, -7
 1201               	/* prologue: function */
 1202               	/* frame size = 0 */
 1203               	/* stack size = 6 */
 1204               	.L__stack_usage = 6
 1205 000c 8C01      		movw r16,r24
 1206 000e 7B01      		movw r14,r22
 419:../../os/oslib/src/chfactory.c ****   dyn_buffer_t *dbp;
 1207               		.loc 1 419 3 is_stmt 1 view .LVU281
 420:../../os/oslib/src/chfactory.c **** 
 421:../../os/oslib/src/chfactory.c ****   F_LOCK();
 1208               		.loc 1 421 3 view .LVU282
 1209 0010 60E0      		ldi r22,0
 1210 0012 70E0      		ldi r23,0
 1211               	.LVL109:
 1212               		.loc 1 421 3 is_stmt 0 view .LVU283
 1213 0014 80E0      		ldi r24,lo8(ch_factory)
 1214 0016 90E0      		ldi r25,hi8(ch_factory)
 1215               	.LVL110:
 1216               		.loc 1 421 3 view .LVU284
 1217 0018 0E94 0000 		call chSemWaitTimeout
 1218               	.LVL111:
 422:../../os/oslib/src/chfactory.c **** 
 423:../../os/oslib/src/chfactory.c ****   dbp = (dyn_buffer_t *)dyn_create_object_heap(name,
 1219               		.loc 1 423 3 is_stmt 1 view .LVU285
 1220               		.loc 1 423 25 is_stmt 0 view .LVU286
 1221 001c A701      		movw r20,r14
 1222 001e 455F      		subi r20,-11
 1223 0020 5F4F      		sbci r21,-1
 1224 0022 24E0      		ldi r18,lo8(4)
 1225 0024 30E0      		ldi r19,0
 1226 0026 60E0      		ldi r22,lo8(ch_factory+11)
 1227 0028 70E0      		ldi r23,hi8(ch_factory+11)
 1228 002a C801      		movw r24,r16
 1229 002c 0E94 0000 		call dyn_create_object_heap
 1230               	.LVL112:
 1231 0030 EC01      		movw r28,r24
 1232               	.LVL113:
 424:../../os/oslib/src/chfactory.c ****                                                &ch_factory.buf_list,
 425:../../os/oslib/src/chfactory.c ****                                                sizeof (dyn_buffer_t) + size,
 426:../../os/oslib/src/chfactory.c ****                                                CH_HEAP_ALIGNMENT);
 427:../../os/oslib/src/chfactory.c ****   if (dbp != NULL) {
 1233               		.loc 1 427 3 is_stmt 1 view .LVU287
 1234               		.loc 1 427 6 is_stmt 0 view .LVU288
 1235 0032 0097      		sbiw r24,0
 1236 0034 01F0      		breq .L77
 428:../../os/oslib/src/chfactory.c ****     /* Initializing buffer object data.*/
 429:../../os/oslib/src/chfactory.c ****     memset((void *)(dbp + 1), 0, size);
 1237               		.loc 1 429 5 is_stmt 1 view .LVU289
 1238 0036 A701      		movw r20,r14
 1239 0038 60E0      		ldi r22,0
 1240 003a 70E0      		ldi r23,0
 1241 003c 0B96      		adiw r24,11
 1242               	.LVL114:
 1243               		.loc 1 429 5 is_stmt 0 view .LVU290
 1244 003e 0E94 0000 		call memset
 1245               	.LVL115:
 1246               	.L77:
 430:../../os/oslib/src/chfactory.c ****   }
 431:../../os/oslib/src/chfactory.c **** 
 432:../../os/oslib/src/chfactory.c ****   F_UNLOCK();
 1247               		.loc 1 432 3 is_stmt 1 view .LVU291
 1248 0042 80E0      		ldi r24,lo8(ch_factory)
 1249 0044 90E0      		ldi r25,hi8(ch_factory)
 1250 0046 0E94 0000 		call chSemSignal
 1251               	.LVL116:
 433:../../os/oslib/src/chfactory.c **** 
 434:../../os/oslib/src/chfactory.c ****   return dbp;
 1252               		.loc 1 434 3 view .LVU292
 435:../../os/oslib/src/chfactory.c **** }
 1253               		.loc 1 435 1 is_stmt 0 view .LVU293
 1254 004a CE01      		movw r24,r28
 1255               	/* epilogue start */
 1256 004c DF91      		pop r29
 1257 004e CF91      		pop r28
 1258               	.LVL117:
 1259               		.loc 1 435 1 view .LVU294
 1260 0050 1F91      		pop r17
 1261 0052 0F91      		pop r16
 1262               	.LVL118:
 1263               		.loc 1 435 1 view .LVU295
 1264 0054 FF90      		pop r15
 1265 0056 EF90      		pop r14
 1266               	.LVL119:
 1267               		.loc 1 435 1 view .LVU296
 1268 0058 0895      		ret
 1269               		.cfi_endproc
 1270               	.LFE112:
 1272               		.section	.text.chFactoryFindBuffer,"ax",@progbits
 1273               	.global	chFactoryFindBuffer
 1275               	chFactoryFindBuffer:
 1276               	.LVL120:
 1277               	.LFB113:
 436:../../os/oslib/src/chfactory.c **** 
 437:../../os/oslib/src/chfactory.c **** /**
 438:../../os/oslib/src/chfactory.c ****  * @brief   Retrieves a dynamic buffer object.
 439:../../os/oslib/src/chfactory.c ****  * @post    A reference to the dynamic buffer object is returned with the
 440:../../os/oslib/src/chfactory.c ****  *          reference counter increased by one.
 441:../../os/oslib/src/chfactory.c ****  *
 442:../../os/oslib/src/chfactory.c ****  * @param[in] name      name of the dynamic buffer object
 443:../../os/oslib/src/chfactory.c ****  *
 444:../../os/oslib/src/chfactory.c ****  * @return              The reference to the found dynamic buffer object.
 445:../../os/oslib/src/chfactory.c ****  * @retval NULL         if a dynamic buffer object with the specified name
 446:../../os/oslib/src/chfactory.c ****  *                      does not exist.
 447:../../os/oslib/src/chfactory.c ****  *
 448:../../os/oslib/src/chfactory.c ****  * @api
 449:../../os/oslib/src/chfactory.c ****  */
 450:../../os/oslib/src/chfactory.c **** dyn_buffer_t *chFactoryFindBuffer(const char *name) {
 1278               		.loc 1 450 53 is_stmt 1 view -0
 1279               		.cfi_startproc
 1280               		.loc 1 450 53 is_stmt 0 view .LVU298
 1281 0000 0F93      		push r16
 1282               	.LCFI46:
 1283               		.cfi_def_cfa_offset 3
 1284               		.cfi_offset 16, -2
 1285 0002 1F93      		push r17
 1286               	.LCFI47:
 1287               		.cfi_def_cfa_offset 4
 1288               		.cfi_offset 17, -3
 1289 0004 CF93      		push r28
 1290               	.LCFI48:
 1291               		.cfi_def_cfa_offset 5
 1292               		.cfi_offset 28, -4
 1293 0006 DF93      		push r29
 1294               	.LCFI49:
 1295               		.cfi_def_cfa_offset 6
 1296               		.cfi_offset 29, -5
 1297               	/* prologue: function */
 1298               	/* frame size = 0 */
 1299               	/* stack size = 4 */
 1300               	.L__stack_usage = 4
 1301 0008 8C01      		movw r16,r24
 451:../../os/oslib/src/chfactory.c ****   dyn_buffer_t *dbp;
 1302               		.loc 1 451 3 is_stmt 1 view .LVU299
 452:../../os/oslib/src/chfactory.c **** 
 453:../../os/oslib/src/chfactory.c ****   F_LOCK();
 1303               		.loc 1 453 3 view .LVU300
 1304 000a 60E0      		ldi r22,0
 1305 000c 70E0      		ldi r23,0
 1306 000e 80E0      		ldi r24,lo8(ch_factory)
 1307 0010 90E0      		ldi r25,hi8(ch_factory)
 1308               	.LVL121:
 1309               		.loc 1 453 3 is_stmt 0 view .LVU301
 1310 0012 0E94 0000 		call chSemWaitTimeout
 1311               	.LVL122:
 454:../../os/oslib/src/chfactory.c **** 
 455:../../os/oslib/src/chfactory.c ****   dbp = (dyn_buffer_t *)dyn_find_object(name, &ch_factory.buf_list);
 1312               		.loc 1 455 3 is_stmt 1 view .LVU302
 1313               	.LBB98:
 1314               	.LBI98:
 227:../../os/oslib/src/chfactory.c ****   dyn_element_t *dep;
 1315               		.loc 1 227 23 view .LVU303
 1316               	.LBB99:
 228:../../os/oslib/src/chfactory.c **** 
 1317               		.loc 1 228 3 view .LVU304
 230:../../os/oslib/src/chfactory.c **** 
 1318               		.loc 1 230 3 view .LVU305
 230:../../os/oslib/src/chfactory.c **** 
 1319               		.loc 1 230 3 view .LVU306
 230:../../os/oslib/src/chfactory.c **** 
 1320               		.loc 1 230 3 discriminator 5 view .LVU307
 233:../../os/oslib/src/chfactory.c ****   if (dep != NULL) {
 1321               		.loc 1 233 3 view .LVU308
 1322               	.LBB100:
 1323               	.LBI100:
 103:../../os/oslib/src/chfactory.c ****   dyn_element_t *p = dlp->next;
 1324               		.loc 1 103 23 view .LVU309
 1325               	.LBB101:
 104:../../os/oslib/src/chfactory.c **** 
 1326               		.loc 1 104 3 view .LVU310
 104:../../os/oslib/src/chfactory.c **** 
 1327               		.loc 1 104 18 is_stmt 0 view .LVU311
 1328 0016 C091 0000 		lds r28,ch_factory+11
 1329 001a D091 0000 		lds r29,ch_factory+11+1
 1330               	.LVL123:
 106:../../os/oslib/src/chfactory.c ****     if (strncmp(p->name, name, CH_CFG_FACTORY_MAX_NAMES_LENGTH) == 0) {
 1331               		.loc 1 106 3 is_stmt 1 view .LVU312
 106:../../os/oslib/src/chfactory.c ****     if (strncmp(p->name, name, CH_CFG_FACTORY_MAX_NAMES_LENGTH) == 0) {
 1332               		.loc 1 106 12 view .LVU313
 1333 001e 80E0      		ldi r24,hi8(ch_factory+11)
 1334 0020 C030      		cpi r28,lo8(ch_factory+11)
 1335 0022 D807      		cpc r29,r24
 1336 0024 01F4      		brne .L84
 1337 0026 00C0      		rjmp .L88
 1338               	.L90:
 110:../../os/oslib/src/chfactory.c ****   }
 1339               		.loc 1 110 5 view .LVU314
 110:../../os/oslib/src/chfactory.c ****   }
 1340               		.loc 1 110 7 is_stmt 0 view .LVU315
 1341 0028 0990      		ld __tmp_reg__,Y+
 1342 002a D881      		ld r29,Y
 1343 002c C02D      		mov r28,__tmp_reg__
 1344               	.LVL124:
 106:../../os/oslib/src/chfactory.c ****     if (strncmp(p->name, name, CH_CFG_FACTORY_MAX_NAMES_LENGTH) == 0) {
 1345               		.loc 1 106 12 is_stmt 1 view .LVU316
 1346 002e 80E0      		ldi r24,hi8(ch_factory+11)
 1347 0030 C030      		cpi r28,lo8(ch_factory+11)
 1348 0032 D807      		cpc r29,r24
 1349 0034 01F0      		breq .L88
 1350               	.L84:
 107:../../os/oslib/src/chfactory.c ****       return p;
 1351               		.loc 1 107 5 view .LVU317
 107:../../os/oslib/src/chfactory.c ****       return p;
 1352               		.loc 1 107 9 is_stmt 0 view .LVU318
 1353 0036 48E0      		ldi r20,lo8(8)
 1354 0038 50E0      		ldi r21,0
 1355 003a B801      		movw r22,r16
 1356 003c CE01      		movw r24,r28
 1357 003e 0396      		adiw r24,3
 1358 0040 0E94 0000 		call strncmp
 1359               	.LVL125:
 107:../../os/oslib/src/chfactory.c ****       return p;
 1360               		.loc 1 107 8 discriminator 1 view .LVU319
 1361 0044 892B      		or r24,r25
 1362 0046 01F4      		brne .L90
 1363               	.LVL126:
 107:../../os/oslib/src/chfactory.c ****       return p;
 1364               		.loc 1 107 8 discriminator 1 view .LVU320
 1365               	.LBE101:
 1366               	.LBE100:
 234:../../os/oslib/src/chfactory.c ****     /* Increasing references counter.*/
 1367               		.loc 1 234 3 is_stmt 1 view .LVU321
 234:../../os/oslib/src/chfactory.c ****     /* Increasing references counter.*/
 1368               		.loc 1 234 6 is_stmt 0 view .LVU322
 1369 0048 2097      		sbiw r28,0
 1370 004a 01F0      		breq .L82
 236:../../os/oslib/src/chfactory.c ****   }
 1371               		.loc 1 236 5 is_stmt 1 view .LVU323
 236:../../os/oslib/src/chfactory.c ****   }
 1372               		.loc 1 236 14 is_stmt 0 view .LVU324
 1373 004c 8A81      		ldd r24,Y+2
 1374 004e 8F5F      		subi r24,lo8(-(1))
 1375 0050 8A83      		std Y+2,r24
 1376               	.LVL127:
 1377               	.L82:
 239:../../os/oslib/src/chfactory.c **** }
 1378               		.loc 1 239 3 is_stmt 1 view .LVU325
 239:../../os/oslib/src/chfactory.c **** }
 1379               		.loc 1 239 3 is_stmt 0 view .LVU326
 1380               	.LBE99:
 1381               	.LBE98:
 456:../../os/oslib/src/chfactory.c **** 
 457:../../os/oslib/src/chfactory.c ****   F_UNLOCK();
 1382               		.loc 1 457 3 is_stmt 1 view .LVU327
 1383 0052 80E0      		ldi r24,lo8(ch_factory)
 1384 0054 90E0      		ldi r25,hi8(ch_factory)
 1385 0056 0E94 0000 		call chSemSignal
 1386               	.LVL128:
 458:../../os/oslib/src/chfactory.c **** 
 459:../../os/oslib/src/chfactory.c ****   return dbp;
 1387               		.loc 1 459 3 view .LVU328
 460:../../os/oslib/src/chfactory.c **** }
 1388               		.loc 1 460 1 is_stmt 0 view .LVU329
 1389 005a CE01      		movw r24,r28
 1390               	/* epilogue start */
 1391 005c DF91      		pop r29
 1392 005e CF91      		pop r28
 1393               	.LVL129:
 1394               		.loc 1 460 1 view .LVU330
 1395 0060 1F91      		pop r17
 1396 0062 0F91      		pop r16
 1397               	.LVL130:
 1398               		.loc 1 460 1 view .LVU331
 1399 0064 0895      		ret
 1400               	.LVL131:
 1401               	.L88:
 1402               	.LBB105:
 1403               	.LBB104:
 1404               	.LBB103:
 1405               	.LBB102:
 113:../../os/oslib/src/chfactory.c **** }
 1406               		.loc 1 113 10 view .LVU332
 1407 0066 C0E0      		ldi r28,0
 1408 0068 D0E0      		ldi r29,0
 1409               	.LVL132:
 113:../../os/oslib/src/chfactory.c **** }
 1410               		.loc 1 113 10 view .LVU333
 1411 006a 00C0      		rjmp .L82
 1412               	.LBE102:
 1413               	.LBE103:
 1414               	.LBE104:
 1415               	.LBE105:
 1416               		.cfi_endproc
 1417               	.LFE113:
 1419               		.section	.text.chFactoryReleaseBuffer,"ax",@progbits
 1420               	.global	chFactoryReleaseBuffer
 1422               	chFactoryReleaseBuffer:
 1423               	.LVL133:
 1424               	.LFB114:
 461:../../os/oslib/src/chfactory.c **** 
 462:../../os/oslib/src/chfactory.c **** /**
 463:../../os/oslib/src/chfactory.c ****  * @brief   Releases a dynamic buffer object.
 464:../../os/oslib/src/chfactory.c ****  * @details The reference counter of the dynamic buffer object is decreased
 465:../../os/oslib/src/chfactory.c ****  *          by one, if reaches zero then the dynamic buffer object memory
 466:../../os/oslib/src/chfactory.c ****  *          is freed.
 467:../../os/oslib/src/chfactory.c ****  *
 468:../../os/oslib/src/chfactory.c ****  * @param[in] dbp       dynamic buffer object reference
 469:../../os/oslib/src/chfactory.c ****  *
 470:../../os/oslib/src/chfactory.c ****  * @api
 471:../../os/oslib/src/chfactory.c ****  */
 472:../../os/oslib/src/chfactory.c **** void chFactoryReleaseBuffer(dyn_buffer_t *dbp) {
 1425               		.loc 1 472 48 is_stmt 1 view -0
 1426               		.cfi_startproc
 1427               		.loc 1 472 48 is_stmt 0 view .LVU335
 1428 0000 CF93      		push r28
 1429               	.LCFI50:
 1430               		.cfi_def_cfa_offset 3
 1431               		.cfi_offset 28, -2
 1432 0002 DF93      		push r29
 1433               	.LCFI51:
 1434               		.cfi_def_cfa_offset 4
 1435               		.cfi_offset 29, -3
 1436               	/* prologue: function */
 1437               	/* frame size = 0 */
 1438               	/* stack size = 2 */
 1439               	.L__stack_usage = 2
 1440 0004 EC01      		movw r28,r24
 473:../../os/oslib/src/chfactory.c **** 
 474:../../os/oslib/src/chfactory.c ****   F_LOCK();
 1441               		.loc 1 474 3 is_stmt 1 view .LVU336
 1442 0006 60E0      		ldi r22,0
 1443 0008 70E0      		ldi r23,0
 1444 000a 80E0      		ldi r24,lo8(ch_factory)
 1445 000c 90E0      		ldi r25,hi8(ch_factory)
 1446               	.LVL134:
 1447               		.loc 1 474 3 is_stmt 0 view .LVU337
 1448 000e 0E94 0000 		call chSemWaitTimeout
 1449               	.LVL135:
 475:../../os/oslib/src/chfactory.c **** 
 476:../../os/oslib/src/chfactory.c ****   dyn_release_object_heap(&dbp->element, &ch_factory.buf_list);
 1450               		.loc 1 476 3 is_stmt 1 view .LVU338
 1451               	.LBB114:
 1452               	.LBI114:
 167:../../os/oslib/src/chfactory.c ****                                     dyn_list_t *dlp) {
 1453               		.loc 1 167 13 view .LVU339
 1454               	.LBB115:
 170:../../os/oslib/src/chfactory.c ****   chDbgAssert(dep->refs > (ucnt_t)0, "invalid references number");
 1455               		.loc 1 170 3 view .LVU340
 170:../../os/oslib/src/chfactory.c ****   chDbgAssert(dep->refs > (ucnt_t)0, "invalid references number");
 1456               		.loc 1 170 3 view .LVU341
 170:../../os/oslib/src/chfactory.c ****   chDbgAssert(dep->refs > (ucnt_t)0, "invalid references number");
 1457               		.loc 1 170 3 discriminator 5 view .LVU342
 171:../../os/oslib/src/chfactory.c **** 
 1458               		.loc 1 171 3 view .LVU343
 171:../../os/oslib/src/chfactory.c **** 
 1459               		.loc 1 171 3 view .LVU344
 171:../../os/oslib/src/chfactory.c **** 
 1460               		.loc 1 171 3 discriminator 5 view .LVU345
 173:../../os/oslib/src/chfactory.c ****   if (dep->refs == (ucnt_t)0) {
 1461               		.loc 1 173 3 view .LVU346
 173:../../os/oslib/src/chfactory.c ****   if (dep->refs == (ucnt_t)0) {
 1462               		.loc 1 173 12 is_stmt 0 view .LVU347
 1463 0012 8A81      		ldd r24,Y+2
 1464 0014 8150      		subi r24,lo8(-(-1))
 1465 0016 8A83      		std Y+2,r24
 174:../../os/oslib/src/chfactory.c ****     dep = dyn_list_unlink(dep, dlp);
 1466               		.loc 1 174 3 is_stmt 1 view .LVU348
 174:../../os/oslib/src/chfactory.c ****     dep = dyn_list_unlink(dep, dlp);
 1467               		.loc 1 174 6 is_stmt 0 view .LVU349
 1468 0018 8111      		cpse r24,__zero_reg__
 1469 001a 00C0      		rjmp .L93
 1470               	.LBB116:
 1471               	.LBB117:
 1472               	.LBB118:
 1473               	.LBB119:
 118:../../os/oslib/src/chfactory.c **** 
 1474               		.loc 1 118 18 view .LVU350
 1475 001c E0E0      		ldi r30,lo8(ch_factory+11)
 1476 001e F0E0      		ldi r31,hi8(ch_factory+11)
 1477               	.LVL136:
 118:../../os/oslib/src/chfactory.c **** 
 1478               		.loc 1 118 18 view .LVU351
 1479 0020 00C0      		rjmp .L94
 1480               	.LVL137:
 1481               	.L96:
 122:../../os/oslib/src/chfactory.c ****       /* Found.*/
 1482               		.loc 1 122 5 is_stmt 1 view .LVU352
 122:../../os/oslib/src/chfactory.c ****       /* Found.*/
 1483               		.loc 1 122 8 is_stmt 0 view .LVU353
 1484 0022 CE17      		cp r28,r30
 1485 0024 DF07      		cpc r29,r31
 1486 0026 01F0      		breq .L98
 1487               	.LVL138:
 1488               	.L94:
 121:../../os/oslib/src/chfactory.c ****     if (prev->next == element) {
 1489               		.loc 1 121 21 is_stmt 1 view .LVU354
 1490 0028 DF01      		movw r26,r30
 121:../../os/oslib/src/chfactory.c ****     if (prev->next == element) {
 1491               		.loc 1 121 14 is_stmt 0 view .LVU355
 1492 002a 0190      		ld __tmp_reg__,Z+
 1493 002c F081      		ld r31,Z
 1494 002e E02D      		mov r30,__tmp_reg__
 1495               	.LVL139:
 121:../../os/oslib/src/chfactory.c ****     if (prev->next == element) {
 1496               		.loc 1 121 21 view .LVU356
 1497 0030 80E0      		ldi r24,hi8(ch_factory+11)
 1498 0032 E030      		cpi r30,lo8(ch_factory+11)
 1499 0034 F807      		cpc r31,r24
 1500 0036 01F4      		brne .L96
 132:../../os/oslib/src/chfactory.c **** }
 1501               		.loc 1 132 10 view .LVU357
 1502 0038 E0E0      		ldi r30,0
 1503 003a F0E0      		ldi r31,0
 1504               	.L95:
 1505               	.LVL140:
 132:../../os/oslib/src/chfactory.c **** }
 1506               		.loc 1 132 10 view .LVU358
 1507               	.LBE119:
 1508               	.LBE118:
 176:../../os/oslib/src/chfactory.c ****   }
 1509               		.loc 1 176 5 is_stmt 1 view .LVU359
 1510 003c CF01      		movw r24,r30
 1511 003e 0E94 0000 		call chHeapFree
 1512               	.LVL141:
 1513               	.L93:
 176:../../os/oslib/src/chfactory.c ****   }
 1514               		.loc 1 176 5 is_stmt 0 view .LVU360
 1515               	.LBE117:
 1516               	.LBE116:
 1517               	.LBE115:
 1518               	.LBE114:
 477:../../os/oslib/src/chfactory.c **** 
 478:../../os/oslib/src/chfactory.c ****   F_UNLOCK();
 1519               		.loc 1 478 3 is_stmt 1 view .LVU361
 1520 0042 80E0      		ldi r24,lo8(ch_factory)
 1521 0044 90E0      		ldi r25,hi8(ch_factory)
 1522               	/* epilogue start */
 479:../../os/oslib/src/chfactory.c **** }
 1523               		.loc 1 479 1 is_stmt 0 view .LVU362
 1524 0046 DF91      		pop r29
 1525 0048 CF91      		pop r28
 1526               	.LVL142:
 478:../../os/oslib/src/chfactory.c **** }
 1527               		.loc 1 478 3 view .LVU363
 1528 004a 0C94 0000 		jmp chSemSignal
 1529               	.LVL143:
 1530               	.L98:
 1531               	.LBB125:
 1532               	.LBB124:
 1533               	.LBB123:
 1534               	.LBB122:
 1535               	.LBB121:
 1536               	.LBB120:
 124:../../os/oslib/src/chfactory.c ****       return element;
 1537               		.loc 1 124 7 is_stmt 1 view .LVU364
 124:../../os/oslib/src/chfactory.c ****       return element;
 1538               		.loc 1 124 27 is_stmt 0 view .LVU365
 1539 004e 8081      		ld r24,Z
 1540 0050 9181      		ldd r25,Z+1
 124:../../os/oslib/src/chfactory.c ****       return element;
 1541               		.loc 1 124 18 view .LVU366
 1542 0052 8D93      		st X+,r24
 1543 0054 9C93      		st X,r25
 125:../../os/oslib/src/chfactory.c ****     }
 1544               		.loc 1 125 7 is_stmt 1 view .LVU367
 125:../../os/oslib/src/chfactory.c ****     }
 1545               		.loc 1 125 14 is_stmt 0 view .LVU368
 1546 0056 00C0      		rjmp .L95
 1547               	.LBE120:
 1548               	.LBE121:
 1549               	.LBE122:
 1550               	.LBE123:
 1551               	.LBE124:
 1552               	.LBE125:
 1553               		.cfi_endproc
 1554               	.LFE114:
 1556               		.section	.text.chFactoryCreateSemaphore,"ax",@progbits
 1557               	.global	chFactoryCreateSemaphore
 1559               	chFactoryCreateSemaphore:
 1560               	.LVL144:
 1561               	.LFB115:
 480:../../os/oslib/src/chfactory.c **** #endif /* CH_CFG_FACTORY_GENERIC_BUFFERS = TRUE */
 481:../../os/oslib/src/chfactory.c **** 
 482:../../os/oslib/src/chfactory.c **** #if (CH_CFG_FACTORY_SEMAPHORES == TRUE) || defined(__DOXIGEN__)
 483:../../os/oslib/src/chfactory.c **** /**
 484:../../os/oslib/src/chfactory.c ****  * @brief   Creates a dynamic semaphore object.
 485:../../os/oslib/src/chfactory.c ****  * @post    A reference to the dynamic semaphore object is returned and the
 486:../../os/oslib/src/chfactory.c ****  *          reference counter is initialized to one.
 487:../../os/oslib/src/chfactory.c ****  * @post    The dynamic semaphore object is initialized and ready to use.
 488:../../os/oslib/src/chfactory.c ****  *
 489:../../os/oslib/src/chfactory.c ****  * @param[in] name      name to be assigned to the new dynamic semaphore object
 490:../../os/oslib/src/chfactory.c ****  * @param[in] n         dynamic semaphore object counter initialization value
 491:../../os/oslib/src/chfactory.c ****  *
 492:../../os/oslib/src/chfactory.c ****  * @return              The reference to the created dynamic semaphore object.
 493:../../os/oslib/src/chfactory.c ****  * @retval NULL         if the dynamic semaphore object cannot be allocated or
 494:../../os/oslib/src/chfactory.c ****  *                      a dynamic semaphore with the same name exists.
 495:../../os/oslib/src/chfactory.c ****  *
 496:../../os/oslib/src/chfactory.c ****  * @api
 497:../../os/oslib/src/chfactory.c ****  */
 498:../../os/oslib/src/chfactory.c **** dyn_semaphore_t *chFactoryCreateSemaphore(const char *name, cnt_t n) {
 1562               		.loc 1 498 70 is_stmt 1 view -0
 1563               		.cfi_startproc
 1564               		.loc 1 498 70 is_stmt 0 view .LVU370
 1565 0000 FF92      		push r15
 1566               	.LCFI52:
 1567               		.cfi_def_cfa_offset 3
 1568               		.cfi_offset 15, -2
 1569 0002 0F93      		push r16
 1570               	.LCFI53:
 1571               		.cfi_def_cfa_offset 4
 1572               		.cfi_offset 16, -3
 1573 0004 1F93      		push r17
 1574               	.LCFI54:
 1575               		.cfi_def_cfa_offset 5
 1576               		.cfi_offset 17, -4
 1577 0006 CF93      		push r28
 1578               	.LCFI55:
 1579               		.cfi_def_cfa_offset 6
 1580               		.cfi_offset 28, -5
 1581 0008 DF93      		push r29
 1582               	.LCFI56:
 1583               		.cfi_def_cfa_offset 7
 1584               		.cfi_offset 29, -6
 1585               	/* prologue: function */
 1586               	/* frame size = 0 */
 1587               	/* stack size = 5 */
 1588               	.L__stack_usage = 5
 1589 000a 8C01      		movw r16,r24
 1590 000c F62E      		mov r15,r22
 499:../../os/oslib/src/chfactory.c ****   dyn_semaphore_t *dsp;
 1591               		.loc 1 499 3 is_stmt 1 view .LVU371
 500:../../os/oslib/src/chfactory.c **** 
 501:../../os/oslib/src/chfactory.c ****   F_LOCK();
 1592               		.loc 1 501 3 view .LVU372
 1593 000e 60E0      		ldi r22,0
 1594 0010 70E0      		ldi r23,0
 1595               	.LVL145:
 1596               		.loc 1 501 3 is_stmt 0 view .LVU373
 1597 0012 80E0      		ldi r24,lo8(ch_factory)
 1598 0014 90E0      		ldi r25,hi8(ch_factory)
 1599               	.LVL146:
 1600               		.loc 1 501 3 view .LVU374
 1601 0016 0E94 0000 		call chSemWaitTimeout
 1602               	.LVL147:
 502:../../os/oslib/src/chfactory.c **** 
 503:../../os/oslib/src/chfactory.c ****   dsp = (dyn_semaphore_t *)dyn_create_object_pool(name,
 1603               		.loc 1 503 3 is_stmt 1 view .LVU375
 1604               		.loc 1 503 28 is_stmt 0 view .LVU376
 1605 001a 40E0      		ldi r20,lo8(ch_factory+15)
 1606 001c 50E0      		ldi r21,hi8(ch_factory+15)
 1607 001e 60E0      		ldi r22,lo8(ch_factory+13)
 1608 0020 70E0      		ldi r23,hi8(ch_factory+13)
 1609 0022 C801      		movw r24,r16
 1610 0024 0E94 0000 		call dyn_create_object_pool
 1611               	.LVL148:
 1612 0028 EC01      		movw r28,r24
 1613               	.LVL149:
 504:../../os/oslib/src/chfactory.c ****                                                   &ch_factory.sem_list,
 505:../../os/oslib/src/chfactory.c ****                                                   &ch_factory.sem_pool);
 506:../../os/oslib/src/chfactory.c ****   if (dsp != NULL) {
 1614               		.loc 1 506 3 is_stmt 1 view .LVU377
 1615               		.loc 1 506 6 is_stmt 0 view .LVU378
 1616 002a 892B      		or r24,r25
 1617 002c 01F0      		breq .L100
 507:../../os/oslib/src/chfactory.c ****     /* Initializing semaphore object dataa.*/
 508:../../os/oslib/src/chfactory.c ****     chSemObjectInit(&dsp->sem, n);
 1618               		.loc 1 508 5 is_stmt 1 view .LVU379
 1619 002e FB86      		std Y+11,r15
 1620               	.L100:
 509:../../os/oslib/src/chfactory.c ****   }
 510:../../os/oslib/src/chfactory.c **** 
 511:../../os/oslib/src/chfactory.c ****   F_UNLOCK();
 1621               		.loc 1 511 3 view .LVU380
 1622 0030 80E0      		ldi r24,lo8(ch_factory)
 1623 0032 90E0      		ldi r25,hi8(ch_factory)
 1624               	.LVL150:
 1625               		.loc 1 511 3 is_stmt 0 view .LVU381
 1626 0034 0E94 0000 		call chSemSignal
 1627               	.LVL151:
 512:../../os/oslib/src/chfactory.c **** 
 513:../../os/oslib/src/chfactory.c ****   return dsp;
 1628               		.loc 1 513 3 is_stmt 1 view .LVU382
 514:../../os/oslib/src/chfactory.c **** }
 1629               		.loc 1 514 1 is_stmt 0 view .LVU383
 1630 0038 CE01      		movw r24,r28
 1631               	/* epilogue start */
 1632 003a DF91      		pop r29
 1633 003c CF91      		pop r28
 1634               	.LVL152:
 1635               		.loc 1 514 1 view .LVU384
 1636 003e 1F91      		pop r17
 1637 0040 0F91      		pop r16
 1638               	.LVL153:
 1639               		.loc 1 514 1 view .LVU385
 1640 0042 FF90      		pop r15
 1641               	.LVL154:
 1642               		.loc 1 514 1 view .LVU386
 1643 0044 0895      		ret
 1644               		.cfi_endproc
 1645               	.LFE115:
 1647               		.section	.text.chFactoryFindSemaphore,"ax",@progbits
 1648               	.global	chFactoryFindSemaphore
 1650               	chFactoryFindSemaphore:
 1651               	.LVL155:
 1652               	.LFB116:
 515:../../os/oslib/src/chfactory.c **** 
 516:../../os/oslib/src/chfactory.c **** /**
 517:../../os/oslib/src/chfactory.c ****  * @brief   Retrieves a dynamic semaphore object.
 518:../../os/oslib/src/chfactory.c ****  * @post    A reference to the dynamic semaphore object is returned with the
 519:../../os/oslib/src/chfactory.c ****  *          reference counter increased by one.
 520:../../os/oslib/src/chfactory.c ****  *
 521:../../os/oslib/src/chfactory.c ****  * @param[in] name      name of the dynamic semaphore object
 522:../../os/oslib/src/chfactory.c ****  *
 523:../../os/oslib/src/chfactory.c ****  * @return              The reference to the found dynamic semaphore object.
 524:../../os/oslib/src/chfactory.c ****  * @retval NULL         if a dynamic semaphore object with the specified name
 525:../../os/oslib/src/chfactory.c ****  *                      does not exist.
 526:../../os/oslib/src/chfactory.c ****  *
 527:../../os/oslib/src/chfactory.c ****  * @api
 528:../../os/oslib/src/chfactory.c ****  */
 529:../../os/oslib/src/chfactory.c **** dyn_semaphore_t *chFactoryFindSemaphore(const char *name) {
 1653               		.loc 1 529 59 is_stmt 1 view -0
 1654               		.cfi_startproc
 1655               		.loc 1 529 59 is_stmt 0 view .LVU388
 1656 0000 0F93      		push r16
 1657               	.LCFI57:
 1658               		.cfi_def_cfa_offset 3
 1659               		.cfi_offset 16, -2
 1660 0002 1F93      		push r17
 1661               	.LCFI58:
 1662               		.cfi_def_cfa_offset 4
 1663               		.cfi_offset 17, -3
 1664 0004 CF93      		push r28
 1665               	.LCFI59:
 1666               		.cfi_def_cfa_offset 5
 1667               		.cfi_offset 28, -4
 1668 0006 DF93      		push r29
 1669               	.LCFI60:
 1670               		.cfi_def_cfa_offset 6
 1671               		.cfi_offset 29, -5
 1672               	/* prologue: function */
 1673               	/* frame size = 0 */
 1674               	/* stack size = 4 */
 1675               	.L__stack_usage = 4
 1676 0008 8C01      		movw r16,r24
 530:../../os/oslib/src/chfactory.c ****   dyn_semaphore_t *dsp;
 1677               		.loc 1 530 3 is_stmt 1 view .LVU389
 531:../../os/oslib/src/chfactory.c **** 
 532:../../os/oslib/src/chfactory.c ****   F_LOCK();
 1678               		.loc 1 532 3 view .LVU390
 1679 000a 60E0      		ldi r22,0
 1680 000c 70E0      		ldi r23,0
 1681 000e 80E0      		ldi r24,lo8(ch_factory)
 1682 0010 90E0      		ldi r25,hi8(ch_factory)
 1683               	.LVL156:
 1684               		.loc 1 532 3 is_stmt 0 view .LVU391
 1685 0012 0E94 0000 		call chSemWaitTimeout
 1686               	.LVL157:
 533:../../os/oslib/src/chfactory.c **** 
 534:../../os/oslib/src/chfactory.c ****   dsp = (dyn_semaphore_t *)dyn_find_object(name, &ch_factory.sem_list);
 1687               		.loc 1 534 3 is_stmt 1 view .LVU392
 1688               	.LBB130:
 1689               	.LBI130:
 227:../../os/oslib/src/chfactory.c ****   dyn_element_t *dep;
 1690               		.loc 1 227 23 view .LVU393
 1691               	.LBB131:
 228:../../os/oslib/src/chfactory.c **** 
 1692               		.loc 1 228 3 view .LVU394
 230:../../os/oslib/src/chfactory.c **** 
 1693               		.loc 1 230 3 view .LVU395
 230:../../os/oslib/src/chfactory.c **** 
 1694               		.loc 1 230 3 view .LVU396
 230:../../os/oslib/src/chfactory.c **** 
 1695               		.loc 1 230 3 discriminator 5 view .LVU397
 233:../../os/oslib/src/chfactory.c ****   if (dep != NULL) {
 1696               		.loc 1 233 3 view .LVU398
 1697               	.LBB132:
 1698               	.LBI132:
 103:../../os/oslib/src/chfactory.c ****   dyn_element_t *p = dlp->next;
 1699               		.loc 1 103 23 view .LVU399
 1700               	.LBB133:
 104:../../os/oslib/src/chfactory.c **** 
 1701               		.loc 1 104 3 view .LVU400
 104:../../os/oslib/src/chfactory.c **** 
 1702               		.loc 1 104 18 is_stmt 0 view .LVU401
 1703 0016 C091 0000 		lds r28,ch_factory+13
 1704 001a D091 0000 		lds r29,ch_factory+13+1
 1705               	.LVL158:
 106:../../os/oslib/src/chfactory.c ****     if (strncmp(p->name, name, CH_CFG_FACTORY_MAX_NAMES_LENGTH) == 0) {
 1706               		.loc 1 106 3 is_stmt 1 view .LVU402
 106:../../os/oslib/src/chfactory.c ****     if (strncmp(p->name, name, CH_CFG_FACTORY_MAX_NAMES_LENGTH) == 0) {
 1707               		.loc 1 106 12 view .LVU403
 1708 001e 80E0      		ldi r24,hi8(ch_factory+13)
 1709 0020 C030      		cpi r28,lo8(ch_factory+13)
 1710 0022 D807      		cpc r29,r24
 1711 0024 01F4      		brne .L107
 1712 0026 00C0      		rjmp .L111
 1713               	.L113:
 110:../../os/oslib/src/chfactory.c ****   }
 1714               		.loc 1 110 5 view .LVU404
 110:../../os/oslib/src/chfactory.c ****   }
 1715               		.loc 1 110 7 is_stmt 0 view .LVU405
 1716 0028 0990      		ld __tmp_reg__,Y+
 1717 002a D881      		ld r29,Y
 1718 002c C02D      		mov r28,__tmp_reg__
 1719               	.LVL159:
 106:../../os/oslib/src/chfactory.c ****     if (strncmp(p->name, name, CH_CFG_FACTORY_MAX_NAMES_LENGTH) == 0) {
 1720               		.loc 1 106 12 is_stmt 1 view .LVU406
 1721 002e 80E0      		ldi r24,hi8(ch_factory+13)
 1722 0030 C030      		cpi r28,lo8(ch_factory+13)
 1723 0032 D807      		cpc r29,r24
 1724 0034 01F0      		breq .L111
 1725               	.L107:
 107:../../os/oslib/src/chfactory.c ****       return p;
 1726               		.loc 1 107 5 view .LVU407
 107:../../os/oslib/src/chfactory.c ****       return p;
 1727               		.loc 1 107 9 is_stmt 0 view .LVU408
 1728 0036 48E0      		ldi r20,lo8(8)
 1729 0038 50E0      		ldi r21,0
 1730 003a B801      		movw r22,r16
 1731 003c CE01      		movw r24,r28
 1732 003e 0396      		adiw r24,3
 1733 0040 0E94 0000 		call strncmp
 1734               	.LVL160:
 107:../../os/oslib/src/chfactory.c ****       return p;
 1735               		.loc 1 107 8 discriminator 1 view .LVU409
 1736 0044 892B      		or r24,r25
 1737 0046 01F4      		brne .L113
 1738               	.LVL161:
 107:../../os/oslib/src/chfactory.c ****       return p;
 1739               		.loc 1 107 8 discriminator 1 view .LVU410
 1740               	.LBE133:
 1741               	.LBE132:
 234:../../os/oslib/src/chfactory.c ****     /* Increasing references counter.*/
 1742               		.loc 1 234 3 is_stmt 1 view .LVU411
 234:../../os/oslib/src/chfactory.c ****     /* Increasing references counter.*/
 1743               		.loc 1 234 6 is_stmt 0 view .LVU412
 1744 0048 2097      		sbiw r28,0
 1745 004a 01F0      		breq .L105
 236:../../os/oslib/src/chfactory.c ****   }
 1746               		.loc 1 236 5 is_stmt 1 view .LVU413
 236:../../os/oslib/src/chfactory.c ****   }
 1747               		.loc 1 236 14 is_stmt 0 view .LVU414
 1748 004c 8A81      		ldd r24,Y+2
 1749 004e 8F5F      		subi r24,lo8(-(1))
 1750 0050 8A83      		std Y+2,r24
 1751               	.LVL162:
 1752               	.L105:
 239:../../os/oslib/src/chfactory.c **** }
 1753               		.loc 1 239 3 is_stmt 1 view .LVU415
 239:../../os/oslib/src/chfactory.c **** }
 1754               		.loc 1 239 3 is_stmt 0 view .LVU416
 1755               	.LBE131:
 1756               	.LBE130:
 535:../../os/oslib/src/chfactory.c **** 
 536:../../os/oslib/src/chfactory.c ****   F_UNLOCK();
 1757               		.loc 1 536 3 is_stmt 1 view .LVU417
 1758 0052 80E0      		ldi r24,lo8(ch_factory)
 1759 0054 90E0      		ldi r25,hi8(ch_factory)
 1760 0056 0E94 0000 		call chSemSignal
 1761               	.LVL163:
 537:../../os/oslib/src/chfactory.c **** 
 538:../../os/oslib/src/chfactory.c ****   return dsp;
 1762               		.loc 1 538 3 view .LVU418
 539:../../os/oslib/src/chfactory.c **** }
 1763               		.loc 1 539 1 is_stmt 0 view .LVU419
 1764 005a CE01      		movw r24,r28
 1765               	/* epilogue start */
 1766 005c DF91      		pop r29
 1767 005e CF91      		pop r28
 1768               	.LVL164:
 1769               		.loc 1 539 1 view .LVU420
 1770 0060 1F91      		pop r17
 1771 0062 0F91      		pop r16
 1772               	.LVL165:
 1773               		.loc 1 539 1 view .LVU421
 1774 0064 0895      		ret
 1775               	.LVL166:
 1776               	.L111:
 1777               	.LBB137:
 1778               	.LBB136:
 1779               	.LBB135:
 1780               	.LBB134:
 113:../../os/oslib/src/chfactory.c **** }
 1781               		.loc 1 113 10 view .LVU422
 1782 0066 C0E0      		ldi r28,0
 1783 0068 D0E0      		ldi r29,0
 1784               	.LVL167:
 113:../../os/oslib/src/chfactory.c **** }
 1785               		.loc 1 113 10 view .LVU423
 1786 006a 00C0      		rjmp .L105
 1787               	.LBE134:
 1788               	.LBE135:
 1789               	.LBE136:
 1790               	.LBE137:
 1791               		.cfi_endproc
 1792               	.LFE116:
 1794               		.section	.text.chFactoryReleaseSemaphore,"ax",@progbits
 1795               	.global	chFactoryReleaseSemaphore
 1797               	chFactoryReleaseSemaphore:
 1798               	.LVL168:
 1799               	.LFB117:
 540:../../os/oslib/src/chfactory.c **** 
 541:../../os/oslib/src/chfactory.c **** /**
 542:../../os/oslib/src/chfactory.c ****  * @brief   Releases a dynamic semaphore object.
 543:../../os/oslib/src/chfactory.c ****  * @details The reference counter of the dynamic semaphore object is decreased
 544:../../os/oslib/src/chfactory.c ****  *          by one, if reaches zero then the dynamic semaphore object memory
 545:../../os/oslib/src/chfactory.c ****  *          is freed.
 546:../../os/oslib/src/chfactory.c ****  *
 547:../../os/oslib/src/chfactory.c ****  * @param[in] dsp       dynamic semaphore object reference
 548:../../os/oslib/src/chfactory.c ****  *
 549:../../os/oslib/src/chfactory.c ****  * @api
 550:../../os/oslib/src/chfactory.c ****  */
 551:../../os/oslib/src/chfactory.c **** void chFactoryReleaseSemaphore(dyn_semaphore_t *dsp) {
 1800               		.loc 1 551 54 is_stmt 1 view -0
 1801               		.cfi_startproc
 1802               		.loc 1 551 54 is_stmt 0 view .LVU425
 1803 0000 CF93      		push r28
 1804               	.LCFI61:
 1805               		.cfi_def_cfa_offset 3
 1806               		.cfi_offset 28, -2
 1807 0002 DF93      		push r29
 1808               	.LCFI62:
 1809               		.cfi_def_cfa_offset 4
 1810               		.cfi_offset 29, -3
 1811               	/* prologue: function */
 1812               	/* frame size = 0 */
 1813               	/* stack size = 2 */
 1814               	.L__stack_usage = 2
 1815 0004 EC01      		movw r28,r24
 552:../../os/oslib/src/chfactory.c **** 
 553:../../os/oslib/src/chfactory.c ****   F_LOCK();
 1816               		.loc 1 553 3 is_stmt 1 view .LVU426
 1817 0006 60E0      		ldi r22,0
 1818 0008 70E0      		ldi r23,0
 1819 000a 80E0      		ldi r24,lo8(ch_factory)
 1820 000c 90E0      		ldi r25,hi8(ch_factory)
 1821               	.LVL169:
 1822               		.loc 1 553 3 is_stmt 0 view .LVU427
 1823 000e 0E94 0000 		call chSemWaitTimeout
 1824               	.LVL170:
 554:../../os/oslib/src/chfactory.c **** 
 555:../../os/oslib/src/chfactory.c ****   dyn_release_object_pool(&dsp->element,
 1825               		.loc 1 555 3 is_stmt 1 view .LVU428
 1826               	.LBB146:
 1827               	.LBI146:
 212:../../os/oslib/src/chfactory.c ****                                     dyn_list_t *dlp,
 1828               		.loc 1 212 13 view .LVU429
 1829               	.LBB147:
 216:../../os/oslib/src/chfactory.c ****   chDbgAssert(dep->refs > (ucnt_t)0, "invalid references number");
 1830               		.loc 1 216 3 view .LVU430
 216:../../os/oslib/src/chfactory.c ****   chDbgAssert(dep->refs > (ucnt_t)0, "invalid references number");
 1831               		.loc 1 216 3 view .LVU431
 216:../../os/oslib/src/chfactory.c ****   chDbgAssert(dep->refs > (ucnt_t)0, "invalid references number");
 1832               		.loc 1 216 3 discriminator 5 view .LVU432
 217:../../os/oslib/src/chfactory.c **** 
 1833               		.loc 1 217 3 view .LVU433
 217:../../os/oslib/src/chfactory.c **** 
 1834               		.loc 1 217 3 view .LVU434
 217:../../os/oslib/src/chfactory.c **** 
 1835               		.loc 1 217 3 discriminator 5 view .LVU435
 219:../../os/oslib/src/chfactory.c ****   if (dep->refs == (ucnt_t)0) {
 1836               		.loc 1 219 3 view .LVU436
 219:../../os/oslib/src/chfactory.c ****   if (dep->refs == (ucnt_t)0) {
 1837               		.loc 1 219 12 is_stmt 0 view .LVU437
 1838 0012 8A81      		ldd r24,Y+2
 1839 0014 8150      		subi r24,lo8(-(-1))
 1840 0016 8A83      		std Y+2,r24
 220:../../os/oslib/src/chfactory.c ****     dep = dyn_list_unlink(dep, dlp);
 1841               		.loc 1 220 3 is_stmt 1 view .LVU438
 220:../../os/oslib/src/chfactory.c ****     dep = dyn_list_unlink(dep, dlp);
 1842               		.loc 1 220 6 is_stmt 0 view .LVU439
 1843 0018 8111      		cpse r24,__zero_reg__
 1844 001a 00C0      		rjmp .L116
 1845               	.LBB148:
 1846               	.LBB149:
 1847               	.LBB150:
 1848               	.LBB151:
 118:../../os/oslib/src/chfactory.c **** 
 1849               		.loc 1 118 18 view .LVU440
 1850 001c E0E0      		ldi r30,lo8(ch_factory+13)
 1851 001e F0E0      		ldi r31,hi8(ch_factory+13)
 1852               	.LVL171:
 118:../../os/oslib/src/chfactory.c **** 
 1853               		.loc 1 118 18 view .LVU441
 1854 0020 00C0      		rjmp .L117
 1855               	.LVL172:
 1856               	.L119:
 122:../../os/oslib/src/chfactory.c ****       /* Found.*/
 1857               		.loc 1 122 5 is_stmt 1 view .LVU442
 122:../../os/oslib/src/chfactory.c ****       /* Found.*/
 1858               		.loc 1 122 8 is_stmt 0 view .LVU443
 1859 0022 CE17      		cp r28,r30
 1860 0024 DF07      		cpc r29,r31
 1861 0026 01F0      		breq .L121
 1862               	.LVL173:
 1863               	.L117:
 121:../../os/oslib/src/chfactory.c ****     if (prev->next == element) {
 1864               		.loc 1 121 21 is_stmt 1 view .LVU444
 1865 0028 DF01      		movw r26,r30
 121:../../os/oslib/src/chfactory.c ****     if (prev->next == element) {
 1866               		.loc 1 121 14 is_stmt 0 view .LVU445
 1867 002a 0190      		ld __tmp_reg__,Z+
 1868 002c F081      		ld r31,Z
 1869 002e E02D      		mov r30,__tmp_reg__
 1870               	.LVL174:
 121:../../os/oslib/src/chfactory.c ****     if (prev->next == element) {
 1871               		.loc 1 121 21 view .LVU446
 1872 0030 80E0      		ldi r24,hi8(ch_factory+13)
 1873 0032 E030      		cpi r30,lo8(ch_factory+13)
 1874 0034 F807      		cpc r31,r24
 1875 0036 01F4      		brne .L119
 132:../../os/oslib/src/chfactory.c **** }
 1876               		.loc 1 132 10 view .LVU447
 1877 0038 E0E0      		ldi r30,0
 1878 003a F0E0      		ldi r31,0
 1879               	.L118:
 1880               	.LVL175:
 132:../../os/oslib/src/chfactory.c **** }
 1881               		.loc 1 132 10 view .LVU448
 1882               	.LBE151:
 1883               	.LBE150:
 222:../../os/oslib/src/chfactory.c ****   }
 1884               		.loc 1 222 5 is_stmt 1 view .LVU449
 1885 003c BF01      		movw r22,r30
 1886 003e 80E0      		ldi r24,lo8(ch_factory+15)
 1887 0040 90E0      		ldi r25,hi8(ch_factory+15)
 1888               	.LVL176:
 222:../../os/oslib/src/chfactory.c ****   }
 1889               		.loc 1 222 5 is_stmt 0 view .LVU450
 1890 0042 0E94 0000 		call chPoolFree
 1891               	.LVL177:
 1892               	.L116:
 222:../../os/oslib/src/chfactory.c ****   }
 1893               		.loc 1 222 5 view .LVU451
 1894               	.LBE149:
 1895               	.LBE148:
 1896               	.LBE147:
 1897               	.LBE146:
 556:../../os/oslib/src/chfactory.c ****                           &ch_factory.sem_list,
 557:../../os/oslib/src/chfactory.c ****                           &ch_factory.sem_pool);
 558:../../os/oslib/src/chfactory.c **** 
 559:../../os/oslib/src/chfactory.c ****   F_UNLOCK();
 1898               		.loc 1 559 3 is_stmt 1 view .LVU452
 1899 0046 80E0      		ldi r24,lo8(ch_factory)
 1900 0048 90E0      		ldi r25,hi8(ch_factory)
 1901               	/* epilogue start */
 560:../../os/oslib/src/chfactory.c **** }
 1902               		.loc 1 560 1 is_stmt 0 view .LVU453
 1903 004a DF91      		pop r29
 1904 004c CF91      		pop r28
 1905               	.LVL178:
 559:../../os/oslib/src/chfactory.c **** }
 1906               		.loc 1 559 3 view .LVU454
 1907 004e 0C94 0000 		jmp chSemSignal
 1908               	.LVL179:
 1909               	.L121:
 1910               	.LBB157:
 1911               	.LBB156:
 1912               	.LBB155:
 1913               	.LBB154:
 1914               	.LBB153:
 1915               	.LBB152:
 124:../../os/oslib/src/chfactory.c ****       return element;
 1916               		.loc 1 124 7 is_stmt 1 view .LVU455
 124:../../os/oslib/src/chfactory.c ****       return element;
 1917               		.loc 1 124 27 is_stmt 0 view .LVU456
 1918 0052 8081      		ld r24,Z
 1919 0054 9181      		ldd r25,Z+1
 124:../../os/oslib/src/chfactory.c ****       return element;
 1920               		.loc 1 124 18 view .LVU457
 1921 0056 8D93      		st X+,r24
 1922 0058 9C93      		st X,r25
 125:../../os/oslib/src/chfactory.c ****     }
 1923               		.loc 1 125 7 is_stmt 1 view .LVU458
 125:../../os/oslib/src/chfactory.c ****     }
 1924               		.loc 1 125 14 is_stmt 0 view .LVU459
 1925 005a 00C0      		rjmp .L118
 1926               	.LBE152:
 1927               	.LBE153:
 1928               	.LBE154:
 1929               	.LBE155:
 1930               	.LBE156:
 1931               	.LBE157:
 1932               		.cfi_endproc
 1933               	.LFE117:
 1935               		.section	.text.chFactoryCreateMailbox,"ax",@progbits
 1936               	.global	chFactoryCreateMailbox
 1938               	chFactoryCreateMailbox:
 1939               	.LVL180:
 1940               	.LFB118:
 561:../../os/oslib/src/chfactory.c **** #endif /* CH_CFG_FACTORY_SEMAPHORES = TRUE */
 562:../../os/oslib/src/chfactory.c **** 
 563:../../os/oslib/src/chfactory.c **** #if (CH_CFG_FACTORY_MAILBOXES == TRUE) || defined(__DOXIGEN__)
 564:../../os/oslib/src/chfactory.c **** /**
 565:../../os/oslib/src/chfactory.c ****  * @brief   Creates a dynamic mailbox object.
 566:../../os/oslib/src/chfactory.c ****  * @post    A reference to the dynamic mailbox object is returned and the
 567:../../os/oslib/src/chfactory.c ****  *          reference counter is initialized to one.
 568:../../os/oslib/src/chfactory.c ****  * @post    The dynamic mailbox object is initialized and ready to use.
 569:../../os/oslib/src/chfactory.c ****  *
 570:../../os/oslib/src/chfactory.c ****  * @param[in] name      name to be assigned to the new dynamic mailbox object
 571:../../os/oslib/src/chfactory.c ****  * @param[in] n         mailbox buffer size as number of messages
 572:../../os/oslib/src/chfactory.c ****  *
 573:../../os/oslib/src/chfactory.c ****  * @return              The reference to the created dynamic mailbox object.
 574:../../os/oslib/src/chfactory.c ****  * @retval NULL         if the dynamic mailbox object cannot be allocated or
 575:../../os/oslib/src/chfactory.c ****  *                      a dynamic mailbox object with the same name exists.
 576:../../os/oslib/src/chfactory.c ****  *
 577:../../os/oslib/src/chfactory.c ****  * @api
 578:../../os/oslib/src/chfactory.c ****  */
 579:../../os/oslib/src/chfactory.c **** dyn_mailbox_t *chFactoryCreateMailbox(const char *name, size_t n) {
 1941               		.loc 1 579 67 is_stmt 1 view -0
 1942               		.cfi_startproc
 1943               		.loc 1 579 67 is_stmt 0 view .LVU461
 1944 0000 EF92      		push r14
 1945               	.LCFI63:
 1946               		.cfi_def_cfa_offset 3
 1947               		.cfi_offset 14, -2
 1948 0002 FF92      		push r15
 1949               	.LCFI64:
 1950               		.cfi_def_cfa_offset 4
 1951               		.cfi_offset 15, -3
 1952 0004 0F93      		push r16
 1953               	.LCFI65:
 1954               		.cfi_def_cfa_offset 5
 1955               		.cfi_offset 16, -4
 1956 0006 1F93      		push r17
 1957               	.LCFI66:
 1958               		.cfi_def_cfa_offset 6
 1959               		.cfi_offset 17, -5
 1960 0008 CF93      		push r28
 1961               	.LCFI67:
 1962               		.cfi_def_cfa_offset 7
 1963               		.cfi_offset 28, -6
 1964 000a DF93      		push r29
 1965               	.LCFI68:
 1966               		.cfi_def_cfa_offset 8
 1967               		.cfi_offset 29, -7
 1968               	/* prologue: function */
 1969               	/* frame size = 0 */
 1970               	/* stack size = 6 */
 1971               	.L__stack_usage = 6
 1972 000c 8C01      		movw r16,r24
 1973 000e 7B01      		movw r14,r22
 580:../../os/oslib/src/chfactory.c ****   dyn_mailbox_t *dmp;
 1974               		.loc 1 580 3 is_stmt 1 view .LVU462
 581:../../os/oslib/src/chfactory.c **** 
 582:../../os/oslib/src/chfactory.c ****   F_LOCK();
 1975               		.loc 1 582 3 view .LVU463
 1976 0010 60E0      		ldi r22,0
 1977 0012 70E0      		ldi r23,0
 1978               	.LVL181:
 1979               		.loc 1 582 3 is_stmt 0 view .LVU464
 1980 0014 80E0      		ldi r24,lo8(ch_factory)
 1981 0016 90E0      		ldi r25,hi8(ch_factory)
 1982               	.LVL182:
 1983               		.loc 1 582 3 view .LVU465
 1984 0018 0E94 0000 		call chSemWaitTimeout
 1985               	.LVL183:
 583:../../os/oslib/src/chfactory.c **** 
 584:../../os/oslib/src/chfactory.c ****   dmp = (dyn_mailbox_t *)dyn_create_object_heap(name,
 1986               		.loc 1 584 3 is_stmt 1 view .LVU466
 585:../../os/oslib/src/chfactory.c ****                                                 &ch_factory.mbx_list,
 586:../../os/oslib/src/chfactory.c ****                                                 sizeof (dyn_mailbox_t) +
 1987               		.loc 1 586 72 is_stmt 0 view .LVU467
 1988 001c A701      		movw r20,r14
 1989 001e 445F      		subi r20,-12
 1990 0020 5F4F      		sbci r21,-1
 584:../../os/oslib/src/chfactory.c ****                                                 &ch_factory.mbx_list,
 1991               		.loc 1 584 26 view .LVU468
 1992 0022 440F      		lsl r20
 1993 0024 551F      		rol r21
 1994 0026 24E0      		ldi r18,lo8(4)
 1995 0028 30E0      		ldi r19,0
 1996 002a 60E0      		ldi r22,lo8(ch_factory+23)
 1997 002c 70E0      		ldi r23,hi8(ch_factory+23)
 1998 002e C801      		movw r24,r16
 1999 0030 0E94 0000 		call dyn_create_object_heap
 2000               	.LVL184:
 2001 0034 EC01      		movw r28,r24
 2002               	.LVL185:
 587:../../os/oslib/src/chfactory.c ****                                                 (n * sizeof (msg_t)),
 588:../../os/oslib/src/chfactory.c ****                                                 CH_HEAP_ALIGNMENT);
 589:../../os/oslib/src/chfactory.c ****   if (dmp != NULL) {
 2003               		.loc 1 589 3 is_stmt 1 view .LVU469
 2004               		.loc 1 589 6 is_stmt 0 view .LVU470
 2005 0036 0097      		sbiw r24,0
 2006 0038 01F0      		breq .L123
 590:../../os/oslib/src/chfactory.c ****     /* Initializing mailbox object data.*/
 591:../../os/oslib/src/chfactory.c ****     chMBObjectInit(&dmp->mbx, (msg_t *)(dmp + 1), n);
 2007               		.loc 1 591 5 is_stmt 1 view .LVU471
 2008 003a A701      		movw r20,r14
 2009 003c BC01      		movw r22,r24
 2010 003e 685E      		subi r22,-24
 2011 0040 7F4F      		sbci r23,-1
 2012 0042 0B96      		adiw r24,11
 2013               	.LVL186:
 2014               		.loc 1 591 5 is_stmt 0 view .LVU472
 2015 0044 0E94 0000 		call chMBObjectInit
 2016               	.LVL187:
 2017               	.L123:
 592:../../os/oslib/src/chfactory.c ****   }
 593:../../os/oslib/src/chfactory.c **** 
 594:../../os/oslib/src/chfactory.c ****   F_UNLOCK();
 2018               		.loc 1 594 3 is_stmt 1 view .LVU473
 2019 0048 80E0      		ldi r24,lo8(ch_factory)
 2020 004a 90E0      		ldi r25,hi8(ch_factory)
 2021 004c 0E94 0000 		call chSemSignal
 2022               	.LVL188:
 595:../../os/oslib/src/chfactory.c **** 
 596:../../os/oslib/src/chfactory.c ****   return dmp;
 2023               		.loc 1 596 3 view .LVU474
 597:../../os/oslib/src/chfactory.c **** }
 2024               		.loc 1 597 1 is_stmt 0 view .LVU475
 2025 0050 CE01      		movw r24,r28
 2026               	/* epilogue start */
 2027 0052 DF91      		pop r29
 2028 0054 CF91      		pop r28
 2029               	.LVL189:
 2030               		.loc 1 597 1 view .LVU476
 2031 0056 1F91      		pop r17
 2032 0058 0F91      		pop r16
 2033               	.LVL190:
 2034               		.loc 1 597 1 view .LVU477
 2035 005a FF90      		pop r15
 2036 005c EF90      		pop r14
 2037               	.LVL191:
 2038               		.loc 1 597 1 view .LVU478
 2039 005e 0895      		ret
 2040               		.cfi_endproc
 2041               	.LFE118:
 2043               		.section	.text.chFactoryFindMailbox,"ax",@progbits
 2044               	.global	chFactoryFindMailbox
 2046               	chFactoryFindMailbox:
 2047               	.LVL192:
 2048               	.LFB119:
 598:../../os/oslib/src/chfactory.c **** 
 599:../../os/oslib/src/chfactory.c **** /**
 600:../../os/oslib/src/chfactory.c ****  * @brief   Retrieves a dynamic mailbox object.
 601:../../os/oslib/src/chfactory.c ****  * @post    A reference to the dynamic mailbox object is returned with the
 602:../../os/oslib/src/chfactory.c ****  *          reference counter increased by one.
 603:../../os/oslib/src/chfactory.c ****  *
 604:../../os/oslib/src/chfactory.c ****  * @param[in] name      name of the dynamic mailbox object
 605:../../os/oslib/src/chfactory.c ****  *
 606:../../os/oslib/src/chfactory.c ****  * @return              The reference to the found dynamic mailbox object.
 607:../../os/oslib/src/chfactory.c ****  * @retval NULL         if a dynamic mailbox object with the specified name
 608:../../os/oslib/src/chfactory.c ****  *                      does not exist.
 609:../../os/oslib/src/chfactory.c ****  *
 610:../../os/oslib/src/chfactory.c ****  * @api
 611:../../os/oslib/src/chfactory.c ****  */
 612:../../os/oslib/src/chfactory.c **** dyn_mailbox_t *chFactoryFindMailbox(const char *name) {
 2049               		.loc 1 612 55 is_stmt 1 view -0
 2050               		.cfi_startproc
 2051               		.loc 1 612 55 is_stmt 0 view .LVU480
 2052 0000 0F93      		push r16
 2053               	.LCFI69:
 2054               		.cfi_def_cfa_offset 3
 2055               		.cfi_offset 16, -2
 2056 0002 1F93      		push r17
 2057               	.LCFI70:
 2058               		.cfi_def_cfa_offset 4
 2059               		.cfi_offset 17, -3
 2060 0004 CF93      		push r28
 2061               	.LCFI71:
 2062               		.cfi_def_cfa_offset 5
 2063               		.cfi_offset 28, -4
 2064 0006 DF93      		push r29
 2065               	.LCFI72:
 2066               		.cfi_def_cfa_offset 6
 2067               		.cfi_offset 29, -5
 2068               	/* prologue: function */
 2069               	/* frame size = 0 */
 2070               	/* stack size = 4 */
 2071               	.L__stack_usage = 4
 2072 0008 8C01      		movw r16,r24
 613:../../os/oslib/src/chfactory.c ****   dyn_mailbox_t *dmp;
 2073               		.loc 1 613 3 is_stmt 1 view .LVU481
 614:../../os/oslib/src/chfactory.c **** 
 615:../../os/oslib/src/chfactory.c ****   F_LOCK();
 2074               		.loc 1 615 3 view .LVU482
 2075 000a 60E0      		ldi r22,0
 2076 000c 70E0      		ldi r23,0
 2077 000e 80E0      		ldi r24,lo8(ch_factory)
 2078 0010 90E0      		ldi r25,hi8(ch_factory)
 2079               	.LVL193:
 2080               		.loc 1 615 3 is_stmt 0 view .LVU483
 2081 0012 0E94 0000 		call chSemWaitTimeout
 2082               	.LVL194:
 616:../../os/oslib/src/chfactory.c **** 
 617:../../os/oslib/src/chfactory.c ****   dmp = (dyn_mailbox_t *)dyn_find_object(name, &ch_factory.mbx_list);
 2083               		.loc 1 617 3 is_stmt 1 view .LVU484
 2084               	.LBB162:
 2085               	.LBI162:
 227:../../os/oslib/src/chfactory.c ****   dyn_element_t *dep;
 2086               		.loc 1 227 23 view .LVU485
 2087               	.LBB163:
 228:../../os/oslib/src/chfactory.c **** 
 2088               		.loc 1 228 3 view .LVU486
 230:../../os/oslib/src/chfactory.c **** 
 2089               		.loc 1 230 3 view .LVU487
 230:../../os/oslib/src/chfactory.c **** 
 2090               		.loc 1 230 3 view .LVU488
 230:../../os/oslib/src/chfactory.c **** 
 2091               		.loc 1 230 3 discriminator 5 view .LVU489
 233:../../os/oslib/src/chfactory.c ****   if (dep != NULL) {
 2092               		.loc 1 233 3 view .LVU490
 2093               	.LBB164:
 2094               	.LBI164:
 103:../../os/oslib/src/chfactory.c ****   dyn_element_t *p = dlp->next;
 2095               		.loc 1 103 23 view .LVU491
 2096               	.LBB165:
 104:../../os/oslib/src/chfactory.c **** 
 2097               		.loc 1 104 3 view .LVU492
 104:../../os/oslib/src/chfactory.c **** 
 2098               		.loc 1 104 18 is_stmt 0 view .LVU493
 2099 0016 C091 0000 		lds r28,ch_factory+23
 2100 001a D091 0000 		lds r29,ch_factory+23+1
 2101               	.LVL195:
 106:../../os/oslib/src/chfactory.c ****     if (strncmp(p->name, name, CH_CFG_FACTORY_MAX_NAMES_LENGTH) == 0) {
 2102               		.loc 1 106 3 is_stmt 1 view .LVU494
 106:../../os/oslib/src/chfactory.c ****     if (strncmp(p->name, name, CH_CFG_FACTORY_MAX_NAMES_LENGTH) == 0) {
 2103               		.loc 1 106 12 view .LVU495
 2104 001e 80E0      		ldi r24,hi8(ch_factory+23)
 2105 0020 C030      		cpi r28,lo8(ch_factory+23)
 2106 0022 D807      		cpc r29,r24
 2107 0024 01F4      		brne .L130
 2108 0026 00C0      		rjmp .L134
 2109               	.L136:
 110:../../os/oslib/src/chfactory.c ****   }
 2110               		.loc 1 110 5 view .LVU496
 110:../../os/oslib/src/chfactory.c ****   }
 2111               		.loc 1 110 7 is_stmt 0 view .LVU497
 2112 0028 0990      		ld __tmp_reg__,Y+
 2113 002a D881      		ld r29,Y
 2114 002c C02D      		mov r28,__tmp_reg__
 2115               	.LVL196:
 106:../../os/oslib/src/chfactory.c ****     if (strncmp(p->name, name, CH_CFG_FACTORY_MAX_NAMES_LENGTH) == 0) {
 2116               		.loc 1 106 12 is_stmt 1 view .LVU498
 2117 002e 80E0      		ldi r24,hi8(ch_factory+23)
 2118 0030 C030      		cpi r28,lo8(ch_factory+23)
 2119 0032 D807      		cpc r29,r24
 2120 0034 01F0      		breq .L134
 2121               	.L130:
 107:../../os/oslib/src/chfactory.c ****       return p;
 2122               		.loc 1 107 5 view .LVU499
 107:../../os/oslib/src/chfactory.c ****       return p;
 2123               		.loc 1 107 9 is_stmt 0 view .LVU500
 2124 0036 48E0      		ldi r20,lo8(8)
 2125 0038 50E0      		ldi r21,0
 2126 003a B801      		movw r22,r16
 2127 003c CE01      		movw r24,r28
 2128 003e 0396      		adiw r24,3
 2129 0040 0E94 0000 		call strncmp
 2130               	.LVL197:
 107:../../os/oslib/src/chfactory.c ****       return p;
 2131               		.loc 1 107 8 discriminator 1 view .LVU501
 2132 0044 892B      		or r24,r25
 2133 0046 01F4      		brne .L136
 2134               	.LVL198:
 107:../../os/oslib/src/chfactory.c ****       return p;
 2135               		.loc 1 107 8 discriminator 1 view .LVU502
 2136               	.LBE165:
 2137               	.LBE164:
 234:../../os/oslib/src/chfactory.c ****     /* Increasing references counter.*/
 2138               		.loc 1 234 3 is_stmt 1 view .LVU503
 234:../../os/oslib/src/chfactory.c ****     /* Increasing references counter.*/
 2139               		.loc 1 234 6 is_stmt 0 view .LVU504
 2140 0048 2097      		sbiw r28,0
 2141 004a 01F0      		breq .L128
 236:../../os/oslib/src/chfactory.c ****   }
 2142               		.loc 1 236 5 is_stmt 1 view .LVU505
 236:../../os/oslib/src/chfactory.c ****   }
 2143               		.loc 1 236 14 is_stmt 0 view .LVU506
 2144 004c 8A81      		ldd r24,Y+2
 2145 004e 8F5F      		subi r24,lo8(-(1))
 2146 0050 8A83      		std Y+2,r24
 2147               	.LVL199:
 2148               	.L128:
 239:../../os/oslib/src/chfactory.c **** }
 2149               		.loc 1 239 3 is_stmt 1 view .LVU507
 239:../../os/oslib/src/chfactory.c **** }
 2150               		.loc 1 239 3 is_stmt 0 view .LVU508
 2151               	.LBE163:
 2152               	.LBE162:
 618:../../os/oslib/src/chfactory.c **** 
 619:../../os/oslib/src/chfactory.c ****   F_UNLOCK();
 2153               		.loc 1 619 3 is_stmt 1 view .LVU509
 2154 0052 80E0      		ldi r24,lo8(ch_factory)
 2155 0054 90E0      		ldi r25,hi8(ch_factory)
 2156 0056 0E94 0000 		call chSemSignal
 2157               	.LVL200:
 620:../../os/oslib/src/chfactory.c **** 
 621:../../os/oslib/src/chfactory.c ****   return dmp;
 2158               		.loc 1 621 3 view .LVU510
 622:../../os/oslib/src/chfactory.c **** }
 2159               		.loc 1 622 1 is_stmt 0 view .LVU511
 2160 005a CE01      		movw r24,r28
 2161               	/* epilogue start */
 2162 005c DF91      		pop r29
 2163 005e CF91      		pop r28
 2164               	.LVL201:
 2165               		.loc 1 622 1 view .LVU512
 2166 0060 1F91      		pop r17
 2167 0062 0F91      		pop r16
 2168               	.LVL202:
 2169               		.loc 1 622 1 view .LVU513
 2170 0064 0895      		ret
 2171               	.LVL203:
 2172               	.L134:
 2173               	.LBB169:
 2174               	.LBB168:
 2175               	.LBB167:
 2176               	.LBB166:
 113:../../os/oslib/src/chfactory.c **** }
 2177               		.loc 1 113 10 view .LVU514
 2178 0066 C0E0      		ldi r28,0
 2179 0068 D0E0      		ldi r29,0
 2180               	.LVL204:
 113:../../os/oslib/src/chfactory.c **** }
 2181               		.loc 1 113 10 view .LVU515
 2182 006a 00C0      		rjmp .L128
 2183               	.LBE166:
 2184               	.LBE167:
 2185               	.LBE168:
 2186               	.LBE169:
 2187               		.cfi_endproc
 2188               	.LFE119:
 2190               		.section	.text.chFactoryReleaseMailbox,"ax",@progbits
 2191               	.global	chFactoryReleaseMailbox
 2193               	chFactoryReleaseMailbox:
 2194               	.LVL205:
 2195               	.LFB120:
 623:../../os/oslib/src/chfactory.c **** 
 624:../../os/oslib/src/chfactory.c **** /**
 625:../../os/oslib/src/chfactory.c ****  * @brief   Releases a dynamic mailbox object.
 626:../../os/oslib/src/chfactory.c ****  * @details The reference counter of the dynamic mailbox object is decreased
 627:../../os/oslib/src/chfactory.c ****  *          by one, if reaches zero then the dynamic mailbox object memory
 628:../../os/oslib/src/chfactory.c ****  *          is freed.
 629:../../os/oslib/src/chfactory.c ****  *
 630:../../os/oslib/src/chfactory.c ****  * @param[in] dmp       dynamic mailbox object reference
 631:../../os/oslib/src/chfactory.c ****  *
 632:../../os/oslib/src/chfactory.c ****  * @api
 633:../../os/oslib/src/chfactory.c ****  */
 634:../../os/oslib/src/chfactory.c **** void chFactoryReleaseMailbox(dyn_mailbox_t *dmp) {
 2196               		.loc 1 634 50 is_stmt 1 view -0
 2197               		.cfi_startproc
 2198               		.loc 1 634 50 is_stmt 0 view .LVU517
 2199 0000 CF93      		push r28
 2200               	.LCFI73:
 2201               		.cfi_def_cfa_offset 3
 2202               		.cfi_offset 28, -2
 2203 0002 DF93      		push r29
 2204               	.LCFI74:
 2205               		.cfi_def_cfa_offset 4
 2206               		.cfi_offset 29, -3
 2207               	/* prologue: function */
 2208               	/* frame size = 0 */
 2209               	/* stack size = 2 */
 2210               	.L__stack_usage = 2
 2211 0004 EC01      		movw r28,r24
 635:../../os/oslib/src/chfactory.c **** 
 636:../../os/oslib/src/chfactory.c ****   F_LOCK();
 2212               		.loc 1 636 3 is_stmt 1 view .LVU518
 2213 0006 60E0      		ldi r22,0
 2214 0008 70E0      		ldi r23,0
 2215 000a 80E0      		ldi r24,lo8(ch_factory)
 2216 000c 90E0      		ldi r25,hi8(ch_factory)
 2217               	.LVL206:
 2218               		.loc 1 636 3 is_stmt 0 view .LVU519
 2219 000e 0E94 0000 		call chSemWaitTimeout
 2220               	.LVL207:
 637:../../os/oslib/src/chfactory.c **** 
 638:../../os/oslib/src/chfactory.c ****   dyn_release_object_heap(&dmp->element, &ch_factory.mbx_list);
 2221               		.loc 1 638 3 is_stmt 1 view .LVU520
 2222               	.LBB178:
 2223               	.LBI178:
 167:../../os/oslib/src/chfactory.c ****                                     dyn_list_t *dlp) {
 2224               		.loc 1 167 13 view .LVU521
 2225               	.LBB179:
 170:../../os/oslib/src/chfactory.c ****   chDbgAssert(dep->refs > (ucnt_t)0, "invalid references number");
 2226               		.loc 1 170 3 view .LVU522
 170:../../os/oslib/src/chfactory.c ****   chDbgAssert(dep->refs > (ucnt_t)0, "invalid references number");
 2227               		.loc 1 170 3 view .LVU523
 170:../../os/oslib/src/chfactory.c ****   chDbgAssert(dep->refs > (ucnt_t)0, "invalid references number");
 2228               		.loc 1 170 3 discriminator 5 view .LVU524
 171:../../os/oslib/src/chfactory.c **** 
 2229               		.loc 1 171 3 view .LVU525
 171:../../os/oslib/src/chfactory.c **** 
 2230               		.loc 1 171 3 view .LVU526
 171:../../os/oslib/src/chfactory.c **** 
 2231               		.loc 1 171 3 discriminator 5 view .LVU527
 173:../../os/oslib/src/chfactory.c ****   if (dep->refs == (ucnt_t)0) {
 2232               		.loc 1 173 3 view .LVU528
 173:../../os/oslib/src/chfactory.c ****   if (dep->refs == (ucnt_t)0) {
 2233               		.loc 1 173 12 is_stmt 0 view .LVU529
 2234 0012 8A81      		ldd r24,Y+2
 2235 0014 8150      		subi r24,lo8(-(-1))
 2236 0016 8A83      		std Y+2,r24
 174:../../os/oslib/src/chfactory.c ****     dep = dyn_list_unlink(dep, dlp);
 2237               		.loc 1 174 3 is_stmt 1 view .LVU530
 174:../../os/oslib/src/chfactory.c ****     dep = dyn_list_unlink(dep, dlp);
 2238               		.loc 1 174 6 is_stmt 0 view .LVU531
 2239 0018 8111      		cpse r24,__zero_reg__
 2240 001a 00C0      		rjmp .L139
 2241               	.LBB180:
 2242               	.LBB181:
 2243               	.LBB182:
 2244               	.LBB183:
 118:../../os/oslib/src/chfactory.c **** 
 2245               		.loc 1 118 18 view .LVU532
 2246 001c E0E0      		ldi r30,lo8(ch_factory+23)
 2247 001e F0E0      		ldi r31,hi8(ch_factory+23)
 2248               	.LVL208:
 118:../../os/oslib/src/chfactory.c **** 
 2249               		.loc 1 118 18 view .LVU533
 2250 0020 00C0      		rjmp .L140
 2251               	.LVL209:
 2252               	.L142:
 122:../../os/oslib/src/chfactory.c ****       /* Found.*/
 2253               		.loc 1 122 5 is_stmt 1 view .LVU534
 122:../../os/oslib/src/chfactory.c ****       /* Found.*/
 2254               		.loc 1 122 8 is_stmt 0 view .LVU535
 2255 0022 CE17      		cp r28,r30
 2256 0024 DF07      		cpc r29,r31
 2257 0026 01F0      		breq .L144
 2258               	.LVL210:
 2259               	.L140:
 121:../../os/oslib/src/chfactory.c ****     if (prev->next == element) {
 2260               		.loc 1 121 21 is_stmt 1 view .LVU536
 2261 0028 DF01      		movw r26,r30
 121:../../os/oslib/src/chfactory.c ****     if (prev->next == element) {
 2262               		.loc 1 121 14 is_stmt 0 view .LVU537
 2263 002a 0190      		ld __tmp_reg__,Z+
 2264 002c F081      		ld r31,Z
 2265 002e E02D      		mov r30,__tmp_reg__
 2266               	.LVL211:
 121:../../os/oslib/src/chfactory.c ****     if (prev->next == element) {
 2267               		.loc 1 121 21 view .LVU538
 2268 0030 80E0      		ldi r24,hi8(ch_factory+23)
 2269 0032 E030      		cpi r30,lo8(ch_factory+23)
 2270 0034 F807      		cpc r31,r24
 2271 0036 01F4      		brne .L142
 132:../../os/oslib/src/chfactory.c **** }
 2272               		.loc 1 132 10 view .LVU539
 2273 0038 E0E0      		ldi r30,0
 2274 003a F0E0      		ldi r31,0
 2275               	.L141:
 2276               	.LVL212:
 132:../../os/oslib/src/chfactory.c **** }
 2277               		.loc 1 132 10 view .LVU540
 2278               	.LBE183:
 2279               	.LBE182:
 176:../../os/oslib/src/chfactory.c ****   }
 2280               		.loc 1 176 5 is_stmt 1 view .LVU541
 2281 003c CF01      		movw r24,r30
 2282 003e 0E94 0000 		call chHeapFree
 2283               	.LVL213:
 2284               	.L139:
 176:../../os/oslib/src/chfactory.c ****   }
 2285               		.loc 1 176 5 is_stmt 0 view .LVU542
 2286               	.LBE181:
 2287               	.LBE180:
 2288               	.LBE179:
 2289               	.LBE178:
 639:../../os/oslib/src/chfactory.c **** 
 640:../../os/oslib/src/chfactory.c ****   F_UNLOCK();
 2290               		.loc 1 640 3 is_stmt 1 view .LVU543
 2291 0042 80E0      		ldi r24,lo8(ch_factory)
 2292 0044 90E0      		ldi r25,hi8(ch_factory)
 2293               	/* epilogue start */
 641:../../os/oslib/src/chfactory.c **** }
 2294               		.loc 1 641 1 is_stmt 0 view .LVU544
 2295 0046 DF91      		pop r29
 2296 0048 CF91      		pop r28
 2297               	.LVL214:
 640:../../os/oslib/src/chfactory.c **** }
 2298               		.loc 1 640 3 view .LVU545
 2299 004a 0C94 0000 		jmp chSemSignal
 2300               	.LVL215:
 2301               	.L144:
 2302               	.LBB189:
 2303               	.LBB188:
 2304               	.LBB187:
 2305               	.LBB186:
 2306               	.LBB185:
 2307               	.LBB184:
 124:../../os/oslib/src/chfactory.c ****       return element;
 2308               		.loc 1 124 7 is_stmt 1 view .LVU546
 124:../../os/oslib/src/chfactory.c ****       return element;
 2309               		.loc 1 124 27 is_stmt 0 view .LVU547
 2310 004e 8081      		ld r24,Z
 2311 0050 9181      		ldd r25,Z+1
 124:../../os/oslib/src/chfactory.c ****       return element;
 2312               		.loc 1 124 18 view .LVU548
 2313 0052 8D93      		st X+,r24
 2314 0054 9C93      		st X,r25
 125:../../os/oslib/src/chfactory.c ****     }
 2315               		.loc 1 125 7 is_stmt 1 view .LVU549
 125:../../os/oslib/src/chfactory.c ****     }
 2316               		.loc 1 125 14 is_stmt 0 view .LVU550
 2317 0056 00C0      		rjmp .L141
 2318               	.LBE184:
 2319               	.LBE185:
 2320               	.LBE186:
 2321               	.LBE187:
 2322               	.LBE188:
 2323               	.LBE189:
 2324               		.cfi_endproc
 2325               	.LFE120:
 2327               		.section	.text.chFactoryCreateObjectsFIFO,"ax",@progbits
 2328               	.global	chFactoryCreateObjectsFIFO
 2330               	chFactoryCreateObjectsFIFO:
 2331               	.LVL216:
 2332               	.LFB121:
 642:../../os/oslib/src/chfactory.c **** #endif /* CH_CFG_FACTORY_MAILBOXES = TRUE */
 643:../../os/oslib/src/chfactory.c **** 
 644:../../os/oslib/src/chfactory.c **** #if (CH_CFG_FACTORY_OBJ_FIFOS == TRUE) || defined(__DOXIGEN__)
 645:../../os/oslib/src/chfactory.c **** /**
 646:../../os/oslib/src/chfactory.c ****  * @brief   Creates a dynamic "objects FIFO" object.
 647:../../os/oslib/src/chfactory.c ****  * @post    A reference to the dynamic "objects FIFO" object is returned and
 648:../../os/oslib/src/chfactory.c ****  *          the reference counter is initialized to one.
 649:../../os/oslib/src/chfactory.c ****  * @post    The dynamic "objects FIFO" object is initialized and ready to use.
 650:../../os/oslib/src/chfactory.c ****  *
 651:../../os/oslib/src/chfactory.c ****  * @param[in] name      name to be assigned to the new dynamic "objects FIFO"
 652:../../os/oslib/src/chfactory.c ****  *                      object
 653:../../os/oslib/src/chfactory.c ****  * @param[in] objsize   size of objects
 654:../../os/oslib/src/chfactory.c ****  * @param[in] objn      number of objects available
 655:../../os/oslib/src/chfactory.c ****  * @param[in] objalign  required objects alignment
 656:../../os/oslib/src/chfactory.c ****  * @return              The reference to the created dynamic "objects FIFO"
 657:../../os/oslib/src/chfactory.c ****  *                      object.
 658:../../os/oslib/src/chfactory.c ****  * @retval NULL         if the dynamic "objects FIFO" object cannot be
 659:../../os/oslib/src/chfactory.c ****  *                      allocated or a dynamic "objects FIFO" object with
 660:../../os/oslib/src/chfactory.c ****  *                      the same name exists.
 661:../../os/oslib/src/chfactory.c ****  *
 662:../../os/oslib/src/chfactory.c ****  * @api
 663:../../os/oslib/src/chfactory.c ****  */
 664:../../os/oslib/src/chfactory.c **** dyn_objects_fifo_t *chFactoryCreateObjectsFIFO(const char *name,
 665:../../os/oslib/src/chfactory.c ****                                                size_t objsize,
 666:../../os/oslib/src/chfactory.c ****                                                size_t objn,
 667:../../os/oslib/src/chfactory.c ****                                                unsigned objalign) {
 2333               		.loc 1 667 67 is_stmt 1 view -0
 2334               		.cfi_startproc
 2335               		.loc 1 667 67 is_stmt 0 view .LVU552
 2336 0000 8F92      		push r8
 2337               	.LCFI75:
 2338               		.cfi_def_cfa_offset 3
 2339               		.cfi_offset 8, -2
 2340 0002 9F92      		push r9
 2341               	.LCFI76:
 2342               		.cfi_def_cfa_offset 4
 2343               		.cfi_offset 9, -3
 2344 0004 AF92      		push r10
 2345               	.LCFI77:
 2346               		.cfi_def_cfa_offset 5
 2347               		.cfi_offset 10, -4
 2348 0006 BF92      		push r11
 2349               	.LCFI78:
 2350               		.cfi_def_cfa_offset 6
 2351               		.cfi_offset 11, -5
 2352 0008 CF92      		push r12
 2353               	.LCFI79:
 2354               		.cfi_def_cfa_offset 7
 2355               		.cfi_offset 12, -6
 2356 000a DF92      		push r13
 2357               	.LCFI80:
 2358               		.cfi_def_cfa_offset 8
 2359               		.cfi_offset 13, -7
 2360 000c EF92      		push r14
 2361               	.LCFI81:
 2362               		.cfi_def_cfa_offset 9
 2363               		.cfi_offset 14, -8
 2364 000e FF92      		push r15
 2365               	.LCFI82:
 2366               		.cfi_def_cfa_offset 10
 2367               		.cfi_offset 15, -9
 2368 0010 0F93      		push r16
 2369               	.LCFI83:
 2370               		.cfi_def_cfa_offset 11
 2371               		.cfi_offset 16, -10
 2372 0012 1F93      		push r17
 2373               	.LCFI84:
 2374               		.cfi_def_cfa_offset 12
 2375               		.cfi_offset 17, -11
 2376 0014 CF93      		push r28
 2377               	.LCFI85:
 2378               		.cfi_def_cfa_offset 13
 2379               		.cfi_offset 28, -12
 2380 0016 DF93      		push r29
 2381               	.LCFI86:
 2382               		.cfi_def_cfa_offset 14
 2383               		.cfi_offset 29, -13
 2384               	/* prologue: function */
 2385               	/* frame size = 0 */
 2386               	/* stack size = 12 */
 2387               	.L__stack_usage = 12
 2388 0018 4C01      		movw r8,r24
 2389 001a 8B01      		movw r16,r22
 2390 001c 5A01      		movw r10,r20
 2391 001e 7901      		movw r14,r18
 668:../../os/oslib/src/chfactory.c ****   size_t size1, size2;
 2392               		.loc 1 668 3 is_stmt 1 view .LVU553
 669:../../os/oslib/src/chfactory.c ****   dyn_objects_fifo_t *dofp;
 2393               		.loc 1 669 3 view .LVU554
 670:../../os/oslib/src/chfactory.c **** 
 671:../../os/oslib/src/chfactory.c ****   F_LOCK();
 2394               		.loc 1 671 3 view .LVU555
 2395 0020 60E0      		ldi r22,0
 2396 0022 70E0      		ldi r23,0
 2397               	.LVL217:
 2398               		.loc 1 671 3 is_stmt 0 view .LVU556
 2399 0024 80E0      		ldi r24,lo8(ch_factory)
 2400 0026 90E0      		ldi r25,hi8(ch_factory)
 2401               	.LVL218:
 2402               		.loc 1 671 3 view .LVU557
 2403 0028 0E94 0000 		call chSemWaitTimeout
 2404               	.LVL219:
 672:../../os/oslib/src/chfactory.c **** 
 673:../../os/oslib/src/chfactory.c ****   /* Enforcing alignment for the objects array.*/
 674:../../os/oslib/src/chfactory.c ****   objsize = MEM_ALIGN_NEXT(objsize, objalign);
 2405               		.loc 1 674 3 is_stmt 1 view .LVU558
 2406               		.loc 1 674 13 is_stmt 0 view .LVU559
 2407 002c 0150      		subi r16,1
 2408 002e 1109      		sbc r17,__zero_reg__
 2409               	.LVL220:
 2410               		.loc 1 674 13 view .LVU560
 2411 0030 0E0D      		add r16,r14
 2412 0032 1F1D      		adc r17,r15
 2413               	.LVL221:
 2414               		.loc 1 674 13 view .LVU561
 2415 0034 8827      		clr r24
 2416 0036 9927      		clr r25
 2417 0038 8E19      		sub r24,r14
 2418 003a 9F09      		sbc r25,r15
 2419               		.loc 1 674 11 view .LVU562
 2420 003c 0823      		and r16,r24
 2421 003e 1923      		and r17,r25
 2422               	.LVL222:
 675:../../os/oslib/src/chfactory.c ****   size1   = MEM_ALIGN_NEXT(sizeof (dyn_objects_fifo_t) + (objn * sizeof (msg_t)),
 2423               		.loc 1 675 3 is_stmt 1 view .LVU563
 2424               		.loc 1 675 13 is_stmt 0 view .LVU564
 2425 0040 E501      		movw r28,r10
 2426 0042 CC0F      		lsl r28
 2427 0044 DD1F      		rol r29
 2428 0046 A096      		adiw r28,32
 2429 0048 CE0D      		add r28,r14
 2430 004a DF1D      		adc r29,r15
 2431               		.loc 1 675 11 view .LVU565
 2432 004c C823      		and r28,r24
 2433 004e D923      		and r29,r25
 2434               	.LVL223:
 676:../../os/oslib/src/chfactory.c ****                            objalign);
 677:../../os/oslib/src/chfactory.c ****   size2   = objn * objsize;
 2435               		.loc 1 677 3 is_stmt 1 view .LVU566
 678:../../os/oslib/src/chfactory.c **** 
 679:../../os/oslib/src/chfactory.c ****   /* Allocating the FIFO object with messages buffer and objects buffer.*/
 680:../../os/oslib/src/chfactory.c ****   dofp = (dyn_objects_fifo_t *)dyn_create_object_heap(name,
 2436               		.loc 1 680 3 view .LVU567
 677:../../os/oslib/src/chfactory.c **** 
 2437               		.loc 1 677 11 is_stmt 0 view .LVU568
 2438 0050 0A9D      		mul r16,r10
 2439 0052 A001      		movw r20,r0
 2440 0054 0B9D      		mul r16,r11
 2441 0056 500D      		add r21,r0
 2442 0058 1A9D      		mul r17,r10
 2443 005a 500D      		add r21,r0
 2444 005c 1124      		clr r1
 2445               	.LVL224:
 2446               		.loc 1 680 32 view .LVU569
 2447 005e 4C0F      		add r20,r28
 2448 0060 5D1F      		adc r21,r29
 2449               	.LVL225:
 2450               		.loc 1 680 32 view .LVU570
 2451 0062 9701      		movw r18,r14
 2452 0064 60E0      		ldi r22,lo8(ch_factory+25)
 2453 0066 70E0      		ldi r23,hi8(ch_factory+25)
 2454 0068 C401      		movw r24,r8
 2455 006a 0E94 0000 		call dyn_create_object_heap
 2456               	.LVL226:
 2457 006e 6C01      		movw r12,r24
 2458               	.LVL227:
 681:../../os/oslib/src/chfactory.c ****                                                       &ch_factory.fifo_list,
 682:../../os/oslib/src/chfactory.c ****                                                       size1 + size2,
 683:../../os/oslib/src/chfactory.c ****                                                       objalign);
 684:../../os/oslib/src/chfactory.c ****   if (dofp != NULL) {
 2459               		.loc 1 684 3 is_stmt 1 view .LVU571
 2460               		.loc 1 684 6 is_stmt 0 view .LVU572
 2461 0070 0097      		sbiw r24,0
 2462 0072 01F0      		breq .L146
 2463               	.LBB193:
 685:../../os/oslib/src/chfactory.c ****     msg_t *msgbuf = (msg_t *)(dofp + 1);
 2464               		.loc 1 685 5 is_stmt 1 view .LVU573
 2465               	.LVL228:
 686:../../os/oslib/src/chfactory.c ****     uint8_t *objbuf = (uint8_t *)dofp + size1;
 2466               		.loc 1 686 5 view .LVU574
 2467               		.loc 1 686 14 is_stmt 0 view .LVU575
 2468 0074 C80F      		add r28,r24
 2469 0076 D91F      		adc r29,r25
 2470               	.LVL229:
 687:../../os/oslib/src/chfactory.c **** 
 688:../../os/oslib/src/chfactory.c ****     /* Initializing mailbox object data.*/
 689:../../os/oslib/src/chfactory.c ****     chFifoObjectInitAligned(&dofp->fifo, objsize, objn, objalign,
 2471               		.loc 1 689 5 is_stmt 1 view .LVU576
 2472               	.LBB194:
 2473               	.LBI194:
 2474               		.file 4 "../../os/oslib/include/chobjfifos.h"
   1:../../os/oslib/include/chobjfifos.h **** /*
   2:../../os/oslib/include/chobjfifos.h ****     ChibiOS - Copyright (C) 2006,2007,2008,2009,2010,2011,2012,2013,2014,
   3:../../os/oslib/include/chobjfifos.h ****               2015,2016,2017,2018,2019,2020,2021 Giovanni Di Sirio.
   4:../../os/oslib/include/chobjfifos.h **** 
   5:../../os/oslib/include/chobjfifos.h ****     This file is part of ChibiOS.
   6:../../os/oslib/include/chobjfifos.h **** 
   7:../../os/oslib/include/chobjfifos.h ****     ChibiOS is free software; you can redistribute it and/or modify
   8:../../os/oslib/include/chobjfifos.h ****     it under the terms of the GNU General Public License as published by
   9:../../os/oslib/include/chobjfifos.h ****     the Free Software Foundation version 3 of the License.
  10:../../os/oslib/include/chobjfifos.h **** 
  11:../../os/oslib/include/chobjfifos.h ****     ChibiOS is distributed in the hope that it will be useful,
  12:../../os/oslib/include/chobjfifos.h ****     but WITHOUT ANY WARRANTY; without even the implied warranty of
  13:../../os/oslib/include/chobjfifos.h ****     MERCHANTABILITY or FITNESS FOR A PARTICULAR PURPOSE.  See the
  14:../../os/oslib/include/chobjfifos.h ****     GNU General Public License for more details.
  15:../../os/oslib/include/chobjfifos.h **** 
  16:../../os/oslib/include/chobjfifos.h ****     You should have received a copy of the GNU General Public License
  17:../../os/oslib/include/chobjfifos.h ****     along with this program.  If not, see <http://www.gnu.org/licenses/>.
  18:../../os/oslib/include/chobjfifos.h **** */
  19:../../os/oslib/include/chobjfifos.h **** 
  20:../../os/oslib/include/chobjfifos.h **** /**
  21:../../os/oslib/include/chobjfifos.h ****  * @file    oslib/include/chobjfifos.h
  22:../../os/oslib/include/chobjfifos.h ****  * @brief   Objects FIFO structures and macros.
  23:../../os/oslib/include/chobjfifos.h ****  * @details This module implements a generic FIFO queue of objects by
  24:../../os/oslib/include/chobjfifos.h ****  *          coupling a Guarded Memory Pool (for objects storage) and
  25:../../os/oslib/include/chobjfifos.h ****  *          a MailBox.<br>
  26:../../os/oslib/include/chobjfifos.h ****  *          On the sender side free objects are taken from the pool, filled
  27:../../os/oslib/include/chobjfifos.h ****  *          and then sent to the receiver, on the receiver side objects are
  28:../../os/oslib/include/chobjfifos.h ****  *          fetched, used and then returned to the pool.
  29:../../os/oslib/include/chobjfifos.h ****  *          Operations defined for object FIFOs:
  30:../../os/oslib/include/chobjfifos.h ****  *          - <b>Take</b>: An object is taken from the pool of the free
  31:../../os/oslib/include/chobjfifos.h ****  *            objects, can be blocking.
  32:../../os/oslib/include/chobjfifos.h ****  *          - <b>Return</b>: An object is returned to the pool of the
  33:../../os/oslib/include/chobjfifos.h ****  *            free objects, it is guaranteed to be non-blocking.
  34:../../os/oslib/include/chobjfifos.h ****  *          - <b>Send</b>: An object is sent through the mailbox, it is
  35:../../os/oslib/include/chobjfifos.h ****  *            guaranteed to be non-blocking
  36:../../os/oslib/include/chobjfifos.h ****  *          - <b>Receive</b>: An object is received from the mailbox,
  37:../../os/oslib/include/chobjfifos.h ****  *            can be blocking.
  38:../../os/oslib/include/chobjfifos.h ****  *          .
  39:../../os/oslib/include/chobjfifos.h ****  *
  40:../../os/oslib/include/chobjfifos.h ****  * @addtogroup oslib_objects_fifos
  41:../../os/oslib/include/chobjfifos.h ****  * @{
  42:../../os/oslib/include/chobjfifos.h ****  */
  43:../../os/oslib/include/chobjfifos.h **** 
  44:../../os/oslib/include/chobjfifos.h **** #ifndef CHOBJFIFOS_H
  45:../../os/oslib/include/chobjfifos.h **** #define CHOBJFIFOS_H
  46:../../os/oslib/include/chobjfifos.h **** 
  47:../../os/oslib/include/chobjfifos.h **** #if (CH_CFG_USE_OBJ_FIFOS == TRUE) || defined(__DOXYGEN__)
  48:../../os/oslib/include/chobjfifos.h **** 
  49:../../os/oslib/include/chobjfifos.h **** /*===========================================================================*/
  50:../../os/oslib/include/chobjfifos.h **** /* Module constants.                                                         */
  51:../../os/oslib/include/chobjfifos.h **** /*===========================================================================*/
  52:../../os/oslib/include/chobjfifos.h **** 
  53:../../os/oslib/include/chobjfifos.h **** /*===========================================================================*/
  54:../../os/oslib/include/chobjfifos.h **** /* Module pre-compile time settings.                                         */
  55:../../os/oslib/include/chobjfifos.h **** /*===========================================================================*/
  56:../../os/oslib/include/chobjfifos.h **** 
  57:../../os/oslib/include/chobjfifos.h **** /*===========================================================================*/
  58:../../os/oslib/include/chobjfifos.h **** /* Derived constants and error checks.                                       */
  59:../../os/oslib/include/chobjfifos.h **** /*===========================================================================*/
  60:../../os/oslib/include/chobjfifos.h **** 
  61:../../os/oslib/include/chobjfifos.h **** #if CH_CFG_USE_MEMPOOLS == FALSE
  62:../../os/oslib/include/chobjfifos.h **** #error "CH_CFG_USE_OBJ_FIFOS requires CH_CFG_USE_MEMPOOLS"
  63:../../os/oslib/include/chobjfifos.h **** #endif
  64:../../os/oslib/include/chobjfifos.h **** 
  65:../../os/oslib/include/chobjfifos.h **** #if CH_CFG_USE_SEMAPHORES == FALSE
  66:../../os/oslib/include/chobjfifos.h **** #error "CH_CFG_USE_OBJ_FIFOS requires CH_CFG_USE_SEMAPHORES"
  67:../../os/oslib/include/chobjfifos.h **** #endif
  68:../../os/oslib/include/chobjfifos.h **** 
  69:../../os/oslib/include/chobjfifos.h **** #if CH_CFG_USE_MAILBOXES == FALSE
  70:../../os/oslib/include/chobjfifos.h **** #error "CH_CFG_USE_OBJ_FIFOS requires CH_CFG_USE_MAILBOXES"
  71:../../os/oslib/include/chobjfifos.h **** #endif
  72:../../os/oslib/include/chobjfifos.h **** 
  73:../../os/oslib/include/chobjfifos.h **** /*===========================================================================*/
  74:../../os/oslib/include/chobjfifos.h **** /* Module data structures and types.                                         */
  75:../../os/oslib/include/chobjfifos.h **** /*===========================================================================*/
  76:../../os/oslib/include/chobjfifos.h **** 
  77:../../os/oslib/include/chobjfifos.h **** /**
  78:../../os/oslib/include/chobjfifos.h ****  * @brief   Type of an objects FIFO.
  79:../../os/oslib/include/chobjfifos.h ****  */
  80:../../os/oslib/include/chobjfifos.h **** typedef struct ch_objects_fifo {
  81:../../os/oslib/include/chobjfifos.h ****   /**
  82:../../os/oslib/include/chobjfifos.h ****    * @brief   Pool of the free objects.
  83:../../os/oslib/include/chobjfifos.h ****    */
  84:../../os/oslib/include/chobjfifos.h ****   guarded_memory_pool_t     free;
  85:../../os/oslib/include/chobjfifos.h ****   /**
  86:../../os/oslib/include/chobjfifos.h ****    * @brief   Mailbox of the sent objects.
  87:../../os/oslib/include/chobjfifos.h ****    */
  88:../../os/oslib/include/chobjfifos.h ****   mailbox_t                 mbx;
  89:../../os/oslib/include/chobjfifos.h **** } objects_fifo_t;
  90:../../os/oslib/include/chobjfifos.h **** 
  91:../../os/oslib/include/chobjfifos.h **** /*===========================================================================*/
  92:../../os/oslib/include/chobjfifos.h **** /* Module macros.                                                            */
  93:../../os/oslib/include/chobjfifos.h **** /*===========================================================================*/
  94:../../os/oslib/include/chobjfifos.h **** 
  95:../../os/oslib/include/chobjfifos.h **** /*===========================================================================*/
  96:../../os/oslib/include/chobjfifos.h **** /* External declarations.                                                    */
  97:../../os/oslib/include/chobjfifos.h **** /*===========================================================================*/
  98:../../os/oslib/include/chobjfifos.h **** 
  99:../../os/oslib/include/chobjfifos.h **** #ifdef __cplusplus
 100:../../os/oslib/include/chobjfifos.h **** extern "C" {
 101:../../os/oslib/include/chobjfifos.h **** #endif
 102:../../os/oslib/include/chobjfifos.h **** 
 103:../../os/oslib/include/chobjfifos.h **** #ifdef __cplusplus
 104:../../os/oslib/include/chobjfifos.h **** }
 105:../../os/oslib/include/chobjfifos.h **** #endif
 106:../../os/oslib/include/chobjfifos.h **** 
 107:../../os/oslib/include/chobjfifos.h **** /*===========================================================================*/
 108:../../os/oslib/include/chobjfifos.h **** /* Module inline functions.                                                  */
 109:../../os/oslib/include/chobjfifos.h **** /*===========================================================================*/
 110:../../os/oslib/include/chobjfifos.h **** 
 111:../../os/oslib/include/chobjfifos.h **** /**
 112:../../os/oslib/include/chobjfifos.h ****  * @brief   Initializes a FIFO object.
 113:../../os/oslib/include/chobjfifos.h ****  * @pre     The messages size must be a multiple of the alignment
 114:../../os/oslib/include/chobjfifos.h ****  *          requirement.
 115:../../os/oslib/include/chobjfifos.h ****  *
 116:../../os/oslib/include/chobjfifos.h ****  * @param[out] ofp      pointer to a @p objects_fifo_t structure
 117:../../os/oslib/include/chobjfifos.h ****  * @param[in] objsize   size of objects
 118:../../os/oslib/include/chobjfifos.h ****  * @param[in] objn      number of objects available
 119:../../os/oslib/include/chobjfifos.h ****  * @param[in] objalign  required objects alignment
 120:../../os/oslib/include/chobjfifos.h ****  * @param[in] objbuf    pointer to the buffer of objects, it must be able
 121:../../os/oslib/include/chobjfifos.h ****  *                      to hold @p objn objects of @p objsize size with
 122:../../os/oslib/include/chobjfifos.h ****  *                      @p objalign alignment
 123:../../os/oslib/include/chobjfifos.h ****  * @param[in] msgbuf    pointer to the buffer of messages, it must be able
 124:../../os/oslib/include/chobjfifos.h ****  *                      to hold @p objn messages
 125:../../os/oslib/include/chobjfifos.h ****  *
 126:../../os/oslib/include/chobjfifos.h ****  * @init
 127:../../os/oslib/include/chobjfifos.h ****  */
 128:../../os/oslib/include/chobjfifos.h **** static inline void chFifoObjectInitAligned(objects_fifo_t *ofp, size_t objsize,
 2475               		.loc 4 128 20 view .LVU577
 2476               	.LBB195:
 129:../../os/oslib/include/chobjfifos.h ****                                            size_t objn, unsigned objalign,
 130:../../os/oslib/include/chobjfifos.h ****                                            void *objbuf, msg_t *msgbuf) {
 131:../../os/oslib/include/chobjfifos.h **** 
 132:../../os/oslib/include/chobjfifos.h ****   chDbgCheck((objsize >= objalign) && ((objsize % objalign) == 0U));
 2477               		.loc 4 132 3 view .LVU578
 2478               		.loc 4 132 3 view .LVU579
 2479               		.loc 4 132 3 discriminator 7 view .LVU580
 133:../../os/oslib/include/chobjfifos.h **** 
 134:../../os/oslib/include/chobjfifos.h ****   chGuardedPoolObjectInitAligned(&ofp->free, objsize, objalign);
 2480               		.loc 4 134 3 view .LVU581
 2481 0078 A701      		movw r20,r14
 2482 007a B801      		movw r22,r16
 2483 007c 8C01      		movw r16,r24
 2484               	.LVL230:
 2485               		.loc 4 134 3 is_stmt 0 view .LVU582
 2486 007e 055F      		subi r16,-11
 2487 0080 1F4F      		sbci r17,-1
 2488               	.LVL231:
 2489               		.loc 4 134 3 view .LVU583
 2490 0082 C801      		movw r24,r16
 2491 0084 0E94 0000 		call chGuardedPoolObjectInitAligned
 2492               	.LVL232:
 135:../../os/oslib/include/chobjfifos.h ****   chGuardedPoolLoadArray(&ofp->free, objbuf, objn);
 2493               		.loc 4 135 3 is_stmt 1 view .LVU584
 2494 0088 A501      		movw r20,r10
 2495 008a BE01      		movw r22,r28
 2496 008c C801      		movw r24,r16
 2497 008e 0E94 0000 		call chGuardedPoolLoadArray
 2498               	.LVL233:
 136:../../os/oslib/include/chobjfifos.h ****   chMBObjectInit(&ofp->mbx, msgbuf, objn);
 2499               		.loc 4 136 3 view .LVU585
 2500 0092 A501      		movw r20,r10
 2501 0094 B601      		movw r22,r12
 2502 0096 6F5D      		subi r22,-33
 2503 0098 7F4F      		sbci r23,-1
 2504               	.LVL234:
 2505               		.loc 4 136 3 is_stmt 0 view .LVU586
 2506 009a C601      		movw r24,r12
 2507 009c 4496      		adiw r24,20
 2508 009e 0E94 0000 		call chMBObjectInit
 2509               	.LVL235:
 2510               	.L146:
 2511               		.loc 4 136 3 view .LVU587
 2512               	.LBE195:
 2513               	.LBE194:
 2514               	.LBE193:
 690:../../os/oslib/src/chfactory.c ****                             (void *)objbuf, msgbuf);
 691:../../os/oslib/src/chfactory.c ****   }
 692:../../os/oslib/src/chfactory.c **** 
 693:../../os/oslib/src/chfactory.c ****   F_UNLOCK();
 2515               		.loc 1 693 3 is_stmt 1 view .LVU588
 2516 00a2 80E0      		ldi r24,lo8(ch_factory)
 2517 00a4 90E0      		ldi r25,hi8(ch_factory)
 2518 00a6 0E94 0000 		call chSemSignal
 2519               	.LVL236:
 694:../../os/oslib/src/chfactory.c **** 
 695:../../os/oslib/src/chfactory.c ****   return dofp;
 2520               		.loc 1 695 3 view .LVU589
 696:../../os/oslib/src/chfactory.c **** }
 2521               		.loc 1 696 1 is_stmt 0 view .LVU590
 2522 00aa C601      		movw r24,r12
 2523               	/* epilogue start */
 2524 00ac DF91      		pop r29
 2525 00ae CF91      		pop r28
 2526 00b0 1F91      		pop r17
 2527 00b2 0F91      		pop r16
 2528 00b4 FF90      		pop r15
 2529 00b6 EF90      		pop r14
 2530               	.LVL237:
 2531               		.loc 1 696 1 view .LVU591
 2532 00b8 DF90      		pop r13
 2533 00ba CF90      		pop r12
 2534               	.LVL238:
 2535               		.loc 1 696 1 view .LVU592
 2536 00bc BF90      		pop r11
 2537 00be AF90      		pop r10
 2538               	.LVL239:
 2539               		.loc 1 696 1 view .LVU593
 2540 00c0 9F90      		pop r9
 2541 00c2 8F90      		pop r8
 2542               	.LVL240:
 2543               		.loc 1 696 1 view .LVU594
 2544 00c4 0895      		ret
 2545               		.cfi_endproc
 2546               	.LFE121:
 2548               		.section	.text.chFactoryFindObjectsFIFO,"ax",@progbits
 2549               	.global	chFactoryFindObjectsFIFO
 2551               	chFactoryFindObjectsFIFO:
 2552               	.LVL241:
 2553               	.LFB122:
 697:../../os/oslib/src/chfactory.c **** 
 698:../../os/oslib/src/chfactory.c **** /**
 699:../../os/oslib/src/chfactory.c ****  * @brief   Retrieves a dynamic "objects FIFO" object.
 700:../../os/oslib/src/chfactory.c ****  * @post    A reference to the dynamic "objects FIFO" object is returned with
 701:../../os/oslib/src/chfactory.c ****  *          the reference counter increased by one.
 702:../../os/oslib/src/chfactory.c ****  *
 703:../../os/oslib/src/chfactory.c ****  * @param[in] name      name of the dynamic "objects FIFO" object
 704:../../os/oslib/src/chfactory.c ****  *
 705:../../os/oslib/src/chfactory.c ****  * @return              The reference to the found dynamic "objects FIFO"
 706:../../os/oslib/src/chfactory.c ****  *                      object.
 707:../../os/oslib/src/chfactory.c ****  * @retval NULL         if a dynamic "objects FIFO" object with the specified
 708:../../os/oslib/src/chfactory.c ****  *                      name does not exist.
 709:../../os/oslib/src/chfactory.c ****  *
 710:../../os/oslib/src/chfactory.c ****  * @api
 711:../../os/oslib/src/chfactory.c ****  */
 712:../../os/oslib/src/chfactory.c **** dyn_objects_fifo_t *chFactoryFindObjectsFIFO(const char *name) {
 2554               		.loc 1 712 64 is_stmt 1 view -0
 2555               		.cfi_startproc
 2556               		.loc 1 712 64 is_stmt 0 view .LVU596
 2557 0000 0F93      		push r16
 2558               	.LCFI87:
 2559               		.cfi_def_cfa_offset 3
 2560               		.cfi_offset 16, -2
 2561 0002 1F93      		push r17
 2562               	.LCFI88:
 2563               		.cfi_def_cfa_offset 4
 2564               		.cfi_offset 17, -3
 2565 0004 CF93      		push r28
 2566               	.LCFI89:
 2567               		.cfi_def_cfa_offset 5
 2568               		.cfi_offset 28, -4
 2569 0006 DF93      		push r29
 2570               	.LCFI90:
 2571               		.cfi_def_cfa_offset 6
 2572               		.cfi_offset 29, -5
 2573               	/* prologue: function */
 2574               	/* frame size = 0 */
 2575               	/* stack size = 4 */
 2576               	.L__stack_usage = 4
 2577 0008 8C01      		movw r16,r24
 713:../../os/oslib/src/chfactory.c ****   dyn_objects_fifo_t *dofp;
 2578               		.loc 1 713 3 is_stmt 1 view .LVU597
 714:../../os/oslib/src/chfactory.c **** 
 715:../../os/oslib/src/chfactory.c ****   F_LOCK();
 2579               		.loc 1 715 3 view .LVU598
 2580 000a 60E0      		ldi r22,0
 2581 000c 70E0      		ldi r23,0
 2582 000e 80E0      		ldi r24,lo8(ch_factory)
 2583 0010 90E0      		ldi r25,hi8(ch_factory)
 2584               	.LVL242:
 2585               		.loc 1 715 3 is_stmt 0 view .LVU599
 2586 0012 0E94 0000 		call chSemWaitTimeout
 2587               	.LVL243:
 716:../../os/oslib/src/chfactory.c **** 
 717:../../os/oslib/src/chfactory.c ****   dofp = (dyn_objects_fifo_t *)dyn_find_object(name, &ch_factory.fifo_list);
 2588               		.loc 1 717 3 is_stmt 1 view .LVU600
 2589               	.LBB200:
 2590               	.LBI200:
 227:../../os/oslib/src/chfactory.c ****   dyn_element_t *dep;
 2591               		.loc 1 227 23 view .LVU601
 2592               	.LBB201:
 228:../../os/oslib/src/chfactory.c **** 
 2593               		.loc 1 228 3 view .LVU602
 230:../../os/oslib/src/chfactory.c **** 
 2594               		.loc 1 230 3 view .LVU603
 230:../../os/oslib/src/chfactory.c **** 
 2595               		.loc 1 230 3 view .LVU604
 230:../../os/oslib/src/chfactory.c **** 
 2596               		.loc 1 230 3 discriminator 5 view .LVU605
 233:../../os/oslib/src/chfactory.c ****   if (dep != NULL) {
 2597               		.loc 1 233 3 view .LVU606
 2598               	.LBB202:
 2599               	.LBI202:
 103:../../os/oslib/src/chfactory.c ****   dyn_element_t *p = dlp->next;
 2600               		.loc 1 103 23 view .LVU607
 2601               	.LBB203:
 104:../../os/oslib/src/chfactory.c **** 
 2602               		.loc 1 104 3 view .LVU608
 104:../../os/oslib/src/chfactory.c **** 
 2603               		.loc 1 104 18 is_stmt 0 view .LVU609
 2604 0016 C091 0000 		lds r28,ch_factory+25
 2605 001a D091 0000 		lds r29,ch_factory+25+1
 2606               	.LVL244:
 106:../../os/oslib/src/chfactory.c ****     if (strncmp(p->name, name, CH_CFG_FACTORY_MAX_NAMES_LENGTH) == 0) {
 2607               		.loc 1 106 3 is_stmt 1 view .LVU610
 106:../../os/oslib/src/chfactory.c ****     if (strncmp(p->name, name, CH_CFG_FACTORY_MAX_NAMES_LENGTH) == 0) {
 2608               		.loc 1 106 12 view .LVU611
 2609 001e 80E0      		ldi r24,hi8(ch_factory+25)
 2610 0020 C030      		cpi r28,lo8(ch_factory+25)
 2611 0022 D807      		cpc r29,r24
 2612 0024 01F4      		brne .L153
 2613 0026 00C0      		rjmp .L157
 2614               	.L159:
 110:../../os/oslib/src/chfactory.c ****   }
 2615               		.loc 1 110 5 view .LVU612
 110:../../os/oslib/src/chfactory.c ****   }
 2616               		.loc 1 110 7 is_stmt 0 view .LVU613
 2617 0028 0990      		ld __tmp_reg__,Y+
 2618 002a D881      		ld r29,Y
 2619 002c C02D      		mov r28,__tmp_reg__
 2620               	.LVL245:
 106:../../os/oslib/src/chfactory.c ****     if (strncmp(p->name, name, CH_CFG_FACTORY_MAX_NAMES_LENGTH) == 0) {
 2621               		.loc 1 106 12 is_stmt 1 view .LVU614
 2622 002e 80E0      		ldi r24,hi8(ch_factory+25)
 2623 0030 C030      		cpi r28,lo8(ch_factory+25)
 2624 0032 D807      		cpc r29,r24
 2625 0034 01F0      		breq .L157
 2626               	.L153:
 107:../../os/oslib/src/chfactory.c ****       return p;
 2627               		.loc 1 107 5 view .LVU615
 107:../../os/oslib/src/chfactory.c ****       return p;
 2628               		.loc 1 107 9 is_stmt 0 view .LVU616
 2629 0036 48E0      		ldi r20,lo8(8)
 2630 0038 50E0      		ldi r21,0
 2631 003a B801      		movw r22,r16
 2632 003c CE01      		movw r24,r28
 2633 003e 0396      		adiw r24,3
 2634 0040 0E94 0000 		call strncmp
 2635               	.LVL246:
 107:../../os/oslib/src/chfactory.c ****       return p;
 2636               		.loc 1 107 8 discriminator 1 view .LVU617
 2637 0044 892B      		or r24,r25
 2638 0046 01F4      		brne .L159
 2639               	.LVL247:
 107:../../os/oslib/src/chfactory.c ****       return p;
 2640               		.loc 1 107 8 discriminator 1 view .LVU618
 2641               	.LBE203:
 2642               	.LBE202:
 234:../../os/oslib/src/chfactory.c ****     /* Increasing references counter.*/
 2643               		.loc 1 234 3 is_stmt 1 view .LVU619
 234:../../os/oslib/src/chfactory.c ****     /* Increasing references counter.*/
 2644               		.loc 1 234 6 is_stmt 0 view .LVU620
 2645 0048 2097      		sbiw r28,0
 2646 004a 01F0      		breq .L151
 236:../../os/oslib/src/chfactory.c ****   }
 2647               		.loc 1 236 5 is_stmt 1 view .LVU621
 236:../../os/oslib/src/chfactory.c ****   }
 2648               		.loc 1 236 14 is_stmt 0 view .LVU622
 2649 004c 8A81      		ldd r24,Y+2
 2650 004e 8F5F      		subi r24,lo8(-(1))
 2651 0050 8A83      		std Y+2,r24
 2652               	.LVL248:
 2653               	.L151:
 239:../../os/oslib/src/chfactory.c **** }
 2654               		.loc 1 239 3 is_stmt 1 view .LVU623
 239:../../os/oslib/src/chfactory.c **** }
 2655               		.loc 1 239 3 is_stmt 0 view .LVU624
 2656               	.LBE201:
 2657               	.LBE200:
 718:../../os/oslib/src/chfactory.c **** 
 719:../../os/oslib/src/chfactory.c ****   F_UNLOCK();
 2658               		.loc 1 719 3 is_stmt 1 view .LVU625
 2659 0052 80E0      		ldi r24,lo8(ch_factory)
 2660 0054 90E0      		ldi r25,hi8(ch_factory)
 2661 0056 0E94 0000 		call chSemSignal
 2662               	.LVL249:
 720:../../os/oslib/src/chfactory.c **** 
 721:../../os/oslib/src/chfactory.c ****   return dofp;
 2663               		.loc 1 721 3 view .LVU626
 722:../../os/oslib/src/chfactory.c **** }
 2664               		.loc 1 722 1 is_stmt 0 view .LVU627
 2665 005a CE01      		movw r24,r28
 2666               	/* epilogue start */
 2667 005c DF91      		pop r29
 2668 005e CF91      		pop r28
 2669               	.LVL250:
 2670               		.loc 1 722 1 view .LVU628
 2671 0060 1F91      		pop r17
 2672 0062 0F91      		pop r16
 2673               	.LVL251:
 2674               		.loc 1 722 1 view .LVU629
 2675 0064 0895      		ret
 2676               	.LVL252:
 2677               	.L157:
 2678               	.LBB207:
 2679               	.LBB206:
 2680               	.LBB205:
 2681               	.LBB204:
 113:../../os/oslib/src/chfactory.c **** }
 2682               		.loc 1 113 10 view .LVU630
 2683 0066 C0E0      		ldi r28,0
 2684 0068 D0E0      		ldi r29,0
 2685               	.LVL253:
 113:../../os/oslib/src/chfactory.c **** }
 2686               		.loc 1 113 10 view .LVU631
 2687 006a 00C0      		rjmp .L151
 2688               	.LBE204:
 2689               	.LBE205:
 2690               	.LBE206:
 2691               	.LBE207:
 2692               		.cfi_endproc
 2693               	.LFE122:
 2695               		.section	.text.chFactoryReleaseObjectsFIFO,"ax",@progbits
 2696               	.global	chFactoryReleaseObjectsFIFO
 2698               	chFactoryReleaseObjectsFIFO:
 2699               	.LVL254:
 2700               	.LFB123:
 723:../../os/oslib/src/chfactory.c **** 
 724:../../os/oslib/src/chfactory.c **** /**
 725:../../os/oslib/src/chfactory.c ****  * @brief   Releases a dynamic "objects FIFO" object.
 726:../../os/oslib/src/chfactory.c ****  * @details The reference counter of the dynamic "objects FIFO" object is
 727:../../os/oslib/src/chfactory.c ****  *          decreased by one, if reaches zero then the dynamic "objects FIFO"
 728:../../os/oslib/src/chfactory.c ****  *          object memory is freed.
 729:../../os/oslib/src/chfactory.c ****  *
 730:../../os/oslib/src/chfactory.c ****  * @param[in] dofp      dynamic "objects FIFO" object reference
 731:../../os/oslib/src/chfactory.c ****  *
 732:../../os/oslib/src/chfactory.c ****  * @api
 733:../../os/oslib/src/chfactory.c ****  */
 734:../../os/oslib/src/chfactory.c **** void chFactoryReleaseObjectsFIFO(dyn_objects_fifo_t *dofp) {
 2701               		.loc 1 734 60 is_stmt 1 view -0
 2702               		.cfi_startproc
 2703               		.loc 1 734 60 is_stmt 0 view .LVU633
 2704 0000 CF93      		push r28
 2705               	.LCFI91:
 2706               		.cfi_def_cfa_offset 3
 2707               		.cfi_offset 28, -2
 2708 0002 DF93      		push r29
 2709               	.LCFI92:
 2710               		.cfi_def_cfa_offset 4
 2711               		.cfi_offset 29, -3
 2712               	/* prologue: function */
 2713               	/* frame size = 0 */
 2714               	/* stack size = 2 */
 2715               	.L__stack_usage = 2
 2716 0004 EC01      		movw r28,r24
 735:../../os/oslib/src/chfactory.c **** 
 736:../../os/oslib/src/chfactory.c ****   F_LOCK();
 2717               		.loc 1 736 3 is_stmt 1 view .LVU634
 2718 0006 60E0      		ldi r22,0
 2719 0008 70E0      		ldi r23,0
 2720 000a 80E0      		ldi r24,lo8(ch_factory)
 2721 000c 90E0      		ldi r25,hi8(ch_factory)
 2722               	.LVL255:
 2723               		.loc 1 736 3 is_stmt 0 view .LVU635
 2724 000e 0E94 0000 		call chSemWaitTimeout
 2725               	.LVL256:
 737:../../os/oslib/src/chfactory.c **** 
 738:../../os/oslib/src/chfactory.c ****   dyn_release_object_heap(&dofp->element, &ch_factory.fifo_list);
 2726               		.loc 1 738 3 is_stmt 1 view .LVU636
 2727               	.LBB216:
 2728               	.LBI216:
 167:../../os/oslib/src/chfactory.c ****                                     dyn_list_t *dlp) {
 2729               		.loc 1 167 13 view .LVU637
 2730               	.LBB217:
 170:../../os/oslib/src/chfactory.c ****   chDbgAssert(dep->refs > (ucnt_t)0, "invalid references number");
 2731               		.loc 1 170 3 view .LVU638
 170:../../os/oslib/src/chfactory.c ****   chDbgAssert(dep->refs > (ucnt_t)0, "invalid references number");
 2732               		.loc 1 170 3 view .LVU639
 170:../../os/oslib/src/chfactory.c ****   chDbgAssert(dep->refs > (ucnt_t)0, "invalid references number");
 2733               		.loc 1 170 3 discriminator 5 view .LVU640
 171:../../os/oslib/src/chfactory.c **** 
 2734               		.loc 1 171 3 view .LVU641
 171:../../os/oslib/src/chfactory.c **** 
 2735               		.loc 1 171 3 view .LVU642
 171:../../os/oslib/src/chfactory.c **** 
 2736               		.loc 1 171 3 discriminator 5 view .LVU643
 173:../../os/oslib/src/chfactory.c ****   if (dep->refs == (ucnt_t)0) {
 2737               		.loc 1 173 3 view .LVU644
 173:../../os/oslib/src/chfactory.c ****   if (dep->refs == (ucnt_t)0) {
 2738               		.loc 1 173 12 is_stmt 0 view .LVU645
 2739 0012 8A81      		ldd r24,Y+2
 2740 0014 8150      		subi r24,lo8(-(-1))
 2741 0016 8A83      		std Y+2,r24
 174:../../os/oslib/src/chfactory.c ****     dep = dyn_list_unlink(dep, dlp);
 2742               		.loc 1 174 3 is_stmt 1 view .LVU646
 174:../../os/oslib/src/chfactory.c ****     dep = dyn_list_unlink(dep, dlp);
 2743               		.loc 1 174 6 is_stmt 0 view .LVU647
 2744 0018 8111      		cpse r24,__zero_reg__
 2745 001a 00C0      		rjmp .L162
 2746               	.LBB218:
 2747               	.LBB219:
 2748               	.LBB220:
 2749               	.LBB221:
 118:../../os/oslib/src/chfactory.c **** 
 2750               		.loc 1 118 18 view .LVU648
 2751 001c E0E0      		ldi r30,lo8(ch_factory+25)
 2752 001e F0E0      		ldi r31,hi8(ch_factory+25)
 2753               	.LVL257:
 118:../../os/oslib/src/chfactory.c **** 
 2754               		.loc 1 118 18 view .LVU649
 2755 0020 00C0      		rjmp .L163
 2756               	.LVL258:
 2757               	.L165:
 122:../../os/oslib/src/chfactory.c ****       /* Found.*/
 2758               		.loc 1 122 5 is_stmt 1 view .LVU650
 122:../../os/oslib/src/chfactory.c ****       /* Found.*/
 2759               		.loc 1 122 8 is_stmt 0 view .LVU651
 2760 0022 CE17      		cp r28,r30
 2761 0024 DF07      		cpc r29,r31
 2762 0026 01F0      		breq .L167
 2763               	.LVL259:
 2764               	.L163:
 121:../../os/oslib/src/chfactory.c ****     if (prev->next == element) {
 2765               		.loc 1 121 21 is_stmt 1 view .LVU652
 2766 0028 DF01      		movw r26,r30
 121:../../os/oslib/src/chfactory.c ****     if (prev->next == element) {
 2767               		.loc 1 121 14 is_stmt 0 view .LVU653
 2768 002a 0190      		ld __tmp_reg__,Z+
 2769 002c F081      		ld r31,Z
 2770 002e E02D      		mov r30,__tmp_reg__
 2771               	.LVL260:
 121:../../os/oslib/src/chfactory.c ****     if (prev->next == element) {
 2772               		.loc 1 121 21 view .LVU654
 2773 0030 80E0      		ldi r24,hi8(ch_factory+25)
 2774 0032 E030      		cpi r30,lo8(ch_factory+25)
 2775 0034 F807      		cpc r31,r24
 2776 0036 01F4      		brne .L165
 132:../../os/oslib/src/chfactory.c **** }
 2777               		.loc 1 132 10 view .LVU655
 2778 0038 E0E0      		ldi r30,0
 2779 003a F0E0      		ldi r31,0
 2780               	.L164:
 2781               	.LVL261:
 132:../../os/oslib/src/chfactory.c **** }
 2782               		.loc 1 132 10 view .LVU656
 2783               	.LBE221:
 2784               	.LBE220:
 176:../../os/oslib/src/chfactory.c ****   }
 2785               		.loc 1 176 5 is_stmt 1 view .LVU657
 2786 003c CF01      		movw r24,r30
 2787 003e 0E94 0000 		call chHeapFree
 2788               	.LVL262:
 2789               	.L162:
 176:../../os/oslib/src/chfactory.c ****   }
 2790               		.loc 1 176 5 is_stmt 0 view .LVU658
 2791               	.LBE219:
 2792               	.LBE218:
 2793               	.LBE217:
 2794               	.LBE216:
 739:../../os/oslib/src/chfactory.c **** 
 740:../../os/oslib/src/chfactory.c ****   F_UNLOCK();
 2795               		.loc 1 740 3 is_stmt 1 view .LVU659
 2796 0042 80E0      		ldi r24,lo8(ch_factory)
 2797 0044 90E0      		ldi r25,hi8(ch_factory)
 2798               	/* epilogue start */
 741:../../os/oslib/src/chfactory.c **** }
 2799               		.loc 1 741 1 is_stmt 0 view .LVU660
 2800 0046 DF91      		pop r29
 2801 0048 CF91      		pop r28
 2802               	.LVL263:
 740:../../os/oslib/src/chfactory.c **** }
 2803               		.loc 1 740 3 view .LVU661
 2804 004a 0C94 0000 		jmp chSemSignal
 2805               	.LVL264:
 2806               	.L167:
 2807               	.LBB227:
 2808               	.LBB226:
 2809               	.LBB225:
 2810               	.LBB224:
 2811               	.LBB223:
 2812               	.LBB222:
 124:../../os/oslib/src/chfactory.c ****       return element;
 2813               		.loc 1 124 7 is_stmt 1 view .LVU662
 124:../../os/oslib/src/chfactory.c ****       return element;
 2814               		.loc 1 124 27 is_stmt 0 view .LVU663
 2815 004e 8081      		ld r24,Z
 2816 0050 9181      		ldd r25,Z+1
 124:../../os/oslib/src/chfactory.c ****       return element;
 2817               		.loc 1 124 18 view .LVU664
 2818 0052 8D93      		st X+,r24
 2819 0054 9C93      		st X,r25
 125:../../os/oslib/src/chfactory.c ****     }
 2820               		.loc 1 125 7 is_stmt 1 view .LVU665
 125:../../os/oslib/src/chfactory.c ****     }
 2821               		.loc 1 125 14 is_stmt 0 view .LVU666
 2822 0056 00C0      		rjmp .L164
 2823               	.LBE222:
 2824               	.LBE223:
 2825               	.LBE224:
 2826               	.LBE225:
 2827               	.LBE226:
 2828               	.LBE227:
 2829               		.cfi_endproc
 2830               	.LFE123:
 2832               		.section	.text.chFactoryCreatePipe,"ax",@progbits
 2833               	.global	chFactoryCreatePipe
 2835               	chFactoryCreatePipe:
 2836               	.LVL265:
 2837               	.LFB124:
 742:../../os/oslib/src/chfactory.c **** #endif /* CH_CFG_FACTORY_OBJ_FIFOS = TRUE */
 743:../../os/oslib/src/chfactory.c **** 
 744:../../os/oslib/src/chfactory.c **** #if (CH_CFG_FACTORY_PIPES == TRUE) || defined(__DOXIGEN__)
 745:../../os/oslib/src/chfactory.c **** /**
 746:../../os/oslib/src/chfactory.c ****  * @brief   Creates a dynamic pipe object.
 747:../../os/oslib/src/chfactory.c ****  * @post    A reference to the dynamic pipe object is returned and
 748:../../os/oslib/src/chfactory.c ****  *          the reference counter is initialized to one.
 749:../../os/oslib/src/chfactory.c ****  * @post    The dynamic pipe object is initialized and ready to use.
 750:../../os/oslib/src/chfactory.c ****  *
 751:../../os/oslib/src/chfactory.c ****  * @param[in] name      name to be assigned to the new dynamic pipe
 752:../../os/oslib/src/chfactory.c ****  *                      object
 753:../../os/oslib/src/chfactory.c ****  * @param[in] size      pipe buffer size
 754:../../os/oslib/src/chfactory.c ****  * @return              The reference to the created dynamic pipe
 755:../../os/oslib/src/chfactory.c ****  *                      object.
 756:../../os/oslib/src/chfactory.c ****  * @retval NULL         if the dynamic pipe object cannot be
 757:../../os/oslib/src/chfactory.c ****  *                      allocated or a dynamic pipe object with
 758:../../os/oslib/src/chfactory.c ****  *                      the same name exists.
 759:../../os/oslib/src/chfactory.c ****  *
 760:../../os/oslib/src/chfactory.c ****  * @api
 761:../../os/oslib/src/chfactory.c ****  */
 762:../../os/oslib/src/chfactory.c **** dyn_pipe_t *chFactoryCreatePipe(const char *name, size_t size) {
 2838               		.loc 1 762 64 is_stmt 1 view -0
 2839               		.cfi_startproc
 2840               		.loc 1 762 64 is_stmt 0 view .LVU668
 2841 0000 EF92      		push r14
 2842               	.LCFI93:
 2843               		.cfi_def_cfa_offset 3
 2844               		.cfi_offset 14, -2
 2845 0002 FF92      		push r15
 2846               	.LCFI94:
 2847               		.cfi_def_cfa_offset 4
 2848               		.cfi_offset 15, -3
 2849 0004 0F93      		push r16
 2850               	.LCFI95:
 2851               		.cfi_def_cfa_offset 5
 2852               		.cfi_offset 16, -4
 2853 0006 1F93      		push r17
 2854               	.LCFI96:
 2855               		.cfi_def_cfa_offset 6
 2856               		.cfi_offset 17, -5
 2857 0008 CF93      		push r28
 2858               	.LCFI97:
 2859               		.cfi_def_cfa_offset 7
 2860               		.cfi_offset 28, -6
 2861 000a DF93      		push r29
 2862               	.LCFI98:
 2863               		.cfi_def_cfa_offset 8
 2864               		.cfi_offset 29, -7
 2865               	/* prologue: function */
 2866               	/* frame size = 0 */
 2867               	/* stack size = 6 */
 2868               	.L__stack_usage = 6
 2869 000c 8C01      		movw r16,r24
 2870 000e 7B01      		movw r14,r22
 763:../../os/oslib/src/chfactory.c ****   dyn_pipe_t *dpp;
 2871               		.loc 1 763 3 is_stmt 1 view .LVU669
 764:../../os/oslib/src/chfactory.c **** 
 765:../../os/oslib/src/chfactory.c ****   F_LOCK();
 2872               		.loc 1 765 3 view .LVU670
 2873 0010 60E0      		ldi r22,0
 2874 0012 70E0      		ldi r23,0
 2875               	.LVL266:
 2876               		.loc 1 765 3 is_stmt 0 view .LVU671
 2877 0014 80E0      		ldi r24,lo8(ch_factory)
 2878 0016 90E0      		ldi r25,hi8(ch_factory)
 2879               	.LVL267:
 2880               		.loc 1 765 3 view .LVU672
 2881 0018 0E94 0000 		call chSemWaitTimeout
 2882               	.LVL268:
 766:../../os/oslib/src/chfactory.c **** 
 767:../../os/oslib/src/chfactory.c ****   dpp = (dyn_pipe_t *)dyn_create_object_heap(name,
 2883               		.loc 1 767 3 is_stmt 1 view .LVU673
 2884               		.loc 1 767 23 is_stmt 0 view .LVU674
 2885 001c A701      		movw r20,r14
 2886 001e 435E      		subi r20,-29
 2887 0020 5F4F      		sbci r21,-1
 2888 0022 24E0      		ldi r18,lo8(4)
 2889 0024 30E0      		ldi r19,0
 2890 0026 60E0      		ldi r22,lo8(ch_factory+27)
 2891 0028 70E0      		ldi r23,hi8(ch_factory+27)
 2892 002a C801      		movw r24,r16
 2893 002c 0E94 0000 		call dyn_create_object_heap
 2894               	.LVL269:
 2895 0030 EC01      		movw r28,r24
 2896               	.LVL270:
 768:../../os/oslib/src/chfactory.c ****                                              &ch_factory.pipe_list,
 769:../../os/oslib/src/chfactory.c ****                                              sizeof (dyn_pipe_t) + size,
 770:../../os/oslib/src/chfactory.c ****                                              CH_HEAP_ALIGNMENT);
 771:../../os/oslib/src/chfactory.c ****   if (dpp != NULL) {
 2897               		.loc 1 771 3 is_stmt 1 view .LVU675
 2898               		.loc 1 771 6 is_stmt 0 view .LVU676
 2899 0032 0097      		sbiw r24,0
 2900 0034 01F0      		breq .L169
 772:../../os/oslib/src/chfactory.c ****     /* Initializing mailbox object data.*/
 773:../../os/oslib/src/chfactory.c ****     chPipeObjectInit(&dpp->pipe, (uint8_t *)(dpp + 1), size);
 2901               		.loc 1 773 5 is_stmt 1 view .LVU677
 2902 0036 A701      		movw r20,r14
 2903 0038 BC01      		movw r22,r24
 2904 003a 635E      		subi r22,-29
 2905 003c 7F4F      		sbci r23,-1
 2906 003e 0B96      		adiw r24,11
 2907               	.LVL271:
 2908               		.loc 1 773 5 is_stmt 0 view .LVU678
 2909 0040 0E94 0000 		call chPipeObjectInit
 2910               	.LVL272:
 2911               	.L169:
 774:../../os/oslib/src/chfactory.c ****   }
 775:../../os/oslib/src/chfactory.c **** 
 776:../../os/oslib/src/chfactory.c ****   F_UNLOCK();
 2912               		.loc 1 776 3 is_stmt 1 view .LVU679
 2913 0044 80E0      		ldi r24,lo8(ch_factory)
 2914 0046 90E0      		ldi r25,hi8(ch_factory)
 2915 0048 0E94 0000 		call chSemSignal
 2916               	.LVL273:
 777:../../os/oslib/src/chfactory.c **** 
 778:../../os/oslib/src/chfactory.c ****   return dpp;
 2917               		.loc 1 778 3 view .LVU680
 779:../../os/oslib/src/chfactory.c **** }
 2918               		.loc 1 779 1 is_stmt 0 view .LVU681
 2919 004c CE01      		movw r24,r28
 2920               	/* epilogue start */
 2921 004e DF91      		pop r29
 2922 0050 CF91      		pop r28
 2923               	.LVL274:
 2924               		.loc 1 779 1 view .LVU682
 2925 0052 1F91      		pop r17
 2926 0054 0F91      		pop r16
 2927               	.LVL275:
 2928               		.loc 1 779 1 view .LVU683
 2929 0056 FF90      		pop r15
 2930 0058 EF90      		pop r14
 2931               	.LVL276:
 2932               		.loc 1 779 1 view .LVU684
 2933 005a 0895      		ret
 2934               		.cfi_endproc
 2935               	.LFE124:
 2937               		.section	.text.chFactoryFindPipe,"ax",@progbits
 2938               	.global	chFactoryFindPipe
 2940               	chFactoryFindPipe:
 2941               	.LVL277:
 2942               	.LFB125:
 780:../../os/oslib/src/chfactory.c **** 
 781:../../os/oslib/src/chfactory.c **** /**
 782:../../os/oslib/src/chfactory.c ****  * @brief   Retrieves a dynamic pipe object.
 783:../../os/oslib/src/chfactory.c ****  * @post    A reference to the dynamic pipe object is returned with
 784:../../os/oslib/src/chfactory.c ****  *          the reference counter increased by one.
 785:../../os/oslib/src/chfactory.c ****  *
 786:../../os/oslib/src/chfactory.c ****  * @param[in] name      name of the pipe object
 787:../../os/oslib/src/chfactory.c ****  *
 788:../../os/oslib/src/chfactory.c ****  * @return              The reference to the found dynamic pipe
 789:../../os/oslib/src/chfactory.c ****  *                      object.
 790:../../os/oslib/src/chfactory.c ****  * @retval NULL         if a dynamic pipe object with the specified
 791:../../os/oslib/src/chfactory.c ****  *                      name does not exist.
 792:../../os/oslib/src/chfactory.c ****  *
 793:../../os/oslib/src/chfactory.c ****  * @api
 794:../../os/oslib/src/chfactory.c ****  */
 795:../../os/oslib/src/chfactory.c **** dyn_pipe_t *chFactoryFindPipe(const char *name) {
 2943               		.loc 1 795 49 is_stmt 1 view -0
 2944               		.cfi_startproc
 2945               		.loc 1 795 49 is_stmt 0 view .LVU686
 2946 0000 0F93      		push r16
 2947               	.LCFI99:
 2948               		.cfi_def_cfa_offset 3
 2949               		.cfi_offset 16, -2
 2950 0002 1F93      		push r17
 2951               	.LCFI100:
 2952               		.cfi_def_cfa_offset 4
 2953               		.cfi_offset 17, -3
 2954 0004 CF93      		push r28
 2955               	.LCFI101:
 2956               		.cfi_def_cfa_offset 5
 2957               		.cfi_offset 28, -4
 2958 0006 DF93      		push r29
 2959               	.LCFI102:
 2960               		.cfi_def_cfa_offset 6
 2961               		.cfi_offset 29, -5
 2962               	/* prologue: function */
 2963               	/* frame size = 0 */
 2964               	/* stack size = 4 */
 2965               	.L__stack_usage = 4
 2966 0008 8C01      		movw r16,r24
 796:../../os/oslib/src/chfactory.c ****   dyn_pipe_t *dpp;
 2967               		.loc 1 796 3 is_stmt 1 view .LVU687
 797:../../os/oslib/src/chfactory.c **** 
 798:../../os/oslib/src/chfactory.c ****   F_LOCK();
 2968               		.loc 1 798 3 view .LVU688
 2969 000a 60E0      		ldi r22,0
 2970 000c 70E0      		ldi r23,0
 2971 000e 80E0      		ldi r24,lo8(ch_factory)
 2972 0010 90E0      		ldi r25,hi8(ch_factory)
 2973               	.LVL278:
 2974               		.loc 1 798 3 is_stmt 0 view .LVU689
 2975 0012 0E94 0000 		call chSemWaitTimeout
 2976               	.LVL279:
 799:../../os/oslib/src/chfactory.c **** 
 800:../../os/oslib/src/chfactory.c ****   dpp = (dyn_pipe_t *)dyn_find_object(name, &ch_factory.pipe_list);
 2977               		.loc 1 800 3 is_stmt 1 view .LVU690
 2978               	.LBB232:
 2979               	.LBI232:
 227:../../os/oslib/src/chfactory.c ****   dyn_element_t *dep;
 2980               		.loc 1 227 23 view .LVU691
 2981               	.LBB233:
 228:../../os/oslib/src/chfactory.c **** 
 2982               		.loc 1 228 3 view .LVU692
 230:../../os/oslib/src/chfactory.c **** 
 2983               		.loc 1 230 3 view .LVU693
 230:../../os/oslib/src/chfactory.c **** 
 2984               		.loc 1 230 3 view .LVU694
 230:../../os/oslib/src/chfactory.c **** 
 2985               		.loc 1 230 3 discriminator 5 view .LVU695
 233:../../os/oslib/src/chfactory.c ****   if (dep != NULL) {
 2986               		.loc 1 233 3 view .LVU696
 2987               	.LBB234:
 2988               	.LBI234:
 103:../../os/oslib/src/chfactory.c ****   dyn_element_t *p = dlp->next;
 2989               		.loc 1 103 23 view .LVU697
 2990               	.LBB235:
 104:../../os/oslib/src/chfactory.c **** 
 2991               		.loc 1 104 3 view .LVU698
 104:../../os/oslib/src/chfactory.c **** 
 2992               		.loc 1 104 18 is_stmt 0 view .LVU699
 2993 0016 C091 0000 		lds r28,ch_factory+27
 2994 001a D091 0000 		lds r29,ch_factory+27+1
 2995               	.LVL280:
 106:../../os/oslib/src/chfactory.c ****     if (strncmp(p->name, name, CH_CFG_FACTORY_MAX_NAMES_LENGTH) == 0) {
 2996               		.loc 1 106 3 is_stmt 1 view .LVU700
 106:../../os/oslib/src/chfactory.c ****     if (strncmp(p->name, name, CH_CFG_FACTORY_MAX_NAMES_LENGTH) == 0) {
 2997               		.loc 1 106 12 view .LVU701
 2998 001e 80E0      		ldi r24,hi8(ch_factory+27)
 2999 0020 C030      		cpi r28,lo8(ch_factory+27)
 3000 0022 D807      		cpc r29,r24
 3001 0024 01F4      		brne .L176
 3002 0026 00C0      		rjmp .L180
 3003               	.L182:
 110:../../os/oslib/src/chfactory.c ****   }
 3004               		.loc 1 110 5 view .LVU702
 110:../../os/oslib/src/chfactory.c ****   }
 3005               		.loc 1 110 7 is_stmt 0 view .LVU703
 3006 0028 0990      		ld __tmp_reg__,Y+
 3007 002a D881      		ld r29,Y
 3008 002c C02D      		mov r28,__tmp_reg__
 3009               	.LVL281:
 106:../../os/oslib/src/chfactory.c ****     if (strncmp(p->name, name, CH_CFG_FACTORY_MAX_NAMES_LENGTH) == 0) {
 3010               		.loc 1 106 12 is_stmt 1 view .LVU704
 3011 002e 80E0      		ldi r24,hi8(ch_factory+27)
 3012 0030 C030      		cpi r28,lo8(ch_factory+27)
 3013 0032 D807      		cpc r29,r24
 3014 0034 01F0      		breq .L180
 3015               	.L176:
 107:../../os/oslib/src/chfactory.c ****       return p;
 3016               		.loc 1 107 5 view .LVU705
 107:../../os/oslib/src/chfactory.c ****       return p;
 3017               		.loc 1 107 9 is_stmt 0 view .LVU706
 3018 0036 48E0      		ldi r20,lo8(8)
 3019 0038 50E0      		ldi r21,0
 3020 003a B801      		movw r22,r16
 3021 003c CE01      		movw r24,r28
 3022 003e 0396      		adiw r24,3
 3023 0040 0E94 0000 		call strncmp
 3024               	.LVL282:
 107:../../os/oslib/src/chfactory.c ****       return p;
 3025               		.loc 1 107 8 discriminator 1 view .LVU707
 3026 0044 892B      		or r24,r25
 3027 0046 01F4      		brne .L182
 3028               	.LVL283:
 107:../../os/oslib/src/chfactory.c ****       return p;
 3029               		.loc 1 107 8 discriminator 1 view .LVU708
 3030               	.LBE235:
 3031               	.LBE234:
 234:../../os/oslib/src/chfactory.c ****     /* Increasing references counter.*/
 3032               		.loc 1 234 3 is_stmt 1 view .LVU709
 234:../../os/oslib/src/chfactory.c ****     /* Increasing references counter.*/
 3033               		.loc 1 234 6 is_stmt 0 view .LVU710
 3034 0048 2097      		sbiw r28,0
 3035 004a 01F0      		breq .L174
 236:../../os/oslib/src/chfactory.c ****   }
 3036               		.loc 1 236 5 is_stmt 1 view .LVU711
 236:../../os/oslib/src/chfactory.c ****   }
 3037               		.loc 1 236 14 is_stmt 0 view .LVU712
 3038 004c 8A81      		ldd r24,Y+2
 3039 004e 8F5F      		subi r24,lo8(-(1))
 3040 0050 8A83      		std Y+2,r24
 3041               	.LVL284:
 3042               	.L174:
 239:../../os/oslib/src/chfactory.c **** }
 3043               		.loc 1 239 3 is_stmt 1 view .LVU713
 239:../../os/oslib/src/chfactory.c **** }
 3044               		.loc 1 239 3 is_stmt 0 view .LVU714
 3045               	.LBE233:
 3046               	.LBE232:
 801:../../os/oslib/src/chfactory.c **** 
 802:../../os/oslib/src/chfactory.c ****   F_UNLOCK();
 3047               		.loc 1 802 3 is_stmt 1 view .LVU715
 3048 0052 80E0      		ldi r24,lo8(ch_factory)
 3049 0054 90E0      		ldi r25,hi8(ch_factory)
 3050 0056 0E94 0000 		call chSemSignal
 3051               	.LVL285:
 803:../../os/oslib/src/chfactory.c **** 
 804:../../os/oslib/src/chfactory.c ****   return dpp;
 3052               		.loc 1 804 3 view .LVU716
 805:../../os/oslib/src/chfactory.c **** }
 3053               		.loc 1 805 1 is_stmt 0 view .LVU717
 3054 005a CE01      		movw r24,r28
 3055               	/* epilogue start */
 3056 005c DF91      		pop r29
 3057 005e CF91      		pop r28
 3058               	.LVL286:
 3059               		.loc 1 805 1 view .LVU718
 3060 0060 1F91      		pop r17
 3061 0062 0F91      		pop r16
 3062               	.LVL287:
 3063               		.loc 1 805 1 view .LVU719
 3064 0064 0895      		ret
 3065               	.LVL288:
 3066               	.L180:
 3067               	.LBB239:
 3068               	.LBB238:
 3069               	.LBB237:
 3070               	.LBB236:
 113:../../os/oslib/src/chfactory.c **** }
 3071               		.loc 1 113 10 view .LVU720
 3072 0066 C0E0      		ldi r28,0
 3073 0068 D0E0      		ldi r29,0
 3074               	.LVL289:
 113:../../os/oslib/src/chfactory.c **** }
 3075               		.loc 1 113 10 view .LVU721
 3076 006a 00C0      		rjmp .L174
 3077               	.LBE236:
 3078               	.LBE237:
 3079               	.LBE238:
 3080               	.LBE239:
 3081               		.cfi_endproc
 3082               	.LFE125:
 3084               		.section	.text.chFactoryReleasePipe,"ax",@progbits
 3085               	.global	chFactoryReleasePipe
 3087               	chFactoryReleasePipe:
 3088               	.LVL290:
 3089               	.LFB126:
 806:../../os/oslib/src/chfactory.c **** 
 807:../../os/oslib/src/chfactory.c **** /**
 808:../../os/oslib/src/chfactory.c ****  * @brief   Releases a dynamic pipe object.
 809:../../os/oslib/src/chfactory.c ****  * @details The reference counter of the dynamic pipe object is
 810:../../os/oslib/src/chfactory.c ****  *          decreased by one, if reaches zero then the dynamic pipe
 811:../../os/oslib/src/chfactory.c ****  *          object memory is freed.
 812:../../os/oslib/src/chfactory.c ****  *
 813:../../os/oslib/src/chfactory.c ****  * @param[in] dpp       dynamic pipe object reference
 814:../../os/oslib/src/chfactory.c ****  *
 815:../../os/oslib/src/chfactory.c ****  * @api
 816:../../os/oslib/src/chfactory.c ****  */
 817:../../os/oslib/src/chfactory.c **** void chFactoryReleasePipe(dyn_pipe_t *dpp) {
 3090               		.loc 1 817 44 is_stmt 1 view -0
 3091               		.cfi_startproc
 3092               		.loc 1 817 44 is_stmt 0 view .LVU723
 3093 0000 CF93      		push r28
 3094               	.LCFI103:
 3095               		.cfi_def_cfa_offset 3
 3096               		.cfi_offset 28, -2
 3097 0002 DF93      		push r29
 3098               	.LCFI104:
 3099               		.cfi_def_cfa_offset 4
 3100               		.cfi_offset 29, -3
 3101               	/* prologue: function */
 3102               	/* frame size = 0 */
 3103               	/* stack size = 2 */
 3104               	.L__stack_usage = 2
 3105 0004 EC01      		movw r28,r24
 818:../../os/oslib/src/chfactory.c **** 
 819:../../os/oslib/src/chfactory.c ****   F_LOCK();
 3106               		.loc 1 819 3 is_stmt 1 view .LVU724
 3107 0006 60E0      		ldi r22,0
 3108 0008 70E0      		ldi r23,0
 3109 000a 80E0      		ldi r24,lo8(ch_factory)
 3110 000c 90E0      		ldi r25,hi8(ch_factory)
 3111               	.LVL291:
 3112               		.loc 1 819 3 is_stmt 0 view .LVU725
 3113 000e 0E94 0000 		call chSemWaitTimeout
 3114               	.LVL292:
 820:../../os/oslib/src/chfactory.c **** 
 821:../../os/oslib/src/chfactory.c ****   dyn_release_object_heap(&dpp->element, &ch_factory.pipe_list);
 3115               		.loc 1 821 3 is_stmt 1 view .LVU726
 3116               	.LBB248:
 3117               	.LBI248:
 167:../../os/oslib/src/chfactory.c ****                                     dyn_list_t *dlp) {
 3118               		.loc 1 167 13 view .LVU727
 3119               	.LBB249:
 170:../../os/oslib/src/chfactory.c ****   chDbgAssert(dep->refs > (ucnt_t)0, "invalid references number");
 3120               		.loc 1 170 3 view .LVU728
 170:../../os/oslib/src/chfactory.c ****   chDbgAssert(dep->refs > (ucnt_t)0, "invalid references number");
 3121               		.loc 1 170 3 view .LVU729
 170:../../os/oslib/src/chfactory.c ****   chDbgAssert(dep->refs > (ucnt_t)0, "invalid references number");
 3122               		.loc 1 170 3 discriminator 5 view .LVU730
 171:../../os/oslib/src/chfactory.c **** 
 3123               		.loc 1 171 3 view .LVU731
 171:../../os/oslib/src/chfactory.c **** 
 3124               		.loc 1 171 3 view .LVU732
 171:../../os/oslib/src/chfactory.c **** 
 3125               		.loc 1 171 3 discriminator 5 view .LVU733
 173:../../os/oslib/src/chfactory.c ****   if (dep->refs == (ucnt_t)0) {
 3126               		.loc 1 173 3 view .LVU734
 173:../../os/oslib/src/chfactory.c ****   if (dep->refs == (ucnt_t)0) {
 3127               		.loc 1 173 12 is_stmt 0 view .LVU735
 3128 0012 8A81      		ldd r24,Y+2
 3129 0014 8150      		subi r24,lo8(-(-1))
 3130 0016 8A83      		std Y+2,r24
 174:../../os/oslib/src/chfactory.c ****     dep = dyn_list_unlink(dep, dlp);
 3131               		.loc 1 174 3 is_stmt 1 view .LVU736
 174:../../os/oslib/src/chfactory.c ****     dep = dyn_list_unlink(dep, dlp);
 3132               		.loc 1 174 6 is_stmt 0 view .LVU737
 3133 0018 8111      		cpse r24,__zero_reg__
 3134 001a 00C0      		rjmp .L185
 3135               	.LBB250:
 3136               	.LBB251:
 3137               	.LBB252:
 3138               	.LBB253:
 118:../../os/oslib/src/chfactory.c **** 
 3139               		.loc 1 118 18 view .LVU738
 3140 001c E0E0      		ldi r30,lo8(ch_factory+27)
 3141 001e F0E0      		ldi r31,hi8(ch_factory+27)
 3142               	.LVL293:
 118:../../os/oslib/src/chfactory.c **** 
 3143               		.loc 1 118 18 view .LVU739
 3144 0020 00C0      		rjmp .L186
 3145               	.LVL294:
 3146               	.L188:
 122:../../os/oslib/src/chfactory.c ****       /* Found.*/
 3147               		.loc 1 122 5 is_stmt 1 view .LVU740
 122:../../os/oslib/src/chfactory.c ****       /* Found.*/
 3148               		.loc 1 122 8 is_stmt 0 view .LVU741
 3149 0022 CE17      		cp r28,r30
 3150 0024 DF07      		cpc r29,r31
 3151 0026 01F0      		breq .L190
 3152               	.LVL295:
 3153               	.L186:
 121:../../os/oslib/src/chfactory.c ****     if (prev->next == element) {
 3154               		.loc 1 121 21 is_stmt 1 view .LVU742
 3155 0028 DF01      		movw r26,r30
 121:../../os/oslib/src/chfactory.c ****     if (prev->next == element) {
 3156               		.loc 1 121 14 is_stmt 0 view .LVU743
 3157 002a 0190      		ld __tmp_reg__,Z+
 3158 002c F081      		ld r31,Z
 3159 002e E02D      		mov r30,__tmp_reg__
 3160               	.LVL296:
 121:../../os/oslib/src/chfactory.c ****     if (prev->next == element) {
 3161               		.loc 1 121 21 view .LVU744
 3162 0030 80E0      		ldi r24,hi8(ch_factory+27)
 3163 0032 E030      		cpi r30,lo8(ch_factory+27)
 3164 0034 F807      		cpc r31,r24
 3165 0036 01F4      		brne .L188
 132:../../os/oslib/src/chfactory.c **** }
 3166               		.loc 1 132 10 view .LVU745
 3167 0038 E0E0      		ldi r30,0
 3168 003a F0E0      		ldi r31,0
