   1               		.file	"chmemheaps.c"
   2               	__SP_H__ = 0x3e
   3               	__SP_L__ = 0x3d
   4               	__SREG__ = 0x3f
   5               	__tmp_reg__ = 0
   6               	__zero_reg__ = 1
   7               		.text
   8               	.Ltext0:
   9               		.cfi_sections	.debug_frame
  10               		.file 1 "../../os/oslib/src/chmemheaps.c"
  11               		.section	.text.__heap_init,"ax",@progbits
  12               	.global	__heap_init
  14               	__heap_init:
  15               	.LFB98:
   1:../../os/oslib/src/chmemheaps.c **** /*
   2:../../os/oslib/src/chmemheaps.c ****     ChibiOS - Copyright (C) 2006,2007,2008,2009,2010,2011,2012,2013,2014,
   3:../../os/oslib/src/chmemheaps.c ****               2015,2016,2017,2018,2019,2020,2021 Giovanni Di Sirio.
   4:../../os/oslib/src/chmemheaps.c **** 
   5:../../os/oslib/src/chmemheaps.c ****     This file is part of ChibiOS.
   6:../../os/oslib/src/chmemheaps.c **** 
   7:../../os/oslib/src/chmemheaps.c ****     ChibiOS is free software; you can redistribute it and/or modify
   8:../../os/oslib/src/chmemheaps.c ****     it under the terms of the GNU General Public License as published by
   9:../../os/oslib/src/chmemheaps.c ****     the Free Software Foundation version 3 of the License.
  10:../../os/oslib/src/chmemheaps.c **** 
  11:../../os/oslib/src/chmemheaps.c ****     ChibiOS is distributed in the hope that it will be useful,
  12:../../os/oslib/src/chmemheaps.c ****     but WITHOUT ANY WARRANTY; without even the implied warranty of
  13:../../os/oslib/src/chmemheaps.c ****     MERCHANTABILITY or FITNESS FOR A PARTICULAR PURPOSE.  See the
  14:../../os/oslib/src/chmemheaps.c ****     GNU General Public License for more details.
  15:../../os/oslib/src/chmemheaps.c **** 
  16:../../os/oslib/src/chmemheaps.c ****     You should have received a copy of the GNU General Public License
  17:../../os/oslib/src/chmemheaps.c ****     along with this program.  If not, see <http://www.gnu.org/licenses/>.
  18:../../os/oslib/src/chmemheaps.c **** */
  19:../../os/oslib/src/chmemheaps.c **** 
  20:../../os/oslib/src/chmemheaps.c **** /**
  21:../../os/oslib/src/chmemheaps.c ****  * @file    oslib/src/chmemheaps.c
  22:../../os/oslib/src/chmemheaps.c ****  * @brief   Memory heaps code.
  23:../../os/oslib/src/chmemheaps.c ****  *
  24:../../os/oslib/src/chmemheaps.c ****  * @addtogroup oslib_memheaps
  25:../../os/oslib/src/chmemheaps.c ****  * @details Heap Allocator related APIs.
  26:../../os/oslib/src/chmemheaps.c ****  *          <h2>Operation mode</h2>
  27:../../os/oslib/src/chmemheaps.c ****  *          The heap allocator implements a first-fit strategy and its APIs
  28:../../os/oslib/src/chmemheaps.c ****  *          are functionally equivalent to the usual @p malloc() and @p free()
  29:../../os/oslib/src/chmemheaps.c ****  *          library functions. The main difference is that the OS heap APIs
  30:../../os/oslib/src/chmemheaps.c ****  *          are guaranteed to be thread safe and there is the ability to
  31:../../os/oslib/src/chmemheaps.c ****  *          return memory blocks aligned to arbitrary powers of two.<br>
  32:../../os/oslib/src/chmemheaps.c ****  * @pre     In order to use the heap APIs the @p CH_CFG_USE_HEAP option must
  33:../../os/oslib/src/chmemheaps.c ****  *          be enabled in @p chconf.h.
  34:../../os/oslib/src/chmemheaps.c ****  * @note    Compatible with RT and NIL.
  35:../../os/oslib/src/chmemheaps.c ****  * @{
  36:../../os/oslib/src/chmemheaps.c ****  */
  37:../../os/oslib/src/chmemheaps.c **** 
  38:../../os/oslib/src/chmemheaps.c **** #include "ch.h"
  39:../../os/oslib/src/chmemheaps.c **** 
  40:../../os/oslib/src/chmemheaps.c **** #if (CH_CFG_USE_HEAP == TRUE) || defined(__DOXYGEN__)
  41:../../os/oslib/src/chmemheaps.c **** 
  42:../../os/oslib/src/chmemheaps.c **** /*===========================================================================*/
  43:../../os/oslib/src/chmemheaps.c **** /* Module local definitions.                                                 */
  44:../../os/oslib/src/chmemheaps.c **** /*===========================================================================*/
  45:../../os/oslib/src/chmemheaps.c **** 
  46:../../os/oslib/src/chmemheaps.c **** /*
  47:../../os/oslib/src/chmemheaps.c ****  * Defaults on the best synchronization mechanism available.
  48:../../os/oslib/src/chmemheaps.c ****  */
  49:../../os/oslib/src/chmemheaps.c **** #if (CH_CFG_USE_MUTEXES == TRUE) || defined(__DOXYGEN__)
  50:../../os/oslib/src/chmemheaps.c **** #define H_LOCK(h)       chMtxLock(&(h)->mtx)
  51:../../os/oslib/src/chmemheaps.c **** #define H_UNLOCK(h)     chMtxUnlock(&(h)->mtx)
  52:../../os/oslib/src/chmemheaps.c **** #else
  53:../../os/oslib/src/chmemheaps.c **** #define H_LOCK(h)       (void) chSemWait(&(h)->sem)
  54:../../os/oslib/src/chmemheaps.c **** #define H_UNLOCK(h)     chSemSignal(&(h)->sem)
  55:../../os/oslib/src/chmemheaps.c **** #endif
  56:../../os/oslib/src/chmemheaps.c **** 
  57:../../os/oslib/src/chmemheaps.c **** #define H_BLOCK(hp)     ((hp) + 1U)
  58:../../os/oslib/src/chmemheaps.c **** 
  59:../../os/oslib/src/chmemheaps.c **** #define H_LIMIT(hp)     (H_BLOCK(hp) + H_PAGES(hp))
  60:../../os/oslib/src/chmemheaps.c **** 
  61:../../os/oslib/src/chmemheaps.c **** #define H_NEXT(hp)      ((hp)->free.next)
  62:../../os/oslib/src/chmemheaps.c **** 
  63:../../os/oslib/src/chmemheaps.c **** #define H_PAGES(hp)     ((hp)->free.pages)
  64:../../os/oslib/src/chmemheaps.c **** 
  65:../../os/oslib/src/chmemheaps.c **** #define H_HEAP(hp)      ((hp)->used.heap)
  66:../../os/oslib/src/chmemheaps.c **** 
  67:../../os/oslib/src/chmemheaps.c **** #define H_SIZE(hp)      ((hp)->used.size)
  68:../../os/oslib/src/chmemheaps.c **** 
  69:../../os/oslib/src/chmemheaps.c **** /*
  70:../../os/oslib/src/chmemheaps.c ****  * Number of pages between two pointers in a MISRA-compatible way.
  71:../../os/oslib/src/chmemheaps.c ****  */
  72:../../os/oslib/src/chmemheaps.c **** #define NPAGES(p1, p2)                                                      \
  73:../../os/oslib/src/chmemheaps.c ****   /*lint -save -e9033 [10.8] The cast is safe.*/                            \
  74:../../os/oslib/src/chmemheaps.c ****   ((size_t)((p1) - (p2)))                                                   \
  75:../../os/oslib/src/chmemheaps.c ****   /*lint -restore*/
  76:../../os/oslib/src/chmemheaps.c **** 
  77:../../os/oslib/src/chmemheaps.c **** /*===========================================================================*/
  78:../../os/oslib/src/chmemheaps.c **** /* Module exported variables.                                                */
  79:../../os/oslib/src/chmemheaps.c **** /*===========================================================================*/
  80:../../os/oslib/src/chmemheaps.c **** 
  81:../../os/oslib/src/chmemheaps.c **** /*===========================================================================*/
  82:../../os/oslib/src/chmemheaps.c **** /* Module local types.                                                       */
  83:../../os/oslib/src/chmemheaps.c **** /*===========================================================================*/
  84:../../os/oslib/src/chmemheaps.c **** 
  85:../../os/oslib/src/chmemheaps.c **** /*===========================================================================*/
  86:../../os/oslib/src/chmemheaps.c **** /* Module local variables.                                                   */
  87:../../os/oslib/src/chmemheaps.c **** /*===========================================================================*/
  88:../../os/oslib/src/chmemheaps.c **** 
  89:../../os/oslib/src/chmemheaps.c **** /**
  90:../../os/oslib/src/chmemheaps.c ****  * @brief   Default heap descriptor.
  91:../../os/oslib/src/chmemheaps.c ****  */
  92:../../os/oslib/src/chmemheaps.c **** static memory_heap_t default_heap;
  93:../../os/oslib/src/chmemheaps.c **** 
  94:../../os/oslib/src/chmemheaps.c **** /*===========================================================================*/
  95:../../os/oslib/src/chmemheaps.c **** /* Module local functions.                                                   */
  96:../../os/oslib/src/chmemheaps.c **** /*===========================================================================*/
  97:../../os/oslib/src/chmemheaps.c **** 
  98:../../os/oslib/src/chmemheaps.c **** /*===========================================================================*/
  99:../../os/oslib/src/chmemheaps.c **** /* Module exported functions.                                                */
 100:../../os/oslib/src/chmemheaps.c **** /*===========================================================================*/
 101:../../os/oslib/src/chmemheaps.c **** 
 102:../../os/oslib/src/chmemheaps.c **** /**
 103:../../os/oslib/src/chmemheaps.c ****  * @brief   Initializes the default heap.
 104:../../os/oslib/src/chmemheaps.c ****  *
 105:../../os/oslib/src/chmemheaps.c ****  * @notapi
 106:../../os/oslib/src/chmemheaps.c ****  */
 107:../../os/oslib/src/chmemheaps.c **** void __heap_init(void) {
  16               		.loc 1 107 24 view -0
  17               		.cfi_startproc
  18               	/* prologue: function */
  19               	/* frame size = 0 */
  20               	/* stack size = 0 */
  21               	.L__stack_usage = 0
 108:../../os/oslib/src/chmemheaps.c **** 
 109:../../os/oslib/src/chmemheaps.c ****   default_heap.provider = chCoreAllocAlignedWithOffset;
  22               		.loc 1 109 3 view .LVU1
  23               		.loc 1 109 25 is_stmt 0 view .LVU2
  24 0000 E0E0      		ldi r30,lo8(default_heap)
  25 0002 F0E0      		ldi r31,hi8(default_heap)
  26 0004 80E0      		ldi r24,lo8(gs(chCoreAllocFromTop))
  27 0006 90E0      		ldi r25,hi8(gs(chCoreAllocFromTop))
  28 0008 9183      		std Z+1,r25
  29 000a 8083      		st Z,r24
 110:../../os/oslib/src/chmemheaps.c ****   H_NEXT(&default_heap.header) = NULL;
  30               		.loc 1 110 3 is_stmt 1 view .LVU3
  31               		.loc 1 110 32 is_stmt 0 view .LVU4
  32 000c 1382      		std Z+3,__zero_reg__
  33 000e 1282      		std Z+2,__zero_reg__
 111:../../os/oslib/src/chmemheaps.c ****   H_PAGES(&default_heap.header) = 0;
  34               		.loc 1 111 3 is_stmt 1 view .LVU5
  35               		.loc 1 111 33 is_stmt 0 view .LVU6
  36 0010 1582      		std Z+5,__zero_reg__
  37 0012 1482      		std Z+4,__zero_reg__
 112:../../os/oslib/src/chmemheaps.c **** #if (CH_CFG_USE_MUTEXES == TRUE) || defined(__DOXYGEN__)
 113:../../os/oslib/src/chmemheaps.c ****   chMtxObjectInit(&default_heap.mtx);
 114:../../os/oslib/src/chmemheaps.c **** #else
 115:../../os/oslib/src/chmemheaps.c ****   chSemObjectInit(&default_heap.sem, (cnt_t)1);
  38               		.loc 1 115 3 is_stmt 1 view .LVU7
  39 0014 81E0      		ldi r24,lo8(1)
  40 0016 8683      		std Z+6,r24
  41               	/* epilogue start */
 116:../../os/oslib/src/chmemheaps.c **** #endif
 117:../../os/oslib/src/chmemheaps.c **** }
  42               		.loc 1 117 1 is_stmt 0 view .LVU8
  43 0018 0895      		ret
  44               		.cfi_endproc
  45               	.LFE98:
  47               		.section	.text.chHeapObjectInit,"ax",@progbits
  48               	.global	chHeapObjectInit
  50               	chHeapObjectInit:
  51               	.LVL0:
  52               	.LFB99:
 118:../../os/oslib/src/chmemheaps.c **** 
 119:../../os/oslib/src/chmemheaps.c **** /**
 120:../../os/oslib/src/chmemheaps.c ****  * @brief   Initializes a memory heap from a static memory area.
 121:../../os/oslib/src/chmemheaps.c ****  * @note    The heap buffer base and size are adjusted if the passed buffer
 122:../../os/oslib/src/chmemheaps.c ****  *          is not aligned to @p CH_HEAP_ALIGNMENT. This mean that the
 123:../../os/oslib/src/chmemheaps.c ****  *          effective heap size can be less than @p size.
 124:../../os/oslib/src/chmemheaps.c ****  *
 125:../../os/oslib/src/chmemheaps.c ****  * @param[out] heapp    pointer to the memory heap descriptor to be initialized
 126:../../os/oslib/src/chmemheaps.c ****  * @param[in] buf       heap buffer base
 127:../../os/oslib/src/chmemheaps.c ****  * @param[in] size      heap size
 128:../../os/oslib/src/chmemheaps.c ****  *
 129:../../os/oslib/src/chmemheaps.c ****  * @init
 130:../../os/oslib/src/chmemheaps.c ****  */
 131:../../os/oslib/src/chmemheaps.c **** void chHeapObjectInit(memory_heap_t *heapp, void *buf, size_t size) {
  53               		.loc 1 131 69 is_stmt 1 view -0
  54               		.cfi_startproc
  55               	/* prologue: function */
  56               	/* frame size = 0 */
  57               	/* stack size = 0 */
  58               	.L__stack_usage = 0
  59               		.loc 1 131 69 is_stmt 0 view .LVU10
  60 0000 DC01      		movw r26,r24
 132:../../os/oslib/src/chmemheaps.c ****   heap_header_t *hp = (heap_header_t *)MEM_ALIGN_NEXT(buf, CH_HEAP_ALIGNMENT);
  61               		.loc 1 132 3 is_stmt 1 view .LVU11
  62               		.loc 1 132 40 is_stmt 0 view .LVU12
  63 0002 FB01      		movw r30,r22
  64 0004 3396      		adiw r30,3
  65 0006 EC7F      		andi r30,252
  66               	.LVL1:
 133:../../os/oslib/src/chmemheaps.c **** 
 134:../../os/oslib/src/chmemheaps.c ****   chDbgCheck((heapp != NULL) && (size > 0U));
  67               		.loc 1 134 3 is_stmt 1 view .LVU13
  68               		.loc 1 134 3 view .LVU14
  69               		.loc 1 134 3 discriminator 7 view .LVU15
 135:../../os/oslib/src/chmemheaps.c **** 
 136:../../os/oslib/src/chmemheaps.c ****   /* Adjusting the size in case the initial block was not correctly
 137:../../os/oslib/src/chmemheaps.c ****      aligned.*/
 138:../../os/oslib/src/chmemheaps.c ****   /*lint -save -e9033 [10.8] Required cast operations.*/
 139:../../os/oslib/src/chmemheaps.c ****   size -= (size_t)((uint8_t *)hp - (uint8_t *)buf);
  70               		.loc 1 139 3 view .LVU16
 140:../../os/oslib/src/chmemheaps.c ****   /*lint restore*/
 141:../../os/oslib/src/chmemheaps.c **** 
 142:../../os/oslib/src/chmemheaps.c ****   /* Initializing the heap header.*/
 143:../../os/oslib/src/chmemheaps.c ****   heapp->provider = NULL;
  71               		.loc 1 143 3 view .LVU17
  72               		.loc 1 143 19 is_stmt 0 view .LVU18
  73 0008 1196      		adiw r26,1
  74 000a 1C92      		st X,__zero_reg__
  75 000c 1E92      		st -X,__zero_reg__
 144:../../os/oslib/src/chmemheaps.c ****   H_NEXT(&heapp->header) = hp;
  76               		.loc 1 144 3 is_stmt 1 view .LVU19
  77               		.loc 1 144 26 is_stmt 0 view .LVU20
  78 000e 1396      		adiw r26,2+1
  79 0010 FC93      		st X,r31
  80 0012 EE93      		st -X,r30
  81 0014 1297      		sbiw r26,2
 145:../../os/oslib/src/chmemheaps.c ****   H_PAGES(&heapp->header) = 0;
  82               		.loc 1 145 3 is_stmt 1 view .LVU21
  83               		.loc 1 145 27 is_stmt 0 view .LVU22
  84 0016 1596      		adiw r26,4+1
  85 0018 1C92      		st X,__zero_reg__
  86 001a 1E92      		st -X,__zero_reg__
  87 001c 1497      		sbiw r26,4
 146:../../os/oslib/src/chmemheaps.c ****   H_NEXT(hp) = NULL;
  88               		.loc 1 146 3 is_stmt 1 view .LVU23
  89               		.loc 1 146 14 is_stmt 0 view .LVU24
  90 001e 1182      		std Z+1,__zero_reg__
  91 0020 1082      		st Z,__zero_reg__
 147:../../os/oslib/src/chmemheaps.c ****   H_PAGES(hp) = (size - sizeof (heap_header_t)) / CH_HEAP_ALIGNMENT;
  92               		.loc 1 147 3 is_stmt 1 view .LVU25
  93               		.loc 1 147 23 is_stmt 0 view .LVU26
  94 0022 4450      		subi r20,4
  95 0024 5109      		sbc r21,__zero_reg__
  96               	.LVL2:
 139:../../os/oslib/src/chmemheaps.c ****   /*lint restore*/
  97               		.loc 1 139 34 view .LVU27
  98 0026 CF01      		movw r24,r30
  99               	.LVL3:
 139:../../os/oslib/src/chmemheaps.c ****   /*lint restore*/
 100               		.loc 1 139 34 view .LVU28
 101 0028 861B      		sub r24,r22
 102 002a 970B      		sbc r25,r23
 103               		.loc 1 147 23 view .LVU29
 104 002c 481B      		sub r20,r24
 105 002e 590B      		sbc r21,r25
 106               	.LVL4:
 107               		.loc 1 147 49 view .LVU30
 108 0030 5695      		lsr r21
 109 0032 4795      		ror r20
 110 0034 5695      		lsr r21
 111 0036 4795      		ror r20
 112               		.loc 1 147 15 view .LVU31
 113 0038 5383      		std Z+3,r21
 114 003a 4283      		std Z+2,r20
 148:../../os/oslib/src/chmemheaps.c **** #if (CH_CFG_USE_MUTEXES == TRUE) || defined(__DOXYGEN__)
 149:../../os/oslib/src/chmemheaps.c ****   chMtxObjectInit(&heapp->mtx);
 150:../../os/oslib/src/chmemheaps.c **** #else
 151:../../os/oslib/src/chmemheaps.c ****   chSemObjectInit(&heapp->sem, (cnt_t)1);
 115               		.loc 1 151 3 is_stmt 1 view .LVU32
 116 003c 81E0      		ldi r24,lo8(1)
 117 003e 1696      		adiw r26,6
 118 0040 8C93      		st X,r24
 119               	/* epilogue start */
 152:../../os/oslib/src/chmemheaps.c **** #endif
 153:../../os/oslib/src/chmemheaps.c **** }
 120               		.loc 1 153 1 is_stmt 0 view .LVU33
 121 0042 0895      		ret
 122               		.cfi_endproc
 123               	.LFE99:
 125               		.section	.text.chHeapAllocAligned,"ax",@progbits
 126               	.global	chHeapAllocAligned
 128               	chHeapAllocAligned:
 129               	.LVL5:
 130               	.LFB100:
 154:../../os/oslib/src/chmemheaps.c **** 
 155:../../os/oslib/src/chmemheaps.c **** /**
 156:../../os/oslib/src/chmemheaps.c ****  * @brief   Allocates a block of memory from the heap by using the first-fit
 157:../../os/oslib/src/chmemheaps.c ****  *          algorithm.
 158:../../os/oslib/src/chmemheaps.c ****  * @details The allocated block is guaranteed to be properly aligned to the
 159:../../os/oslib/src/chmemheaps.c ****  *          specified alignment.
 160:../../os/oslib/src/chmemheaps.c ****  *
 161:../../os/oslib/src/chmemheaps.c ****  * @param[in] heapp     pointer to a heap descriptor or @p NULL in order to
 162:../../os/oslib/src/chmemheaps.c ****  *                      access the default heap.
 163:../../os/oslib/src/chmemheaps.c ****  * @param[in] size      the size of the block to be allocated. Note that the
 164:../../os/oslib/src/chmemheaps.c ****  *                      allocated block may be a bit bigger than the requested
 165:../../os/oslib/src/chmemheaps.c ****  *                      size for alignment and fragmentation reasons.
 166:../../os/oslib/src/chmemheaps.c ****  * @param[in] align     desired memory alignment
 167:../../os/oslib/src/chmemheaps.c ****  * @return              A pointer to the aligned allocated block.
 168:../../os/oslib/src/chmemheaps.c ****  * @retval NULL         if the block cannot be allocated.
 169:../../os/oslib/src/chmemheaps.c ****  *
 170:../../os/oslib/src/chmemheaps.c ****  * @api
 171:../../os/oslib/src/chmemheaps.c ****  */
 172:../../os/oslib/src/chmemheaps.c **** void *chHeapAllocAligned(memory_heap_t *heapp, size_t size, unsigned align) {
 131               		.loc 1 172 77 is_stmt 1 view -0
 132               		.cfi_startproc
 133               		.loc 1 172 77 is_stmt 0 view .LVU35
 134 0000 2F92      		push r2
 135               	.LCFI0:
 136               		.cfi_def_cfa_offset 3
 137               		.cfi_offset 2, -2
 138 0002 3F92      		push r3
 139               	.LCFI1:
 140               		.cfi_def_cfa_offset 4
 141               		.cfi_offset 3, -3
 142 0004 4F92      		push r4
 143               	.LCFI2:
 144               		.cfi_def_cfa_offset 5
 145               		.cfi_offset 4, -4
 146 0006 5F92      		push r5
 147               	.LCFI3:
 148               		.cfi_def_cfa_offset 6
 149               		.cfi_offset 5, -5
 150 0008 6F92      		push r6
 151               	.LCFI4:
 152               		.cfi_def_cfa_offset 7
 153               		.cfi_offset 6, -6
 154 000a 7F92      		push r7
 155               	.LCFI5:
 156               		.cfi_def_cfa_offset 8
 157               		.cfi_offset 7, -7
 158 000c 8F92      		push r8
 159               	.LCFI6:
 160               		.cfi_def_cfa_offset 9
 161               		.cfi_offset 8, -8
 162 000e 9F92      		push r9
 163               	.LCFI7:
 164               		.cfi_def_cfa_offset 10
 165               		.cfi_offset 9, -9
 166 0010 AF92      		push r10
 167               	.LCFI8:
 168               		.cfi_def_cfa_offset 11
 169               		.cfi_offset 10, -10
 170 0012 BF92      		push r11
 171               	.LCFI9:
 172               		.cfi_def_cfa_offset 12
 173               		.cfi_offset 11, -11
 174 0014 CF92      		push r12
 175               	.LCFI10:
 176               		.cfi_def_cfa_offset 13
 177               		.cfi_offset 12, -12
 178 0016 DF92      		push r13
 179               	.LCFI11:
 180               		.cfi_def_cfa_offset 14
 181               		.cfi_offset 13, -13
 182 0018 EF92      		push r14
 183               	.LCFI12:
 184               		.cfi_def_cfa_offset 15
 185               		.cfi_offset 14, -14
 186 001a FF92      		push r15
 187               	.LCFI13:
 188               		.cfi_def_cfa_offset 16
 189               		.cfi_offset 15, -15
 190 001c 0F93      		push r16
 191               	.LCFI14:
 192               		.cfi_def_cfa_offset 17
 193               		.cfi_offset 16, -16
 194 001e 1F93      		push r17
 195               	.LCFI15:
 196               		.cfi_def_cfa_offset 18
 197               		.cfi_offset 17, -17
 198 0020 CF93      		push r28
 199               	.LCFI16:
 200               		.cfi_def_cfa_offset 19
 201               		.cfi_offset 28, -18
 202 0022 DF93      		push r29
 203               	.LCFI17:
 204               		.cfi_def_cfa_offset 20
 205               		.cfi_offset 29, -19
 206               	/* prologue: function */
 207               	/* frame size = 0 */
 208               	/* stack size = 18 */
 209               	.L__stack_usage = 18
 210 0024 5C01      		movw r10,r24
 211 0026 2B01      		movw r4,r22
 173:../../os/oslib/src/chmemheaps.c ****   heap_header_t *qp, *hp, *ahp;
 212               		.loc 1 173 3 is_stmt 1 view .LVU36
 174:../../os/oslib/src/chmemheaps.c ****   size_t pages;
 213               		.loc 1 174 3 view .LVU37
 175:../../os/oslib/src/chmemheaps.c **** 
 176:../../os/oslib/src/chmemheaps.c ****   chDbgCheck((size > 0U) && MEM_IS_VALID_ALIGNMENT(align));
 214               		.loc 1 176 3 view .LVU38
 215               		.loc 1 176 3 view .LVU39
 216               		.loc 1 176 3 discriminator 9 view .LVU40
 177:../../os/oslib/src/chmemheaps.c **** 
 178:../../os/oslib/src/chmemheaps.c ****   /* If an heap is not specified then the default system header is used.*/
 179:../../os/oslib/src/chmemheaps.c ****   if (heapp == NULL) {
 217               		.loc 1 179 3 view .LVU41
 218               		.loc 1 179 6 is_stmt 0 view .LVU42
 219 0028 892B      		or r24,r25
 220 002a 01F4      		brne .+2
 221 002c 00C0      		rjmp .L26
 222               	.L5:
 223               	.LVL6:
 180:../../os/oslib/src/chmemheaps.c ****     heapp = &default_heap;
 181:../../os/oslib/src/chmemheaps.c ****   }
 182:../../os/oslib/src/chmemheaps.c **** 
 183:../../os/oslib/src/chmemheaps.c ****   /* Minimum alignment is constrained by the heap header structure size.*/
 184:../../os/oslib/src/chmemheaps.c ****   if (align < CH_HEAP_ALIGNMENT) {
 224               		.loc 1 184 3 is_stmt 1 view .LVU43
 225               		.loc 1 184 6 is_stmt 0 view .LVU44
 226 002e 4A01      		movw r8,r20
 227 0030 4430      		cpi r20,4
 228 0032 5105      		cpc r21,__zero_reg__
 229 0034 00F4      		brsh .L6
 230               	.LVL7:
 231               		.loc 1 184 6 view .LVU45
 232 0036 94E0      		ldi r25,lo8(4)
 233 0038 892E      		mov r8,r25
 234 003a 912C      		mov r9,__zero_reg__
 235               	.LVL8:
 236               	.L6:
 185:../../os/oslib/src/chmemheaps.c ****     align = CH_HEAP_ALIGNMENT;
 186:../../os/oslib/src/chmemheaps.c ****   }
 187:../../os/oslib/src/chmemheaps.c **** 
 188:../../os/oslib/src/chmemheaps.c ****   /* Size is converted in number of elementary allocation units.*/
 189:../../os/oslib/src/chmemheaps.c ****   pages = MEM_ALIGN_NEXT(size, CH_HEAP_ALIGNMENT) / CH_HEAP_ALIGNMENT;
 237               		.loc 1 189 3 is_stmt 1 view .LVU46
 238               		.loc 1 189 11 is_stmt 0 view .LVU47
 239 003c 8201      		movw r16,r4
 240 003e 0D5F      		subi r16,-3
 241 0040 1F4F      		sbci r17,-1
 242               		.loc 1 189 9 view .LVU48
 243 0042 1695      		lsr r17
 244 0044 0795      		ror r16
 245 0046 1695      		lsr r17
 246 0048 0795      		ror r16
 247               	.LVL9:
 190:../../os/oslib/src/chmemheaps.c **** 
 191:../../os/oslib/src/chmemheaps.c ****   /* Taking heap mutex/semaphore.*/
 192:../../os/oslib/src/chmemheaps.c ****   H_LOCK(heapp);
 248               		.loc 1 192 3 is_stmt 1 view .LVU49
 249 004a 3501      		movw r6,r10
 250 004c A6E0      		ldi r26,6
 251 004e 6A0E      		add r6,r26
 252 0050 711C      		adc r7,__zero_reg__
 253 0052 60E0      		ldi r22,0
 254 0054 70E0      		ldi r23,0
 255               	.LVL10:
 256               		.loc 1 192 3 is_stmt 0 view .LVU50
 257 0056 C301      		movw r24,r6
 258 0058 0E94 0000 		call chSemWaitTimeout
 259               	.LVL11:
 193:../../os/oslib/src/chmemheaps.c **** 
 194:../../os/oslib/src/chmemheaps.c ****   /* Start of the free blocks list.*/
 195:../../os/oslib/src/chmemheaps.c ****   qp = &heapp->header;
 260               		.loc 1 195 3 is_stmt 1 view .LVU51
 261               		.loc 1 195 6 is_stmt 0 view .LVU52
 262 005c 6501      		movw r12,r10
 263 005e B2E0      		ldi r27,2
 264 0060 CB0E      		add r12,r27
 265 0062 D11C      		adc r13,__zero_reg__
 266               	.LVL12:
 196:../../os/oslib/src/chmemheaps.c ****   while (H_NEXT(qp) != NULL) {
 267               		.loc 1 196 3 is_stmt 1 view .LVU53
 268               		.loc 1 196 21 view .LVU54
 269               		.loc 1 196 10 is_stmt 0 view .LVU55
 270 0064 E501      		movw r28,r10
 271 0066 EA81      		ldd r30,Y+2
 272 0068 FB81      		ldd r31,Y+3
 273               		.loc 1 196 21 view .LVU56
 274 006a 3097      		sbiw r30,0
 275 006c 01F0      		breq .L7
 276               		.loc 1 196 21 view .LVU57
 277 006e 7401      		movw r14,r8
 278 0070 D3E0      		ldi r29,3
 279 0072 ED0E      		add r14,r29
 280 0074 F11C      		adc r15,__zero_reg__
 197:../../os/oslib/src/chmemheaps.c **** 
 198:../../os/oslib/src/chmemheaps.c ****     /* Next free block.*/
 199:../../os/oslib/src/chmemheaps.c ****     hp = H_NEXT(qp);
 200:../../os/oslib/src/chmemheaps.c **** 
 201:../../os/oslib/src/chmemheaps.c ****     /* Pointer aligned to the requested alignment.*/
 202:../../os/oslib/src/chmemheaps.c ****     ahp = (heap_header_t *)MEM_ALIGN_NEXT(H_BLOCK(hp), align) - 1U;
 281               		.loc 1 202 28 view .LVU58
 282 0076 6627      		clr r22
 283 0078 7727      		clr r23
 284 007a 6819      		sub r22,r8
 285 007c 7909      		sbc r23,r9
 286 007e 00C0      		rjmp .L15
 287               	.LVL13:
 288               	.L18:
 289               		.loc 1 202 28 view .LVU59
 290 0080 FC01      		movw r30,r24
 291               	.LVL14:
 292               	.L15:
 199:../../os/oslib/src/chmemheaps.c **** 
 293               		.loc 1 199 5 is_stmt 1 view .LVU60
 294               		.loc 1 202 5 view .LVU61
 295               		.loc 1 202 28 is_stmt 0 view .LVU62
 296 0082 9F01      		movw r18,r30
 297 0084 2E0D      		add r18,r14
 298 0086 3F1D      		adc r19,r15
 299 0088 2623      		and r18,r22
 300 008a 3723      		and r19,r23
 301               		.loc 1 202 63 view .LVU63
 302 008c D901      		movw r26,r18
 303 008e 1497      		sbiw r26,4
 304               	.LVL15:
 203:../../os/oslib/src/chmemheaps.c **** 
 204:../../os/oslib/src/chmemheaps.c ****     if ((ahp < H_LIMIT(hp)) && (pages <= NPAGES(H_LIMIT(hp), ahp + 1U))) {
 305               		.loc 1 204 5 is_stmt 1 view .LVU64
 306               		.loc 1 204 16 is_stmt 0 view .LVU65
 307 0090 4281      		ldd r20,Z+2
 308 0092 5381      		ldd r21,Z+3
 309 0094 CA01      		movw r24,r20
 310 0096 0196      		adiw r24,1
 311 0098 880F      		lsl r24
 312 009a 991F      		rol r25
 313 009c 880F      		lsl r24
 314 009e 991F      		rol r25
 315 00a0 8E0F      		add r24,r30
 316 00a2 9F1F      		adc r25,r31
 317               		.loc 1 204 8 view .LVU66
 318 00a4 A817      		cp r26,r24
 319 00a6 B907      		cpc r27,r25
 320 00a8 00F4      		brsh .L8
 321               		.loc 1 204 42 discriminator 1 view .LVU67
 322 00aa 1901      		movw r2,r18
 323 00ac 9C01      		movw r18,r24
 324 00ae 2219      		sub r18,r2
 325 00b0 3309      		sbc r19,r3
 326 00b2 3595      		asr r19
 327 00b4 2795      		ror r18
 328 00b6 3595      		asr r19
 329 00b8 2795      		ror r18
 330               		.loc 1 204 29 discriminator 1 view .LVU68
 331 00ba 2017      		cp r18,r16
 332 00bc 3107      		cpc r19,r17
 333 00be 00F4      		brsh .L27
 334               	.L8:
 335               	.LVL16:
 196:../../os/oslib/src/chmemheaps.c **** 
 336               		.loc 1 196 21 is_stmt 1 view .LVU69
 196:../../os/oslib/src/chmemheaps.c **** 
 337               		.loc 1 196 10 is_stmt 0 view .LVU70
 338 00c0 8081      		ld r24,Z
 339 00c2 9181      		ldd r25,Z+1
 340 00c4 6F01      		movw r12,r30
 196:../../os/oslib/src/chmemheaps.c **** 
 341               		.loc 1 196 21 view .LVU71
 342 00c6 0097      		sbiw r24,0
 343 00c8 01F4      		brne .L18
 344               	.LVL17:
 345               	.L7:
 205:../../os/oslib/src/chmemheaps.c ****       /* The block is large enough to contain a correctly aligned area
 206:../../os/oslib/src/chmemheaps.c ****          of sufficient size.*/
 207:../../os/oslib/src/chmemheaps.c **** 
 208:../../os/oslib/src/chmemheaps.c ****       if (ahp > hp) {
 209:../../os/oslib/src/chmemheaps.c ****         /* The block is not properly aligned, must split it.*/
 210:../../os/oslib/src/chmemheaps.c ****         size_t bpages;
 211:../../os/oslib/src/chmemheaps.c **** 
 212:../../os/oslib/src/chmemheaps.c ****         bpages = NPAGES(H_LIMIT(hp), H_BLOCK(ahp));
 213:../../os/oslib/src/chmemheaps.c ****         H_PAGES(hp) = NPAGES(ahp, H_BLOCK(hp));
 214:../../os/oslib/src/chmemheaps.c ****         if (bpages > pages) {
 215:../../os/oslib/src/chmemheaps.c ****           /* The block is bigger than required, must split the excess.*/
 216:../../os/oslib/src/chmemheaps.c ****           heap_header_t *fp;
 217:../../os/oslib/src/chmemheaps.c **** 
 218:../../os/oslib/src/chmemheaps.c ****           /* Creating the excess block.*/
 219:../../os/oslib/src/chmemheaps.c ****           fp = H_BLOCK(ahp) + pages;
 220:../../os/oslib/src/chmemheaps.c ****           H_PAGES(fp) = (bpages - pages) - 1U;
 221:../../os/oslib/src/chmemheaps.c **** 
 222:../../os/oslib/src/chmemheaps.c ****           /* Linking the excess block.*/
 223:../../os/oslib/src/chmemheaps.c ****           H_NEXT(fp) = H_NEXT(hp);
 224:../../os/oslib/src/chmemheaps.c ****           H_NEXT(hp) = fp;
 225:../../os/oslib/src/chmemheaps.c ****         }
 226:../../os/oslib/src/chmemheaps.c **** 
 227:../../os/oslib/src/chmemheaps.c ****         hp = ahp;
 228:../../os/oslib/src/chmemheaps.c ****       }
 229:../../os/oslib/src/chmemheaps.c ****       else {
 230:../../os/oslib/src/chmemheaps.c ****         /* The block is already properly aligned.*/
 231:../../os/oslib/src/chmemheaps.c **** 
 232:../../os/oslib/src/chmemheaps.c ****         if (H_PAGES(hp) == pages) {
 233:../../os/oslib/src/chmemheaps.c ****           /* Exact size, getting the whole block.*/
 234:../../os/oslib/src/chmemheaps.c ****           H_NEXT(qp) = H_NEXT(hp);
 235:../../os/oslib/src/chmemheaps.c ****         }
 236:../../os/oslib/src/chmemheaps.c ****         else {
 237:../../os/oslib/src/chmemheaps.c ****           /* The block is bigger than required, must split the excess.*/
 238:../../os/oslib/src/chmemheaps.c ****           heap_header_t *fp;
 239:../../os/oslib/src/chmemheaps.c **** 
 240:../../os/oslib/src/chmemheaps.c ****           fp = H_BLOCK(hp) + pages;
 241:../../os/oslib/src/chmemheaps.c ****           H_NEXT(fp) = H_NEXT(hp);
 242:../../os/oslib/src/chmemheaps.c ****           H_PAGES(fp) = NPAGES(H_LIMIT(hp), H_BLOCK(fp));
 243:../../os/oslib/src/chmemheaps.c ****           H_NEXT(qp) = fp;
 244:../../os/oslib/src/chmemheaps.c ****         }
 245:../../os/oslib/src/chmemheaps.c ****       }
 246:../../os/oslib/src/chmemheaps.c **** 
 247:../../os/oslib/src/chmemheaps.c ****       /* Setting in the block owner heap and size.*/
 248:../../os/oslib/src/chmemheaps.c ****       H_SIZE(hp) = size;
 249:../../os/oslib/src/chmemheaps.c ****       H_HEAP(hp) = heapp;
 250:../../os/oslib/src/chmemheaps.c **** 
 251:../../os/oslib/src/chmemheaps.c ****       /* Releasing heap mutex/semaphore.*/
 252:../../os/oslib/src/chmemheaps.c ****       H_UNLOCK(heapp);
 253:../../os/oslib/src/chmemheaps.c **** 
 254:../../os/oslib/src/chmemheaps.c ****       /*lint -save -e9087 [11.3] Safe cast.*/
 255:../../os/oslib/src/chmemheaps.c ****       return (void *)H_BLOCK(hp);
 256:../../os/oslib/src/chmemheaps.c ****       /*lint -restore*/
 257:../../os/oslib/src/chmemheaps.c ****     }
 258:../../os/oslib/src/chmemheaps.c **** 
 259:../../os/oslib/src/chmemheaps.c ****     /* Next in the free blocks list.*/
 260:../../os/oslib/src/chmemheaps.c ****     qp = hp;
 261:../../os/oslib/src/chmemheaps.c ****   }
 262:../../os/oslib/src/chmemheaps.c **** 
 263:../../os/oslib/src/chmemheaps.c ****   /* Releasing heap mutex/semaphore.*/
 264:../../os/oslib/src/chmemheaps.c ****   H_UNLOCK(heapp);
 346               		.loc 1 264 3 is_stmt 1 view .LVU72
 347 00ca C301      		movw r24,r6
 348 00cc 0E94 0000 		call chSemSignal
 349               	.LVL18:
 265:../../os/oslib/src/chmemheaps.c **** 
 266:../../os/oslib/src/chmemheaps.c ****   /* More memory is required, tries to get it from the associated provider
 267:../../os/oslib/src/chmemheaps.c ****      else fails.*/
 268:../../os/oslib/src/chmemheaps.c ****   if (heapp->provider != NULL) {
 350               		.loc 1 268 3 view .LVU73
 351               		.loc 1 268 12 is_stmt 0 view .LVU74
 352 00d0 E501      		movw r28,r10
 353 00d2 E881      		ld r30,Y
 354 00d4 F981      		ldd r31,Y+1
 269:../../os/oslib/src/chmemheaps.c ****     ahp = heapp->provider(pages * CH_HEAP_ALIGNMENT,
 270:../../os/oslib/src/chmemheaps.c ****                           align,
 271:../../os/oslib/src/chmemheaps.c ****                           sizeof (heap_header_t));
 272:../../os/oslib/src/chmemheaps.c ****     if (ahp != NULL) {
 273:../../os/oslib/src/chmemheaps.c ****       hp = ahp - 1U;
 274:../../os/oslib/src/chmemheaps.c ****       H_HEAP(hp) = heapp;
 275:../../os/oslib/src/chmemheaps.c ****       H_SIZE(hp) = size;
 276:../../os/oslib/src/chmemheaps.c **** 
 277:../../os/oslib/src/chmemheaps.c ****       /*lint -save -e9087 [11.3] Safe cast.*/
 278:../../os/oslib/src/chmemheaps.c ****       return (void *)ahp;
 279:../../os/oslib/src/chmemheaps.c ****       /*lint -restore*/
 280:../../os/oslib/src/chmemheaps.c ****     }
 281:../../os/oslib/src/chmemheaps.c ****   }
 282:../../os/oslib/src/chmemheaps.c **** 
 283:../../os/oslib/src/chmemheaps.c ****   return NULL;
 355               		.loc 1 283 10 view .LVU75
 356 00d6 212C      		mov r2,__zero_reg__
 357 00d8 312C      		mov r3,__zero_reg__
 268:../../os/oslib/src/chmemheaps.c ****     ahp = heapp->provider(pages * CH_HEAP_ALIGNMENT,
 358               		.loc 1 268 6 view .LVU76
 359 00da 3097      		sbiw r30,0
 360 00dc 01F0      		breq .L4
 269:../../os/oslib/src/chmemheaps.c ****     ahp = heapp->provider(pages * CH_HEAP_ALIGNMENT,
 361               		.loc 1 269 5 is_stmt 1 view .LVU77
 269:../../os/oslib/src/chmemheaps.c ****     ahp = heapp->provider(pages * CH_HEAP_ALIGNMENT,
 362               		.loc 1 269 11 is_stmt 0 view .LVU78
 363 00de 44E0      		ldi r20,lo8(4)
 364 00e0 50E0      		ldi r21,0
 365 00e2 B401      		movw r22,r8
 366 00e4 C801      		movw r24,r16
 367 00e6 880F      		lsl r24
 368 00e8 991F      		rol r25
 369 00ea 880F      		lsl r24
 370 00ec 991F      		rol r25
 371 00ee 0995      		icall
 372               	.LVL19:
 373 00f0 1C01      		movw r2,r24
 374               	.LVL20:
 272:../../os/oslib/src/chmemheaps.c ****       hp = ahp - 1U;
 375               		.loc 1 272 5 is_stmt 1 view .LVU79
 272:../../os/oslib/src/chmemheaps.c ****       hp = ahp - 1U;
 376               		.loc 1 272 8 is_stmt 0 view .LVU80
 377 00f2 0097      		sbiw r24,0
 378 00f4 01F0      		breq .L4
 273:../../os/oslib/src/chmemheaps.c ****       H_HEAP(hp) = heapp;
 379               		.loc 1 273 7 is_stmt 1 view .LVU81
 380               	.LVL21:
 274:../../os/oslib/src/chmemheaps.c ****       H_SIZE(hp) = size;
 381               		.loc 1 274 7 view .LVU82
 274:../../os/oslib/src/chmemheaps.c ****       H_SIZE(hp) = size;
 382               		.loc 1 274 18 is_stmt 0 view .LVU83
 383 00f6 FC01      		movw r30,r24
 384 00f8 3497      		sbiw r30,4
 385               	.LVL22:
 274:../../os/oslib/src/chmemheaps.c ****       H_SIZE(hp) = size;
 386               		.loc 1 274 18 view .LVU84
 387 00fa B182      		std Z+1,r11
 388 00fc A082      		st Z,r10
 275:../../os/oslib/src/chmemheaps.c **** 
 389               		.loc 1 275 7 is_stmt 1 view .LVU85
 275:../../os/oslib/src/chmemheaps.c **** 
 390               		.loc 1 275 18 is_stmt 0 view .LVU86
 391 00fe 5382      		std Z+3,r5
 392 0100 4282      		std Z+2,r4
 278:../../os/oslib/src/chmemheaps.c ****       /*lint -restore*/
 393               		.loc 1 278 7 is_stmt 1 view .LVU87
 394               	.LVL23:
 395               	.L4:
 284:../../os/oslib/src/chmemheaps.c **** }
 396               		.loc 1 284 1 is_stmt 0 view .LVU88
 397 0102 C101      		movw r24,r2
 398               	/* epilogue start */
 399 0104 DF91      		pop r29
 400 0106 CF91      		pop r28
 401 0108 1F91      		pop r17
 402 010a 0F91      		pop r16
 403               	.LVL24:
 404               		.loc 1 284 1 view .LVU89
 405 010c FF90      		pop r15
 406 010e EF90      		pop r14
 407 0110 DF90      		pop r13
 408 0112 CF90      		pop r12
 409               	.LVL25:
 410               		.loc 1 284 1 view .LVU90
 411 0114 BF90      		pop r11
 412 0116 AF90      		pop r10
 413               	.LVL26:
 414               		.loc 1 284 1 view .LVU91
 415 0118 9F90      		pop r9
 416 011a 8F90      		pop r8
 417               	.LVL27:
 418               		.loc 1 284 1 view .LVU92
 419 011c 7F90      		pop r7
 420 011e 6F90      		pop r6
 421               	.LVL28:
 422               		.loc 1 284 1 view .LVU93
 423 0120 5F90      		pop r5
 424 0122 4F90      		pop r4
 425               	.LVL29:
 426               		.loc 1 284 1 view .LVU94
 427 0124 3F90      		pop r3
 428 0126 2F90      		pop r2
 429 0128 0895      		ret
 430               	.LVL30:
 431               	.L27:
 208:../../os/oslib/src/chmemheaps.c ****         /* The block is not properly aligned, must split it.*/
 432               		.loc 1 208 7 is_stmt 1 view .LVU95
 433               	.LBB2:
 213:../../os/oslib/src/chmemheaps.c ****         if (bpages > pages) {
 434               		.loc 1 213 23 is_stmt 0 view .LVU96
 435 012a BF01      		movw r22,r30
 436 012c 6C5F      		subi r22,-4
 437 012e 7F4F      		sbci r23,-1
 438               	.LBE2:
 208:../../os/oslib/src/chmemheaps.c ****         /* The block is not properly aligned, must split it.*/
 439               		.loc 1 208 10 view .LVU97
 440 0130 EA17      		cp r30,r26
 441 0132 FB07      		cpc r31,r27
 442 0134 00F0      		brlo .L28
 232:../../os/oslib/src/chmemheaps.c ****           /* Exact size, getting the whole block.*/
 443               		.loc 1 232 9 is_stmt 1 view .LVU98
 444               	.LBB5:
 445               	.LBB3:
 223:../../os/oslib/src/chmemheaps.c ****           H_NEXT(hp) = fp;
 446               		.loc 1 223 24 is_stmt 0 view .LVU99
 447 0136 3081      		ld r19,Z
 448 0138 2181      		ldd r18,Z+1
 449               	.LBE3:
 450               	.LBE5:
 232:../../os/oslib/src/chmemheaps.c ****           /* Exact size, getting the whole block.*/
 451               		.loc 1 232 12 view .LVU100
 452 013a 4017      		cp r20,r16
 453 013c 5107      		cpc r21,r17
 454 013e 01F0      		breq .L13
 455               	.LBB6:
 238:../../os/oslib/src/chmemheaps.c **** 
 456               		.loc 1 238 11 is_stmt 1 view .LVU101
 240:../../os/oslib/src/chmemheaps.c ****           H_NEXT(fp) = H_NEXT(hp);
 457               		.loc 1 240 11 view .LVU102
 240:../../os/oslib/src/chmemheaps.c ****           H_NEXT(fp) = H_NEXT(hp);
 458               		.loc 1 240 28 is_stmt 0 view .LVU103
 459 0140 D801      		movw r26,r16
 460               	.LVL31:
 240:../../os/oslib/src/chmemheaps.c ****           H_NEXT(fp) = H_NEXT(hp);
 461               		.loc 1 240 28 view .LVU104
 462 0142 1196      		adiw r26,1
 463 0144 AA0F      		lsl r26
 464 0146 BB1F      		rol r27
 465 0148 AA0F      		lsl r26
 466 014a BB1F      		rol r27
 240:../../os/oslib/src/chmemheaps.c ****           H_NEXT(fp) = H_NEXT(hp);
 467               		.loc 1 240 14 view .LVU105
 468 014c AE0F      		add r26,r30
 469 014e BF1F      		adc r27,r31
 470               	.LVL32:
 241:../../os/oslib/src/chmemheaps.c ****           H_PAGES(fp) = NPAGES(H_LIMIT(hp), H_BLOCK(fp));
 471               		.loc 1 241 11 is_stmt 1 view .LVU106
 241:../../os/oslib/src/chmemheaps.c ****           H_PAGES(fp) = NPAGES(H_LIMIT(hp), H_BLOCK(fp));
 472               		.loc 1 241 22 is_stmt 0 view .LVU107
 473 0150 3C93      		st X,r19
 474 0152 1196      		adiw r26,1
 475 0154 2C93      		st X,r18
 476 0156 1197      		sbiw r26,1
 242:../../os/oslib/src/chmemheaps.c ****           H_NEXT(qp) = fp;
 477               		.loc 1 242 11 is_stmt 1 view .LVU108
 242:../../os/oslib/src/chmemheaps.c ****           H_NEXT(qp) = fp;
 478               		.loc 1 242 25 is_stmt 0 view .LVU109
 479 0158 9D01      		movw r18,r26
 480 015a 2C5F      		subi r18,-4
 481 015c 3F4F      		sbci r19,-1
 482 015e 821B      		sub r24,r18
 483 0160 930B      		sbc r25,r19
 484 0162 9595      		asr r25
 485 0164 8795      		ror r24
 486 0166 9595      		asr r25
 487 0168 8795      		ror r24
 242:../../os/oslib/src/chmemheaps.c ****           H_NEXT(qp) = fp;
 488               		.loc 1 242 23 view .LVU110
 489 016a 1396      		adiw r26,2+1
 490 016c 9C93      		st X,r25
 491 016e 8E93      		st -X,r24
 492 0170 1297      		sbiw r26,2
 243:../../os/oslib/src/chmemheaps.c ****         }
 493               		.loc 1 243 11 is_stmt 1 view .LVU111
 242:../../os/oslib/src/chmemheaps.c ****           H_NEXT(qp) = fp;
 494               		.loc 1 242 23 is_stmt 0 view .LVU112
 495 0172 3A2F      		mov r19,r26
 496 0174 2B2F      		mov r18,r27
 497               	.LVL33:
 498               	.L13:
 243:../../os/oslib/src/chmemheaps.c ****         }
 499               		.loc 1 243 22 view .LVU113
 500 0176 D601      		movw r26,r12
 501 0178 3C93      		st X,r19
 502 017a 1196      		adiw r26,1
 503 017c 2C93      		st X,r18
 504 017e 1B01      		movw r2,r22
 505               	.LVL34:
 243:../../os/oslib/src/chmemheaps.c ****         }
 506               		.loc 1 243 22 view .LVU114
 507               	.LBE6:
 199:../../os/oslib/src/chmemheaps.c **** 
 508               		.loc 1 199 8 view .LVU115
 509 0180 DF01      		movw r26,r30
 510               	.L11:
 511               	.LVL35:
 248:../../os/oslib/src/chmemheaps.c ****       H_HEAP(hp) = heapp;
 512               		.loc 1 248 7 is_stmt 1 view .LVU116
 248:../../os/oslib/src/chmemheaps.c ****       H_HEAP(hp) = heapp;
 513               		.loc 1 248 18 is_stmt 0 view .LVU117
 514 0182 1396      		adiw r26,2+1
 515 0184 5C92      		st X,r5
 516 0186 4E92      		st -X,r4
 517 0188 1297      		sbiw r26,2
 249:../../os/oslib/src/chmemheaps.c **** 
 518               		.loc 1 249 7 is_stmt 1 view .LVU118
 249:../../os/oslib/src/chmemheaps.c **** 
 519               		.loc 1 249 18 is_stmt 0 view .LVU119
 520 018a AD92      		st X+,r10
 521 018c BC92      		st X,r11
 252:../../os/oslib/src/chmemheaps.c **** 
 522               		.loc 1 252 7 is_stmt 1 view .LVU120
 523 018e C301      		movw r24,r6
 524 0190 0E94 0000 		call chSemSignal
 525               	.LVL36:
 255:../../os/oslib/src/chmemheaps.c ****       /*lint -restore*/
 526               		.loc 1 255 7 view .LVU121
 255:../../os/oslib/src/chmemheaps.c ****       /*lint -restore*/
 527               		.loc 1 255 14 is_stmt 0 view .LVU122
 528 0194 00C0      		rjmp .L4
 529               	.LVL37:
 530               	.L26:
 180:../../os/oslib/src/chmemheaps.c ****   }
 531               		.loc 1 180 11 view .LVU123
 532 0196 20E0      		ldi r18,lo8(default_heap)
 533 0198 A22E      		mov r10,r18
 534 019a 20E0      		ldi r18,hi8(default_heap)
 535 019c B22E      		mov r11,r18
 536               	.LVL38:
 180:../../os/oslib/src/chmemheaps.c ****   }
 537               		.loc 1 180 11 view .LVU124
 538 019e 00C0      		rjmp .L5
 539               	.LVL39:
 540               	.L28:
 541               	.LBB7:
 210:../../os/oslib/src/chmemheaps.c **** 
 542               		.loc 1 210 9 is_stmt 1 view .LVU125
 212:../../os/oslib/src/chmemheaps.c ****         H_PAGES(hp) = NPAGES(ahp, H_BLOCK(hp));
 543               		.loc 1 212 9 view .LVU126
 213:../../os/oslib/src/chmemheaps.c ****         if (bpages > pages) {
 544               		.loc 1 213 9 view .LVU127
 213:../../os/oslib/src/chmemheaps.c ****         if (bpages > pages) {
 545               		.loc 1 213 23 is_stmt 0 view .LVU128
 546 01a0 CD01      		movw r24,r26
 547 01a2 861B      		sub r24,r22
 548 01a4 970B      		sbc r25,r23
 549 01a6 9595      		asr r25
 550 01a8 8795      		ror r24
 551 01aa 9595      		asr r25
 552 01ac 8795      		ror r24
 213:../../os/oslib/src/chmemheaps.c ****         if (bpages > pages) {
 553               		.loc 1 213 21 view .LVU129
 554 01ae 9383      		std Z+3,r25
 555 01b0 8283      		std Z+2,r24
 214:../../os/oslib/src/chmemheaps.c ****           /* The block is bigger than required, must split the excess.*/
 556               		.loc 1 214 9 is_stmt 1 view .LVU130
 214:../../os/oslib/src/chmemheaps.c ****           /* The block is bigger than required, must split the excess.*/
 557               		.loc 1 214 12 is_stmt 0 view .LVU131
 558 01b2 0217      		cp r16,r18
 559 01b4 1307      		cpc r17,r19
 560 01b6 00F4      		brsh .L11
 561               	.LBB4:
 216:../../os/oslib/src/chmemheaps.c **** 
 562               		.loc 1 216 11 is_stmt 1 view .LVU132
 219:../../os/oslib/src/chmemheaps.c ****           H_PAGES(fp) = (bpages - pages) - 1U;
 563               		.loc 1 219 11 view .LVU133
 219:../../os/oslib/src/chmemheaps.c ****           H_PAGES(fp) = (bpages - pages) - 1U;
 564               		.loc 1 219 29 is_stmt 0 view .LVU134
 565 01b8 A801      		movw r20,r16
 566 01ba 4F5F      		subi r20,-1
 567 01bc 5F4F      		sbci r21,-1
 568 01be 440F      		lsl r20
 569 01c0 551F      		rol r21
 570 01c2 440F      		lsl r20
 571 01c4 551F      		rol r21
 219:../../os/oslib/src/chmemheaps.c ****           H_PAGES(fp) = (bpages - pages) - 1U;
 572               		.loc 1 219 14 view .LVU135
 573 01c6 4A0F      		add r20,r26
 574 01c8 5B1F      		adc r21,r27
 575               	.LVL40:
 220:../../os/oslib/src/chmemheaps.c **** 
 576               		.loc 1 220 11 is_stmt 1 view .LVU136
 220:../../os/oslib/src/chmemheaps.c **** 
 577               		.loc 1 220 42 is_stmt 0 view .LVU137
 578 01ca 201B      		sub r18,r16
 579 01cc 310B      		sbc r19,r17
 580               	.LVL41:
 220:../../os/oslib/src/chmemheaps.c **** 
 581               		.loc 1 220 42 view .LVU138
 582 01ce 2150      		subi r18,1
 583 01d0 3109      		sbc r19,__zero_reg__
 220:../../os/oslib/src/chmemheaps.c **** 
 584               		.loc 1 220 23 view .LVU139
 585 01d2 EA01      		movw r28,r20
 586 01d4 3B83      		std Y+3,r19
 587 01d6 2A83      		std Y+2,r18
 223:../../os/oslib/src/chmemheaps.c ****           H_NEXT(hp) = fp;
 588               		.loc 1 223 11 is_stmt 1 view .LVU140
 223:../../os/oslib/src/chmemheaps.c ****           H_NEXT(hp) = fp;
 589               		.loc 1 223 24 is_stmt 0 view .LVU141
 590 01d8 8081      		ld r24,Z
 591 01da 9181      		ldd r25,Z+1
 223:../../os/oslib/src/chmemheaps.c ****           H_NEXT(hp) = fp;
 592               		.loc 1 223 22 view .LVU142
 593 01dc 9983      		std Y+1,r25
 594 01de 8883      		st Y,r24
 224:../../os/oslib/src/chmemheaps.c ****         }
 595               		.loc 1 224 11 is_stmt 1 view .LVU143
 224:../../os/oslib/src/chmemheaps.c ****         }
 596               		.loc 1 224 22 is_stmt 0 view .LVU144
 597 01e0 5183      		std Z+1,r21
 598 01e2 4083      		st Z,r20
 599 01e4 00C0      		rjmp .L11
 600               	.LBE4:
 601               	.LBE7:
 602               		.cfi_endproc
 603               	.LFE100:
 605               		.section	.text.chHeapFree,"ax",@progbits
 606               	.global	chHeapFree
 608               	chHeapFree:
 609               	.LVL42:
 610               	.LFB101:
 285:../../os/oslib/src/chmemheaps.c **** 
 286:../../os/oslib/src/chmemheaps.c **** /**
 287:../../os/oslib/src/chmemheaps.c ****  * @brief   Frees a previously allocated memory block.
 288:../../os/oslib/src/chmemheaps.c ****  *
 289:../../os/oslib/src/chmemheaps.c ****  * @param[in] p         pointer to the memory block to be freed
 290:../../os/oslib/src/chmemheaps.c ****  *
 291:../../os/oslib/src/chmemheaps.c ****  * @api
 292:../../os/oslib/src/chmemheaps.c ****  */
 293:../../os/oslib/src/chmemheaps.c **** void chHeapFree(void *p) {
 611               		.loc 1 293 26 is_stmt 1 view -0
 612               		.cfi_startproc
 613               		.loc 1 293 26 is_stmt 0 view .LVU146
 614 0000 EF92      		push r14
 615               	.LCFI18:
 616               		.cfi_def_cfa_offset 3
 617               		.cfi_offset 14, -2
 618 0002 FF92      		push r15
 619               	.LCFI19:
 620               		.cfi_def_cfa_offset 4
 621               		.cfi_offset 15, -3
 622 0004 0F93      		push r16
 623               	.LCFI20:
 624               		.cfi_def_cfa_offset 5
 625               		.cfi_offset 16, -4
 626 0006 1F93      		push r17
 627               	.LCFI21:
 628               		.cfi_def_cfa_offset 6
 629               		.cfi_offset 17, -5
 630 0008 CF93      		push r28
 631               	.LCFI22:
 632               		.cfi_def_cfa_offset 7
 633               		.cfi_offset 28, -6
 634 000a DF93      		push r29
 635               	.LCFI23:
 636               		.cfi_def_cfa_offset 8
 637               		.cfi_offset 29, -7
 638               	/* prologue: function */
 639               	/* frame size = 0 */
 640               	/* stack size = 6 */
 641               	.L__stack_usage = 6
 294:../../os/oslib/src/chmemheaps.c ****   heap_header_t *qp, *hp;
 642               		.loc 1 294 3 is_stmt 1 view .LVU147
 295:../../os/oslib/src/chmemheaps.c ****   memory_heap_t *heapp;
 643               		.loc 1 295 3 view .LVU148
 296:../../os/oslib/src/chmemheaps.c **** 
 297:../../os/oslib/src/chmemheaps.c ****   chDbgCheck((p != NULL) && MEM_IS_ALIGNED(p, CH_HEAP_ALIGNMENT));
 644               		.loc 1 297 3 view .LVU149
 645               		.loc 1 297 3 view .LVU150
 646               		.loc 1 297 3 discriminator 7 view .LVU151
 298:../../os/oslib/src/chmemheaps.c **** 
 299:../../os/oslib/src/chmemheaps.c ****   /*lint -save -e9087 [11.3] Safe cast.*/
 300:../../os/oslib/src/chmemheaps.c ****   hp = (heap_header_t *)p - 1U;
 647               		.loc 1 300 3 view .LVU152
 648               		.loc 1 300 6 is_stmt 0 view .LVU153
 649 000c EC01      		movw r28,r24
 650 000e 2497      		sbiw r28,4
 651               	.LVL43:
 301:../../os/oslib/src/chmemheaps.c ****   /*lint -restore*/
 302:../../os/oslib/src/chmemheaps.c ****   heapp = H_HEAP(hp);
 652               		.loc 1 302 3 is_stmt 1 view .LVU154
 653               		.loc 1 302 9 is_stmt 0 view .LVU155
 654 0010 E880      		ld r14,Y
 655 0012 F980      		ldd r15,Y+1
 656               	.LVL44:
 303:../../os/oslib/src/chmemheaps.c ****   qp = &heapp->header;
 657               		.loc 1 303 3 is_stmt 1 view .LVU156
 658               		.loc 1 303 6 is_stmt 0 view .LVU157
 659 0014 8701      		movw r16,r14
 660 0016 0E5F      		subi r16,-2
 661 0018 1F4F      		sbci r17,-1
 662               	.LVL45:
 304:../../os/oslib/src/chmemheaps.c **** 
 305:../../os/oslib/src/chmemheaps.c ****   /* Size is converted in number of elementary allocation units.*/
 306:../../os/oslib/src/chmemheaps.c ****   H_PAGES(hp) = MEM_ALIGN_NEXT(H_SIZE(hp),
 663               		.loc 1 306 3 is_stmt 1 view .LVU158
 664               		.loc 1 306 17 is_stmt 0 view .LVU159
 665 001a 8A81      		ldd r24,Y+2
 666 001c 9B81      		ldd r25,Y+3
 667               	.LVL46:
 668               		.loc 1 306 17 view .LVU160
 669 001e 0396      		adiw r24,3
 307:../../os/oslib/src/chmemheaps.c ****                                CH_HEAP_ALIGNMENT) / CH_HEAP_ALIGNMENT;
 670               		.loc 1 307 51 view .LVU161
 671 0020 9695      		lsr r25
 672 0022 8795      		ror r24
 673 0024 9695      		lsr r25
 674 0026 8795      		ror r24
 306:../../os/oslib/src/chmemheaps.c ****                                CH_HEAP_ALIGNMENT) / CH_HEAP_ALIGNMENT;
 675               		.loc 1 306 15 view .LVU162
 676 0028 9B83      		std Y+3,r25
 677 002a 8A83      		std Y+2,r24
 308:../../os/oslib/src/chmemheaps.c **** 
 309:../../os/oslib/src/chmemheaps.c ****   /* Taking heap mutex/semaphore.*/
 310:../../os/oslib/src/chmemheaps.c ****   H_LOCK(heapp);
 678               		.loc 1 310 3 is_stmt 1 view .LVU163
 679 002c 86E0      		ldi r24,6
 680 002e E80E      		add r14,r24
 681 0030 F11C      		adc r15,__zero_reg__
 682               	.LVL47:
 683               		.loc 1 310 3 is_stmt 0 view .LVU164
 684 0032 60E0      		ldi r22,0
 685 0034 70E0      		ldi r23,0
 686 0036 C701      		movw r24,r14
 687 0038 0E94 0000 		call chSemWaitTimeout
 688               	.LVL48:
 303:../../os/oslib/src/chmemheaps.c **** 
 689               		.loc 1 303 6 view .LVU165
 690 003c F801      		movw r30,r16
 691               	.LVL49:
 692               	.L37:
 311:../../os/oslib/src/chmemheaps.c **** 
 312:../../os/oslib/src/chmemheaps.c ****   while (true) {
 693               		.loc 1 312 3 is_stmt 1 view .LVU166
 313:../../os/oslib/src/chmemheaps.c ****     chDbgAssert((hp < qp) || (hp >= H_LIMIT(qp)), "within free block");
 694               		.loc 1 313 5 view .LVU167
 695               		.loc 1 313 5 view .LVU168
 696               		.loc 1 313 5 discriminator 7 view .LVU169
 314:../../os/oslib/src/chmemheaps.c **** 
 315:../../os/oslib/src/chmemheaps.c ****     if (((qp == &heapp->header) || (hp > qp)) &&
 697               		.loc 1 315 5 view .LVU170
 698 003e DF01      		movw r26,r30
 316:../../os/oslib/src/chmemheaps.c ****         ((H_NEXT(qp) == NULL) || (hp < H_NEXT(qp)))) {
 699               		.loc 1 316 11 is_stmt 0 view .LVU171
 700 0040 0190      		ld __tmp_reg__,Z+
 701 0042 F081      		ld r31,Z
 702 0044 E02D      		mov r30,__tmp_reg__
 703               	.LVL50:
 315:../../os/oslib/src/chmemheaps.c ****         ((H_NEXT(qp) == NULL) || (hp < H_NEXT(qp)))) {
 704               		.loc 1 315 8 view .LVU172
 705 0046 A017      		cp r26,r16
 706 0048 B107      		cpc r27,r17
 707 004a 01F0      		breq .L30
 315:../../os/oslib/src/chmemheaps.c ****         ((H_NEXT(qp) == NULL) || (hp < H_NEXT(qp)))) {
 708               		.loc 1 315 33 discriminator 2 view .LVU173
 709 004c AC17      		cp r26,r28
 710 004e BD07      		cpc r27,r29
 711 0050 00F4      		brsh .L37
 712               	.L30:
 315:../../os/oslib/src/chmemheaps.c ****         ((H_NEXT(qp) == NULL) || (hp < H_NEXT(qp)))) {
 713               		.loc 1 315 47 discriminator 3 view .LVU174
 714 0052 3097      		sbiw r30,0
 715 0054 01F0      		breq .L32
 716               		.loc 1 316 31 view .LVU175
 717 0056 CE17      		cp r28,r30
 718 0058 DF07      		cpc r29,r31
 719 005a 00F4      		brsh .L37
 720               	.L32:
 317:../../os/oslib/src/chmemheaps.c ****       /* Insertion after qp.*/
 318:../../os/oslib/src/chmemheaps.c ****       H_NEXT(hp) = H_NEXT(qp);
 721               		.loc 1 318 7 is_stmt 1 view .LVU176
 722               		.loc 1 318 18 is_stmt 0 view .LVU177
 723 005c F983      		std Y+1,r31
 724 005e E883      		st Y,r30
 319:../../os/oslib/src/chmemheaps.c ****       H_NEXT(qp) = hp;
 725               		.loc 1 319 7 is_stmt 1 view .LVU178
 726               		.loc 1 319 18 is_stmt 0 view .LVU179
 727 0060 1196      		adiw r26,1
 728 0062 DC93      		st X,r29
 729 0064 CE93      		st -X,r28
 320:../../os/oslib/src/chmemheaps.c ****       /* Verifies if the newly inserted block should be merged.*/
 321:../../os/oslib/src/chmemheaps.c ****       if (H_LIMIT(hp) == H_NEXT(hp)) {
 730               		.loc 1 321 7 is_stmt 1 view .LVU180
 731               		.loc 1 321 11 is_stmt 0 view .LVU181
 732 0066 8A81      		ldd r24,Y+2
 733 0068 9B81      		ldd r25,Y+3
 734 006a 0196      		adiw r24,1
 735               		.loc 1 321 26 view .LVU182
 736 006c E881      		ld r30,Y
 737 006e F981      		ldd r31,Y+1
 738               		.loc 1 321 11 view .LVU183
 739 0070 9C01      		movw r18,r24
 740 0072 220F      		lsl r18
 741 0074 331F      		rol r19
 742 0076 220F      		lsl r18
 743 0078 331F      		rol r19
 744 007a 2C0F      		add r18,r28
 745 007c 3D1F      		adc r19,r29
 746               		.loc 1 321 10 view .LVU184
 747 007e E217      		cp r30,r18
 748 0080 F307      		cpc r31,r19
 749 0082 01F0      		breq .L39
 750               	.L33:
 322:../../os/oslib/src/chmemheaps.c ****         /* Merge with the next block.*/
 323:../../os/oslib/src/chmemheaps.c ****         H_PAGES(hp) += H_PAGES(H_NEXT(hp)) + 1U;
 324:../../os/oslib/src/chmemheaps.c ****         H_NEXT(hp) = H_NEXT(H_NEXT(hp));
 325:../../os/oslib/src/chmemheaps.c ****       }
 326:../../os/oslib/src/chmemheaps.c ****       if ((H_LIMIT(qp) == hp)) {
 751               		.loc 1 326 7 is_stmt 1 view .LVU185
 752               		.loc 1 326 12 is_stmt 0 view .LVU186
 753 0084 1296      		adiw r26,2
 754 0086 2D91      		ld r18,X+
 755 0088 3C91      		ld r19,X
 756 008a 1397      		sbiw r26,2+1
 757 008c C901      		movw r24,r18
 758 008e 0196      		adiw r24,1
 759 0090 880F      		lsl r24
 760 0092 991F      		rol r25
 761 0094 880F      		lsl r24
 762 0096 991F      		rol r25
 763 0098 8A0F      		add r24,r26
 764 009a 9B1F      		adc r25,r27
 765               		.loc 1 326 10 view .LVU187
 766 009c C817      		cp r28,r24
 767 009e D907      		cpc r29,r25
 768 00a0 01F0      		breq .L40
 769               	.L34:
 327:../../os/oslib/src/chmemheaps.c ****         /* Merge with the previous block.*/
 328:../../os/oslib/src/chmemheaps.c ****         H_PAGES(qp) += H_PAGES(hp) + 1U;
 329:../../os/oslib/src/chmemheaps.c ****         H_NEXT(qp) = H_NEXT(hp);
 330:../../os/oslib/src/chmemheaps.c ****       }
 331:../../os/oslib/src/chmemheaps.c ****       break;
 770               		.loc 1 331 7 is_stmt 1 view .LVU188
 332:../../os/oslib/src/chmemheaps.c ****     }
 333:../../os/oslib/src/chmemheaps.c ****     qp = H_NEXT(qp);
 334:../../os/oslib/src/chmemheaps.c ****   }
 335:../../os/oslib/src/chmemheaps.c **** 
 336:../../os/oslib/src/chmemheaps.c ****   /* Releasing heap mutex/semaphore.*/
 337:../../os/oslib/src/chmemheaps.c ****   H_UNLOCK(heapp);
 771               		.loc 1 337 3 view .LVU189
 772 00a2 C701      		movw r24,r14
 773               	/* epilogue start */
 338:../../os/oslib/src/chmemheaps.c **** 
 339:../../os/oslib/src/chmemheaps.c ****   return;
 340:../../os/oslib/src/chmemheaps.c **** }
 774               		.loc 1 340 1 is_stmt 0 view .LVU190
 775 00a4 DF91      		pop r29
 776 00a6 CF91      		pop r28
 777               	.LVL51:
 778               		.loc 1 340 1 view .LVU191
 779 00a8 1F91      		pop r17
 780 00aa 0F91      		pop r16
 781 00ac FF90      		pop r15
 782 00ae EF90      		pop r14
 783               	.LVL52:
 337:../../os/oslib/src/chmemheaps.c **** 
 784               		.loc 1 337 3 view .LVU192
 785 00b0 0C94 0000 		jmp chSemSignal
 786               	.LVL53:
 787               	.L39:
 323:../../os/oslib/src/chmemheaps.c ****         H_NEXT(hp) = H_NEXT(H_NEXT(hp));
 788               		.loc 1 323 9 is_stmt 1 view .LVU193
 323:../../os/oslib/src/chmemheaps.c ****         H_NEXT(hp) = H_NEXT(H_NEXT(hp));
 789               		.loc 1 323 21 is_stmt 0 view .LVU194
 790 00b4 2281      		ldd r18,Z+2
 791 00b6 3381      		ldd r19,Z+3
 792 00b8 820F      		add r24,r18
 793 00ba 931F      		adc r25,r19
 794 00bc 9B83      		std Y+3,r25
 795 00be 8A83      		std Y+2,r24
 324:../../os/oslib/src/chmemheaps.c ****       }
 796               		.loc 1 324 9 is_stmt 1 view .LVU195
 324:../../os/oslib/src/chmemheaps.c ****       }
 797               		.loc 1 324 22 is_stmt 0 view .LVU196
 798 00c0 8081      		ld r24,Z
 799 00c2 9181      		ldd r25,Z+1
 324:../../os/oslib/src/chmemheaps.c ****       }
 800               		.loc 1 324 20 view .LVU197
 801 00c4 9983      		std Y+1,r25
 802 00c6 8883      		st Y,r24
 803 00c8 00C0      		rjmp .L33
 804               	.L40:
 328:../../os/oslib/src/chmemheaps.c ****         H_NEXT(qp) = H_NEXT(hp);
 805               		.loc 1 328 9 is_stmt 1 view .LVU198
 328:../../os/oslib/src/chmemheaps.c ****         H_NEXT(qp) = H_NEXT(hp);
 806               		.loc 1 328 21 is_stmt 0 view .LVU199
 807 00ca 8A81      		ldd r24,Y+2
 808 00cc 9B81      		ldd r25,Y+3
 809 00ce 0196      		adiw r24,1
 810 00d0 820F      		add r24,r18
 811 00d2 931F      		adc r25,r19
 812 00d4 1396      		adiw r26,2+1
 813 00d6 9C93      		st X,r25
 814 00d8 8E93      		st -X,r24
 815 00da 1297      		sbiw r26,2
 329:../../os/oslib/src/chmemheaps.c ****       }
 816               		.loc 1 329 9 is_stmt 1 view .LVU200
 329:../../os/oslib/src/chmemheaps.c ****       }
 817               		.loc 1 329 22 is_stmt 0 view .LVU201
 818 00dc 8881      		ld r24,Y
 819 00de 9981      		ldd r25,Y+1
 329:../../os/oslib/src/chmemheaps.c ****       }
 820               		.loc 1 329 20 view .LVU202
 821 00e0 8D93      		st X+,r24
 822 00e2 9C93      		st X,r25
 823 00e4 00C0      		rjmp .L34
 824               		.cfi_endproc
 825               	.LFE101:
 827               		.section	.text.chHeapStatus,"ax",@progbits
 828               	.global	chHeapStatus
 830               	chHeapStatus:
 831               	.LVL54:
 832               	.LFB102:
 341:../../os/oslib/src/chmemheaps.c **** 
 342:../../os/oslib/src/chmemheaps.c **** /**
 343:../../os/oslib/src/chmemheaps.c ****  * @brief   Reports the heap status.
 344:../../os/oslib/src/chmemheaps.c ****  * @note    This function is meant to be used in the test suite, it should
 345:../../os/oslib/src/chmemheaps.c ****  *          not be really useful for the application code.
 346:../../os/oslib/src/chmemheaps.c ****  *
 347:../../os/oslib/src/chmemheaps.c ****  * @param[in] heapp     pointer to a heap descriptor or @p NULL in order to
 348:../../os/oslib/src/chmemheaps.c ****  *                      access the default heap.
 349:../../os/oslib/src/chmemheaps.c ****  * @param[in] totalp    pointer to a variable that will receive the total
 350:../../os/oslib/src/chmemheaps.c ****  *                      fragmented free space or @p NULL
 351:../../os/oslib/src/chmemheaps.c ****  * @param[in] largestp  pointer to a variable that will receive the largest
 352:../../os/oslib/src/chmemheaps.c ****  *                      free free block found space or @p NULL
 353:../../os/oslib/src/chmemheaps.c ****  * @return              The number of fragments in the heap.
 354:../../os/oslib/src/chmemheaps.c ****  *
 355:../../os/oslib/src/chmemheaps.c ****  * @api
 356:../../os/oslib/src/chmemheaps.c ****  */
 357:../../os/oslib/src/chmemheaps.c **** size_t chHeapStatus(memory_heap_t *heapp, size_t *totalp, size_t *largestp) {
 833               		.loc 1 357 77 is_stmt 1 view -0
 834               		.cfi_startproc
 835               		.loc 1 357 77 is_stmt 0 view .LVU204
 836 0000 CF92      		push r12
 837               	.LCFI24:
 838               		.cfi_def_cfa_offset 3
 839               		.cfi_offset 12, -2
 840 0002 DF92      		push r13
 841               	.LCFI25:
 842               		.cfi_def_cfa_offset 4
 843               		.cfi_offset 13, -3
 844 0004 EF92      		push r14
 845               	.LCFI26:
 846               		.cfi_def_cfa_offset 5
 847               		.cfi_offset 14, -4
 848 0006 FF92      		push r15
 849               	.LCFI27:
 850               		.cfi_def_cfa_offset 6
 851               		.cfi_offset 15, -5
 852 0008 0F93      		push r16
 853               	.LCFI28:
 854               		.cfi_def_cfa_offset 7
 855               		.cfi_offset 16, -6
 856 000a 1F93      		push r17
 857               	.LCFI29:
 858               		.cfi_def_cfa_offset 8
 859               		.cfi_offset 17, -7
 860 000c CF93      		push r28
 861               	.LCFI30:
 862               		.cfi_def_cfa_offset 9
 863               		.cfi_offset 28, -8
 864 000e DF93      		push r29
 865               	.LCFI31:
 866               		.cfi_def_cfa_offset 10
 867               		.cfi_offset 29, -9
 868               	/* prologue: function */
 869               	/* frame size = 0 */
 870               	/* stack size = 8 */
 871               	.L__stack_usage = 8
 872 0010 6C01      		movw r12,r24
 873 0012 8B01      		movw r16,r22
 874 0014 EA01      		movw r28,r20
 358:../../os/oslib/src/chmemheaps.c ****   heap_header_t *qp;
 875               		.loc 1 358 3 is_stmt 1 view .LVU205
 359:../../os/oslib/src/chmemheaps.c ****   size_t n, tpages, lpages;
 876               		.loc 1 359 3 view .LVU206
 360:../../os/oslib/src/chmemheaps.c **** 
 361:../../os/oslib/src/chmemheaps.c ****   if (heapp == NULL) {
 877               		.loc 1 361 3 view .LVU207
 878               		.loc 1 361 6 is_stmt 0 view .LVU208
 879 0016 892B      		or r24,r25
 880 0018 01F4      		brne .+2
 881 001a 00C0      		rjmp .L57
 882               	.L42:
 883               	.LVL55:
 362:../../os/oslib/src/chmemheaps.c ****     heapp = &default_heap;
 363:../../os/oslib/src/chmemheaps.c ****   }
 364:../../os/oslib/src/chmemheaps.c **** 
 365:../../os/oslib/src/chmemheaps.c ****   H_LOCK(heapp);
 884               		.loc 1 365 3 is_stmt 1 view .LVU209
 885 001c 7601      		movw r14,r12
 886 001e 66E0      		ldi r22,6
 887 0020 E60E      		add r14,r22
 888 0022 F11C      		adc r15,__zero_reg__
 889               	.LVL56:
 890               		.loc 1 365 3 is_stmt 0 view .LVU210
 891 0024 60E0      		ldi r22,0
 892 0026 70E0      		ldi r23,0
 893 0028 C701      		movw r24,r14
 894 002a 0E94 0000 		call chSemWaitTimeout
 895               	.LVL57:
 366:../../os/oslib/src/chmemheaps.c ****   tpages = 0U;
 896               		.loc 1 366 3 is_stmt 1 view .LVU211
 367:../../os/oslib/src/chmemheaps.c ****   lpages = 0U;
 897               		.loc 1 367 3 view .LVU212
 368:../../os/oslib/src/chmemheaps.c ****   n = 0U;
 898               		.loc 1 368 3 view .LVU213
 369:../../os/oslib/src/chmemheaps.c ****   qp = &heapp->header;
 899               		.loc 1 369 3 view .LVU214
 370:../../os/oslib/src/chmemheaps.c ****   while (H_NEXT(qp) != NULL) {
 900               		.loc 1 370 3 view .LVU215
 901               		.loc 1 370 21 view .LVU216
 902               		.loc 1 370 10 is_stmt 0 view .LVU217
 903 002e D601      		movw r26,r12
 904 0030 1296      		adiw r26,2
 905 0032 ED91      		ld r30,X+
 906 0034 FC91      		ld r31,X
 367:../../os/oslib/src/chmemheaps.c ****   n = 0U;
 907               		.loc 1 367 10 view .LVU218
 908 0036 40E0      		ldi r20,0
 909 0038 50E0      		ldi r21,0
 366:../../os/oslib/src/chmemheaps.c ****   lpages = 0U;
 910               		.loc 1 366 10 view .LVU219
 911 003a 20E0      		ldi r18,0
 912 003c 30E0      		ldi r19,0
 368:../../os/oslib/src/chmemheaps.c ****   qp = &heapp->header;
 913               		.loc 1 368 5 view .LVU220
 914 003e C12C      		mov r12,__zero_reg__
 915 0040 D12C      		mov r13,__zero_reg__
 916               	.LVL58:
 917               		.loc 1 370 21 view .LVU221
 918 0042 3097      		sbiw r30,0
 919 0044 01F0      		breq .L43
 920               	.LVL59:
 921               	.L45:
 922               	.LBB8:
 371:../../os/oslib/src/chmemheaps.c ****     size_t pages = H_PAGES(H_NEXT(qp));
 923               		.loc 1 371 5 is_stmt 1 view .LVU222
 924               		.loc 1 371 12 is_stmt 0 view .LVU223
 925 0046 8281      		ldd r24,Z+2
 926 0048 9381      		ldd r25,Z+3
 927               	.LVL60:
 372:../../os/oslib/src/chmemheaps.c **** 
 373:../../os/oslib/src/chmemheaps.c ****     /* Updating counters.*/
 374:../../os/oslib/src/chmemheaps.c ****     n++;
 928               		.loc 1 374 5 is_stmt 1 view .LVU224
 929               		.loc 1 374 6 is_stmt 0 view .LVU225
 930 004a BFEF      		ldi r27,-1
 931 004c CB1A      		sub r12,r27
 932 004e DB0A      		sbc r13,r27
 933               	.LVL61:
 375:../../os/oslib/src/chmemheaps.c ****     tpages += pages;
 934               		.loc 1 375 5 is_stmt 1 view .LVU226
 935               		.loc 1 375 12 is_stmt 0 view .LVU227
 936 0050 280F      		add r18,r24
 937 0052 391F      		adc r19,r25
 938               	.LVL62:
 376:../../os/oslib/src/chmemheaps.c ****     if (pages > lpages) {
 939               		.loc 1 376 5 is_stmt 1 view .LVU228
 940               		.loc 1 376 8 is_stmt 0 view .LVU229
 941 0054 4817      		cp r20,r24
 942 0056 5907      		cpc r21,r25
 943 0058 00F4      		brsh .L44
 944 005a AC01      		movw r20,r24
 945               	.LVL63:
 946               	.L44:
 947               		.loc 1 376 8 view .LVU230
 948               	.LBE8:
 370:../../os/oslib/src/chmemheaps.c ****     size_t pages = H_PAGES(H_NEXT(qp));
 949               		.loc 1 370 21 is_stmt 1 view .LVU231
 370:../../os/oslib/src/chmemheaps.c ****     size_t pages = H_PAGES(H_NEXT(qp));
 950               		.loc 1 370 10 is_stmt 0 view .LVU232
 951 005c 0190      		ld __tmp_reg__,Z+
 952 005e F081      		ld r31,Z
 953 0060 E02D      		mov r30,__tmp_reg__
 954               	.LVL64:
 370:../../os/oslib/src/chmemheaps.c ****     size_t pages = H_PAGES(H_NEXT(qp));
 955               		.loc 1 370 21 view .LVU233
 956 0062 3097      		sbiw r30,0
 957 0064 01F4      		brne .L45
 958               	.LVL65:
 959               	.L43:
 377:../../os/oslib/src/chmemheaps.c ****       lpages = pages;
 378:../../os/oslib/src/chmemheaps.c ****     }
 379:../../os/oslib/src/chmemheaps.c **** 
 380:../../os/oslib/src/chmemheaps.c ****     qp = H_NEXT(qp);
 381:../../os/oslib/src/chmemheaps.c ****   }
 382:../../os/oslib/src/chmemheaps.c **** 
 383:../../os/oslib/src/chmemheaps.c ****   /* Writing out fragmented free memory.*/
 384:../../os/oslib/src/chmemheaps.c ****   if (totalp != NULL) {
 960               		.loc 1 384 3 is_stmt 1 view .LVU234
 961               		.loc 1 384 6 is_stmt 0 view .LVU235
 962 0066 0115      		cp r16,__zero_reg__
 963 0068 1105      		cpc r17,__zero_reg__
 964 006a 01F0      		breq .L46
 385:../../os/oslib/src/chmemheaps.c ****     *totalp = tpages * CH_HEAP_ALIGNMENT;
 965               		.loc 1 385 5 is_stmt 1 view .LVU236
 966               		.loc 1 385 22 is_stmt 0 view .LVU237
 967 006c 220F      		lsl r18
 968 006e 331F      		rol r19
 969 0070 220F      		lsl r18
 970 0072 331F      		rol r19
 971               		.loc 1 385 13 view .LVU238
 972 0074 F801      		movw r30,r16
 973 0076 3183      		std Z+1,r19
 974 0078 2083      		st Z,r18
 975               	.L46:
 386:../../os/oslib/src/chmemheaps.c ****   }
 387:../../os/oslib/src/chmemheaps.c **** 
 388:../../os/oslib/src/chmemheaps.c ****   /* Writing out unfragmented free memory.*/
 389:../../os/oslib/src/chmemheaps.c ****   if (largestp != NULL) {
 976               		.loc 1 389 3 is_stmt 1 view .LVU239
 977               		.loc 1 389 6 is_stmt 0 view .LVU240
 978 007a 2097      		sbiw r28,0
 979 007c 01F0      		breq .L47
 390:../../os/oslib/src/chmemheaps.c ****     *largestp = lpages * CH_HEAP_ALIGNMENT;
 980               		.loc 1 390 5 is_stmt 1 view .LVU241
 981               		.loc 1 390 24 is_stmt 0 view .LVU242
 982 007e 440F      		lsl r20
 983 0080 551F      		rol r21
 984 0082 440F      		lsl r20
 985 0084 551F      		rol r21
 986               		.loc 1 390 15 view .LVU243
 987 0086 5983      		std Y+1,r21
 988 0088 4883      		st Y,r20
 989               	.L47:
 391:../../os/oslib/src/chmemheaps.c ****   }
 392:../../os/oslib/src/chmemheaps.c ****   H_UNLOCK(heapp);
 990               		.loc 1 392 3 is_stmt 1 view .LVU244
 991 008a C701      		movw r24,r14
 992 008c 0E94 0000 		call chSemSignal
 993               	.LVL66:
 393:../../os/oslib/src/chmemheaps.c **** 
 394:../../os/oslib/src/chmemheaps.c ****   return n;
 994               		.loc 1 394 3 view .LVU245
 395:../../os/oslib/src/chmemheaps.c **** }
 995               		.loc 1 395 1 is_stmt 0 view .LVU246
 996 0090 C601      		movw r24,r12
 997               	/* epilogue start */
 998 0092 DF91      		pop r29
 999 0094 CF91      		pop r28
 1000               	.LVL67:
 1001               		.loc 1 395 1 view .LVU247
 1002 0096 1F91      		pop r17
 1003 0098 0F91      		pop r16
 1004               	.LVL68:
 1005               		.loc 1 395 1 view .LVU248
 1006 009a FF90      		pop r15
 1007 009c EF90      		pop r14
 1008               	.LVL69:
 1009               		.loc 1 395 1 view .LVU249
 1010 009e DF90      		pop r13
 1011 00a0 CF90      		pop r12
 1012 00a2 0895      		ret
 1013               	.LVL70:
 1014               	.L57:
 362:../../os/oslib/src/chmemheaps.c ****   }
 1015               		.loc 1 362 11 view .LVU250
 1016 00a4 20E0      		ldi r18,lo8(default_heap)
 1017 00a6 C22E      		mov r12,r18
 1018 00a8 20E0      		ldi r18,hi8(default_heap)
 1019 00aa D22E      		mov r13,r18
 1020               	.LVL71:
 362:../../os/oslib/src/chmemheaps.c ****   }
 1021               		.loc 1 362 11 view .LVU251
 1022 00ac 00C0      		rjmp .L42
 1023               		.cfi_endproc
 1024               	.LFE102:
 1026               		.section	.bss.default_heap,"aw",@nobits
 1029               	default_heap:
 1030 0000 0000 0000 		.zero	7
 1030      0000 00
 1031               		.text
 1032               	.Letext0:
 1033               		.file 2 "/usr/lib/gcc/avr/14.1.0/include/stddef.h"
 1034               		.file 3 "/usr/avr/include/stdint.h"
 1035               		.file 4 "../../os/common/ports/AVR/compilers/GCC/chtypes.h"
 1036               		.file 5 "../../os/nil/include/ch.h"
 1037               		.file 6 "../../os/oslib/include/chmemcore.h"
 1038               		.file 7 "../../os/oslib/include/chmemheaps.h"
 1039               		.file 8 "../../os/nil/include/chsem.h"