   1               		.file	"hal_queues.c"
   2               	__SP_H__ = 0x3e
   3               	__SP_L__ = 0x3d
   4               	__SREG__ = 0x3f
   5               	__tmp_reg__ = 0
   6               	__zero_reg__ = 1
   7               		.text
   8               	.Ltext0:
   9               		.cfi_sections	.debug_frame
  10               		.file 1 "../../os/hal/src/hal_queues.c"
  11               		.section	.text.iq_read,"ax",@progbits
  13               	iq_read:
  14               	.LVL0:
  15               	.LFB146:
   1:../../os/hal/src/hal_queues.c **** /*
   2:../../os/hal/src/hal_queues.c ****     ChibiOS - Copyright (C) 2006..2018 Giovanni Di Sirio
   3:../../os/hal/src/hal_queues.c **** 
   4:../../os/hal/src/hal_queues.c ****     Licensed under the Apache License, Version 2.0 (the "License");
   5:../../os/hal/src/hal_queues.c ****     you may not use this file except in compliance with the License.
   6:../../os/hal/src/hal_queues.c ****     You may obtain a copy of the License at
   7:../../os/hal/src/hal_queues.c **** 
   8:../../os/hal/src/hal_queues.c ****         http://www.apache.org/licenses/LICENSE-2.0
   9:../../os/hal/src/hal_queues.c **** 
  10:../../os/hal/src/hal_queues.c ****     Unless required by applicable law or agreed to in writing, software
  11:../../os/hal/src/hal_queues.c ****     distributed under the License is distributed on an "AS IS" BASIS,
  12:../../os/hal/src/hal_queues.c ****     WITHOUT WARRANTIES OR CONDITIONS OF ANY KIND, either express or implied.
  13:../../os/hal/src/hal_queues.c ****     See the License for the specific language governing permissions and
  14:../../os/hal/src/hal_queues.c ****     limitations under the License.
  15:../../os/hal/src/hal_queues.c **** */
  16:../../os/hal/src/hal_queues.c **** 
  17:../../os/hal/src/hal_queues.c **** /**
  18:../../os/hal/src/hal_queues.c ****  * @file    hal_queues.c
  19:../../os/hal/src/hal_queues.c ****  * @brief   I/O Queues code.
  20:../../os/hal/src/hal_queues.c ****  *
  21:../../os/hal/src/hal_queues.c ****  * @addtogroup HAL_QUEUES
  22:../../os/hal/src/hal_queues.c ****  * @details Queues are mostly used in serial-like device drivers.
  23:../../os/hal/src/hal_queues.c ****  *          Serial device drivers are usually designed to have a lower side
  24:../../os/hal/src/hal_queues.c ****  *          (lower driver, it is usually an interrupt service routine) and an
  25:../../os/hal/src/hal_queues.c ****  *          upper side (upper driver, accessed by the application threads).<br>
  26:../../os/hal/src/hal_queues.c ****  *          There are several kind of queues:<br>
  27:../../os/hal/src/hal_queues.c ****  *          - <b>Input queue</b>, unidirectional queue where the writer is the
  28:../../os/hal/src/hal_queues.c ****  *            lower side and the reader is the upper side.
  29:../../os/hal/src/hal_queues.c ****  *          - <b>Output queue</b>, unidirectional queue where the writer is the
  30:../../os/hal/src/hal_queues.c ****  *            upper side and the reader is the lower side.
  31:../../os/hal/src/hal_queues.c ****  *          - <b>Full duplex queue</b>, bidirectional queue. Full duplex queues
  32:../../os/hal/src/hal_queues.c ****  *            are implemented by pairing an input queue and an output queue
  33:../../os/hal/src/hal_queues.c ****  *            together.
  34:../../os/hal/src/hal_queues.c ****  *          .
  35:../../os/hal/src/hal_queues.c ****  * @{
  36:../../os/hal/src/hal_queues.c ****  */
  37:../../os/hal/src/hal_queues.c **** 
  38:../../os/hal/src/hal_queues.c **** #include <string.h>
  39:../../os/hal/src/hal_queues.c **** 
  40:../../os/hal/src/hal_queues.c **** #include "hal.h"
  41:../../os/hal/src/hal_queues.c **** 
  42:../../os/hal/src/hal_queues.c **** /*===========================================================================*/
  43:../../os/hal/src/hal_queues.c **** /* Driver local definitions.                                                 */
  44:../../os/hal/src/hal_queues.c **** /*===========================================================================*/
  45:../../os/hal/src/hal_queues.c **** 
  46:../../os/hal/src/hal_queues.c **** /**
  47:../../os/hal/src/hal_queues.c ****  * @brief   Non-blocking input queue read.
  48:../../os/hal/src/hal_queues.c ****  * @details The function reads data from an input queue into a buffer. The
  49:../../os/hal/src/hal_queues.c ****  *          operation completes when the specified amount of data has been
  50:../../os/hal/src/hal_queues.c ****  *          transferred or when the input queue has been emptied.
  51:../../os/hal/src/hal_queues.c ****  *
  52:../../os/hal/src/hal_queues.c ****  * @param[in] iqp       pointer to an @p input_queue_t structure
  53:../../os/hal/src/hal_queues.c ****  * @param[out] bp       pointer to the data buffer
  54:../../os/hal/src/hal_queues.c ****  * @param[in] n         the maximum amount of data to be transferred, the
  55:../../os/hal/src/hal_queues.c ****  *                      value 0 is reserved
  56:../../os/hal/src/hal_queues.c ****  * @return              The number of bytes effectively transferred.
  57:../../os/hal/src/hal_queues.c ****  *
  58:../../os/hal/src/hal_queues.c ****  * @notapi
  59:../../os/hal/src/hal_queues.c ****  */
  60:../../os/hal/src/hal_queues.c **** static size_t iq_read(input_queue_t *iqp, uint8_t *bp, size_t n) {
  16               		.loc 1 60 66 view -0
  17               		.cfi_startproc
  18               		.loc 1 60 66 is_stmt 0 view .LVU1
  19 0000 AF92      		push r10
  20               	.LCFI0:
  21               		.cfi_def_cfa_offset 3
  22               		.cfi_offset 10, -2
  23 0002 BF92      		push r11
  24               	.LCFI1:
  25               		.cfi_def_cfa_offset 4
  26               		.cfi_offset 11, -3
  27 0004 CF92      		push r12
  28               	.LCFI2:
  29               		.cfi_def_cfa_offset 5
  30               		.cfi_offset 12, -4
  31 0006 DF92      		push r13
  32               	.LCFI3:
  33               		.cfi_def_cfa_offset 6
  34               		.cfi_offset 13, -5
  35 0008 EF92      		push r14
  36               	.LCFI4:
  37               		.cfi_def_cfa_offset 7
  38               		.cfi_offset 14, -6
  39 000a FF92      		push r15
  40               	.LCFI5:
  41               		.cfi_def_cfa_offset 8
  42               		.cfi_offset 15, -7
  43 000c 0F93      		push r16
  44               	.LCFI6:
  45               		.cfi_def_cfa_offset 9
  46               		.cfi_offset 16, -8
  47 000e 1F93      		push r17
  48               	.LCFI7:
  49               		.cfi_def_cfa_offset 10
  50               		.cfi_offset 17, -9
  51 0010 CF93      		push r28
  52               	.LCFI8:
  53               		.cfi_def_cfa_offset 11
  54               		.cfi_offset 28, -10
  55 0012 DF93      		push r29
  56               	.LCFI9:
  57               		.cfi_def_cfa_offset 12
  58               		.cfi_offset 29, -11
  59               	/* prologue: function */
  60               	/* frame size = 0 */
  61               	/* stack size = 10 */
  62               	.L__stack_usage = 10
  63 0014 EC01      		movw r28,r24
  64 0016 6B01      		movw r12,r22
  65 0018 8A01      		movw r16,r20
  61:../../os/hal/src/hal_queues.c ****   size_t s1, s2;
  66               		.loc 1 61 3 is_stmt 1 view .LVU2
  62:../../os/hal/src/hal_queues.c **** 
  63:../../os/hal/src/hal_queues.c ****   osalDbgCheck(n > 0U);
  67               		.loc 1 63 3 view .LVU3
  68               		.loc 1 63 3 view .LVU4
  69               		.loc 1 63 3 discriminator 5 view .LVU5
  64:../../os/hal/src/hal_queues.c **** 
  65:../../os/hal/src/hal_queues.c ****   /* Number of bytes that can be read in a single atomic operation.*/
  66:../../os/hal/src/hal_queues.c ****   if (n > iqGetFullI(iqp)) {
  70               		.loc 1 66 3 view .LVU6
  71               		.loc 1 66 11 is_stmt 0 view .LVU7
  72 001a 8981      		ldd r24,Y+1
  73 001c 9A81      		ldd r25,Y+2
  74               	.LVL1:
  75               		.loc 1 66 6 view .LVU8
  76 001e 8417      		cp r24,r20
  77 0020 9507      		cpc r25,r21
  78 0022 00F4      		brsh .L2
  67:../../os/hal/src/hal_queues.c ****     n = iqGetFullI(iqp);
  79               		.loc 1 67 5 is_stmt 1 view .LVU9
  80               		.loc 1 67 7 is_stmt 0 view .LVU10
  81 0024 0981      		ldd r16,Y+1
  82 0026 1A81      		ldd r17,Y+2
  83               	.LVL2:
  84               	.L2:
  68:../../os/hal/src/hal_queues.c ****   }
  69:../../os/hal/src/hal_queues.c **** 
  70:../../os/hal/src/hal_queues.c ****   /* Number of bytes before buffer limit.*/
  71:../../os/hal/src/hal_queues.c ****   /*lint -save -e9033 [10.8] Checked to be safe.*/
  72:../../os/hal/src/hal_queues.c ****   s1 = (size_t)(iqp->q_top - iqp->q_rdptr);
  85               		.loc 1 72 3 is_stmt 1 view .LVU11
  86               		.loc 1 72 33 is_stmt 0 view .LVU12
  87 0028 6985      		ldd r22,Y+9
  88 002a 7A85      		ldd r23,Y+10
  89               	.LVL3:
  90               		.loc 1 72 28 view .LVU13
  91 002c ED80      		ldd r14,Y+5
  92 002e FE80      		ldd r15,Y+6
  93 0030 E61A      		sub r14,r22
  94 0032 F70A      		sbc r15,r23
  95               	.LVL4:
  73:../../os/hal/src/hal_queues.c ****   /*lint -restore*/
  74:../../os/hal/src/hal_queues.c ****   if (n < s1) {
  96               		.loc 1 74 3 is_stmt 1 view .LVU14
  97               		.loc 1 74 6 is_stmt 0 view .LVU15
  98 0034 0E15      		cp r16,r14
  99 0036 1F05      		cpc r17,r15
 100 0038 00F0      		brlo .L7
  75:../../os/hal/src/hal_queues.c ****     memcpy((void *)bp, (void *)iqp->q_rdptr, n);
  76:../../os/hal/src/hal_queues.c ****     iqp->q_rdptr += n;
  77:../../os/hal/src/hal_queues.c ****   }
  78:../../os/hal/src/hal_queues.c ****   else if (n > s1) {
 101               		.loc 1 78 8 is_stmt 1 view .LVU16
 102               		.loc 1 78 11 is_stmt 0 view .LVU17
 103 003a E016      		cp r14,r16
 104 003c F106      		cpc r15,r17
 105 003e 00F0      		brlo .L8
  79:../../os/hal/src/hal_queues.c ****     memcpy((void *)bp, (void *)iqp->q_rdptr, s1);
  80:../../os/hal/src/hal_queues.c ****     bp += s1;
  81:../../os/hal/src/hal_queues.c ****     s2 = n - s1;
  82:../../os/hal/src/hal_queues.c ****     memcpy((void *)bp, (void *)iqp->q_buffer, s2);
  83:../../os/hal/src/hal_queues.c ****     iqp->q_rdptr = iqp->q_buffer + s2;
  84:../../os/hal/src/hal_queues.c ****   }
  85:../../os/hal/src/hal_queues.c ****   else {
  86:../../os/hal/src/hal_queues.c ****     memcpy((void *)bp, (void *)iqp->q_rdptr, n);
 106               		.loc 1 86 5 is_stmt 1 view .LVU18
 107 0040 A801      		movw r20,r16
 108 0042 C601      		movw r24,r12
 109 0044 0E94 0000 		call memcpy
 110               	.LVL5:
  87:../../os/hal/src/hal_queues.c ****     iqp->q_rdptr = iqp->q_buffer;
 111               		.loc 1 87 5 view .LVU19
 112               		.loc 1 87 23 is_stmt 0 view .LVU20
 113 0048 4B81      		ldd r20,Y+3
 114 004a 5C81      		ldd r21,Y+4
 115               	.LVL6:
 116               	.L4:
  76:../../os/hal/src/hal_queues.c ****   }
 117               		.loc 1 76 18 view .LVU21
 118 004c 5A87      		std Y+10,r21
 119 004e 4987      		std Y+9,r20
  88:../../os/hal/src/hal_queues.c ****   }
  89:../../os/hal/src/hal_queues.c **** 
  90:../../os/hal/src/hal_queues.c ****   iqp->q_counter -= n;
 120               		.loc 1 90 3 is_stmt 1 view .LVU22
 121               		.loc 1 90 6 is_stmt 0 view .LVU23
 122 0050 8981      		ldd r24,Y+1
 123 0052 9A81      		ldd r25,Y+2
 124               		.loc 1 90 18 view .LVU24
 125 0054 801B      		sub r24,r16
 126 0056 910B      		sbc r25,r17
 127 0058 9A83      		std Y+2,r25
 128 005a 8983      		std Y+1,r24
  91:../../os/hal/src/hal_queues.c ****   return n;
 129               		.loc 1 91 3 is_stmt 1 view .LVU25
  92:../../os/hal/src/hal_queues.c **** }
 130               		.loc 1 92 1 is_stmt 0 view .LVU26
 131 005c C801      		movw r24,r16
 132               	/* epilogue start */
 133 005e DF91      		pop r29
 134 0060 CF91      		pop r28
 135               	.LVL7:
 136               		.loc 1 92 1 view .LVU27
 137 0062 1F91      		pop r17
 138 0064 0F91      		pop r16
 139               	.LVL8:
 140               		.loc 1 92 1 view .LVU28
 141 0066 FF90      		pop r15
 142 0068 EF90      		pop r14
 143               	.LVL9:
 144               		.loc 1 92 1 view .LVU29
 145 006a DF90      		pop r13
 146 006c CF90      		pop r12
 147 006e BF90      		pop r11
 148 0070 AF90      		pop r10
 149 0072 0895      		ret
 150               	.LVL10:
 151               	.L8:
  79:../../os/hal/src/hal_queues.c ****     bp += s1;
 152               		.loc 1 79 5 is_stmt 1 view .LVU30
 153 0074 A701      		movw r20,r14
 154 0076 C601      		movw r24,r12
 155 0078 0E94 0000 		call memcpy
 156               	.LVL11:
  80:../../os/hal/src/hal_queues.c ****     s2 = n - s1;
 157               		.loc 1 80 5 view .LVU31
  81:../../os/hal/src/hal_queues.c ****     memcpy((void *)bp, (void *)iqp->q_buffer, s2);
 158               		.loc 1 81 5 view .LVU32
  81:../../os/hal/src/hal_queues.c ****     memcpy((void *)bp, (void *)iqp->q_buffer, s2);
 159               		.loc 1 81 8 is_stmt 0 view .LVU33
 160 007c 5801      		movw r10,r16
 161 007e AE18      		sub r10,r14
 162 0080 BF08      		sbc r11,r15
 163               	.LVL12:
  82:../../os/hal/src/hal_queues.c ****     iqp->q_rdptr = iqp->q_buffer + s2;
 164               		.loc 1 82 5 is_stmt 1 view .LVU34
 165 0082 6B81      		ldd r22,Y+3
 166 0084 7C81      		ldd r23,Y+4
 167 0086 A501      		movw r20,r10
 168 0088 C601      		movw r24,r12
 169 008a 8E0D      		add r24,r14
 170 008c 9F1D      		adc r25,r15
 171               	.LVL13:
  82:../../os/hal/src/hal_queues.c ****     iqp->q_rdptr = iqp->q_buffer + s2;
 172               		.loc 1 82 5 is_stmt 0 view .LVU35
 173 008e 0E94 0000 		call memcpy
 174               	.LVL14:
  83:../../os/hal/src/hal_queues.c ****   }
 175               		.loc 1 83 5 is_stmt 1 view .LVU36
  83:../../os/hal/src/hal_queues.c ****   }
 176               		.loc 1 83 34 is_stmt 0 view .LVU37
 177 0092 4B81      		ldd r20,Y+3
 178 0094 5C81      		ldd r21,Y+4
 179 0096 4A0D      		add r20,r10
 180 0098 5B1D      		adc r21,r11
 181 009a 00C0      		rjmp .L4
 182               	.LVL15:
 183               	.L7:
  75:../../os/hal/src/hal_queues.c ****     iqp->q_rdptr += n;
 184               		.loc 1 75 5 is_stmt 1 view .LVU38
 185 009c A801      		movw r20,r16
 186 009e C601      		movw r24,r12
 187 00a0 0E94 0000 		call memcpy
 188               	.LVL16:
  76:../../os/hal/src/hal_queues.c ****   }
 189               		.loc 1 76 5 view .LVU39
  76:../../os/hal/src/hal_queues.c ****   }
 190               		.loc 1 76 18 is_stmt 0 view .LVU40
 191 00a4 4985      		ldd r20,Y+9
 192 00a6 5A85      		ldd r21,Y+10
 193 00a8 400F      		add r20,r16
 194 00aa 511F      		adc r21,r17
 195 00ac 00C0      		rjmp .L4
 196               		.cfi_endproc
 197               	.LFE146:
 199               		.section	.text.oq_write,"ax",@progbits
 201               	oq_write:
 202               	.LVL17:
 203               	.LFB147:
  93:../../os/hal/src/hal_queues.c **** 
  94:../../os/hal/src/hal_queues.c **** /**
  95:../../os/hal/src/hal_queues.c ****  * @brief   Non-blocking output queue write.
  96:../../os/hal/src/hal_queues.c ****  * @details The function writes data from a buffer to an output queue. The
  97:../../os/hal/src/hal_queues.c ****  *          operation completes when the specified amount of data has been
  98:../../os/hal/src/hal_queues.c ****  *          transferred or when the output queue has been filled.
  99:../../os/hal/src/hal_queues.c ****  *
 100:../../os/hal/src/hal_queues.c ****  * @param[in] oqp       pointer to an @p output_queue_t structure
 101:../../os/hal/src/hal_queues.c ****  * @param[in] bp        pointer to the data buffer
 102:../../os/hal/src/hal_queues.c ****  * @param[in] n         the maximum amount of data to be transferred, the
 103:../../os/hal/src/hal_queues.c ****  *                      value 0 is reserved
 104:../../os/hal/src/hal_queues.c ****  * @return              The number of bytes effectively transferred.
 105:../../os/hal/src/hal_queues.c ****  *
 106:../../os/hal/src/hal_queues.c ****  * @notapi
 107:../../os/hal/src/hal_queues.c ****  */
 108:../../os/hal/src/hal_queues.c **** static size_t oq_write(output_queue_t *oqp, const uint8_t *bp, size_t n) {
 204               		.loc 1 108 74 is_stmt 1 view -0
 205               		.cfi_startproc
 206               		.loc 1 108 74 is_stmt 0 view .LVU42
 207 0000 AF92      		push r10
 208               	.LCFI10:
 209               		.cfi_def_cfa_offset 3
 210               		.cfi_offset 10, -2
 211 0002 BF92      		push r11
 212               	.LCFI11:
 213               		.cfi_def_cfa_offset 4
 214               		.cfi_offset 11, -3
 215 0004 CF92      		push r12
 216               	.LCFI12:
 217               		.cfi_def_cfa_offset 5
 218               		.cfi_offset 12, -4
 219 0006 DF92      		push r13
 220               	.LCFI13:
 221               		.cfi_def_cfa_offset 6
 222               		.cfi_offset 13, -5
 223 0008 EF92      		push r14
 224               	.LCFI14:
 225               		.cfi_def_cfa_offset 7
 226               		.cfi_offset 14, -6
 227 000a FF92      		push r15
 228               	.LCFI15:
 229               		.cfi_def_cfa_offset 8
 230               		.cfi_offset 15, -7
 231 000c 0F93      		push r16
 232               	.LCFI16:
 233               		.cfi_def_cfa_offset 9
 234               		.cfi_offset 16, -8
 235 000e 1F93      		push r17
 236               	.LCFI17:
 237               		.cfi_def_cfa_offset 10
 238               		.cfi_offset 17, -9
 239 0010 CF93      		push r28
 240               	.LCFI18:
 241               		.cfi_def_cfa_offset 11
 242               		.cfi_offset 28, -10
 243 0012 DF93      		push r29
 244               	.LCFI19:
 245               		.cfi_def_cfa_offset 12
 246               		.cfi_offset 29, -11
 247               	/* prologue: function */
 248               	/* frame size = 0 */
 249               	/* stack size = 10 */
 250               	.L__stack_usage = 10
 251 0014 EC01      		movw r28,r24
 252 0016 5B01      		movw r10,r22
 253 0018 8A01      		movw r16,r20
 109:../../os/hal/src/hal_queues.c ****   size_t s1, s2;
 254               		.loc 1 109 3 is_stmt 1 view .LVU43
 110:../../os/hal/src/hal_queues.c **** 
 111:../../os/hal/src/hal_queues.c ****   osalDbgCheck(n > 0U);
 255               		.loc 1 111 3 view .LVU44
 256               		.loc 1 111 3 view .LVU45
 257               		.loc 1 111 3 discriminator 5 view .LVU46
 112:../../os/hal/src/hal_queues.c **** 
 113:../../os/hal/src/hal_queues.c ****   /* Number of bytes that can be written in a single atomic operation.*/
 114:../../os/hal/src/hal_queues.c ****   if (n > oqGetEmptyI(oqp)) {
 258               		.loc 1 114 3 view .LVU47
 259               		.loc 1 114 11 is_stmt 0 view .LVU48
 260 001a 8981      		ldd r24,Y+1
 261 001c 9A81      		ldd r25,Y+2
 262               	.LVL18:
 263               		.loc 1 114 6 view .LVU49
 264 001e 8417      		cp r24,r20
 265 0020 9507      		cpc r25,r21
 266 0022 00F4      		brsh .L10
 115:../../os/hal/src/hal_queues.c ****     n = oqGetEmptyI(oqp);
 267               		.loc 1 115 5 is_stmt 1 view .LVU50
 268               		.loc 1 115 7 is_stmt 0 view .LVU51
 269 0024 0981      		ldd r16,Y+1
 270 0026 1A81      		ldd r17,Y+2
 271               	.LVL19:
 272               	.L10:
 116:../../os/hal/src/hal_queues.c ****   }
 117:../../os/hal/src/hal_queues.c **** 
 118:../../os/hal/src/hal_queues.c ****   /* Number of bytes before buffer limit.*/
 119:../../os/hal/src/hal_queues.c ****   /*lint -save -e9033 [10.8] Checked to be safe.*/
 120:../../os/hal/src/hal_queues.c ****   s1 = (size_t)(oqp->q_top - oqp->q_wrptr);
 273               		.loc 1 120 3 is_stmt 1 view .LVU52
 274               		.loc 1 120 33 is_stmt 0 view .LVU53
 275 0028 8F81      		ldd r24,Y+7
 276 002a 9885      		ldd r25,Y+8
 277               		.loc 1 120 28 view .LVU54
 278 002c ED80      		ldd r14,Y+5
 279 002e FE80      		ldd r15,Y+6
 280 0030 E81A      		sub r14,r24
 281 0032 F90A      		sbc r15,r25
 282               	.LVL20:
 121:../../os/hal/src/hal_queues.c ****   /*lint -restore*/
 122:../../os/hal/src/hal_queues.c ****   if (n < s1) {
 283               		.loc 1 122 3 is_stmt 1 view .LVU55
 284               		.loc 1 122 6 is_stmt 0 view .LVU56
 285 0034 0E15      		cp r16,r14
 286 0036 1F05      		cpc r17,r15
 287 0038 00F0      		brlo .L14
 123:../../os/hal/src/hal_queues.c ****     memcpy((void *)oqp->q_wrptr, (const void *)bp, n);
 124:../../os/hal/src/hal_queues.c ****     oqp->q_wrptr += n;
 125:../../os/hal/src/hal_queues.c ****   }
 126:../../os/hal/src/hal_queues.c ****   else if (n > s1) {
 288               		.loc 1 126 8 is_stmt 1 view .LVU57
 289               		.loc 1 126 11 is_stmt 0 view .LVU58
 290 003a E016      		cp r14,r16
 291 003c F106      		cpc r15,r17
 292 003e 00F0      		brlo .L15
 127:../../os/hal/src/hal_queues.c ****     memcpy((void *)oqp->q_wrptr, (const void *)bp, s1);
 128:../../os/hal/src/hal_queues.c ****     bp += s1;
 129:../../os/hal/src/hal_queues.c ****     s2 = n - s1;
 130:../../os/hal/src/hal_queues.c ****     memcpy((void *)oqp->q_buffer, (const void *)bp, s2);
 131:../../os/hal/src/hal_queues.c ****     oqp->q_wrptr = oqp->q_buffer + s2;
 132:../../os/hal/src/hal_queues.c ****   }
 133:../../os/hal/src/hal_queues.c ****   else {
 134:../../os/hal/src/hal_queues.c ****     memcpy((void *)oqp->q_wrptr, (const void *)bp, n);
 293               		.loc 1 134 5 is_stmt 1 view .LVU59
 294 0040 A801      		movw r20,r16
 295 0042 B501      		movw r22,r10
 296               	.LVL21:
 297               		.loc 1 134 5 is_stmt 0 view .LVU60
 298 0044 0E94 0000 		call memcpy
 299               	.LVL22:
 135:../../os/hal/src/hal_queues.c ****     oqp->q_wrptr = oqp->q_buffer;
 300               		.loc 1 135 5 is_stmt 1 view .LVU61
 301               		.loc 1 135 23 is_stmt 0 view .LVU62
 302 0048 8B81      		ldd r24,Y+3
 303 004a 9C81      		ldd r25,Y+4
 304               	.LVL23:
 305               	.L12:
 124:../../os/hal/src/hal_queues.c ****   }
 306               		.loc 1 124 18 view .LVU63
 307 004c 9887      		std Y+8,r25
 308 004e 8F83      		std Y+7,r24
 136:../../os/hal/src/hal_queues.c ****   }
 137:../../os/hal/src/hal_queues.c **** 
 138:../../os/hal/src/hal_queues.c ****   oqp->q_counter -= n;
 309               		.loc 1 138 3 is_stmt 1 view .LVU64
 310               		.loc 1 138 6 is_stmt 0 view .LVU65
 311 0050 8981      		ldd r24,Y+1
 312 0052 9A81      		ldd r25,Y+2
 313               		.loc 1 138 18 view .LVU66
 314 0054 801B      		sub r24,r16
 315 0056 910B      		sbc r25,r17
 316 0058 9A83      		std Y+2,r25
 317 005a 8983      		std Y+1,r24
 139:../../os/hal/src/hal_queues.c ****   return n;
 318               		.loc 1 139 3 is_stmt 1 view .LVU67
 140:../../os/hal/src/hal_queues.c **** }
 319               		.loc 1 140 1 is_stmt 0 view .LVU68
 320 005c C801      		movw r24,r16
 321               	/* epilogue start */
 322 005e DF91      		pop r29
 323 0060 CF91      		pop r28
 324               	.LVL24:
 325               		.loc 1 140 1 view .LVU69
 326 0062 1F91      		pop r17
 327 0064 0F91      		pop r16
 328               	.LVL25:
 329               		.loc 1 140 1 view .LVU70
 330 0066 FF90      		pop r15
 331 0068 EF90      		pop r14
 332               	.LVL26:
 333               		.loc 1 140 1 view .LVU71
 334 006a DF90      		pop r13
 335 006c CF90      		pop r12
 336 006e BF90      		pop r11
 337 0070 AF90      		pop r10
 338 0072 0895      		ret
 339               	.LVL27:
 340               	.L15:
 127:../../os/hal/src/hal_queues.c ****     bp += s1;
 341               		.loc 1 127 5 is_stmt 1 view .LVU72
 342 0074 A701      		movw r20,r14
 343 0076 B501      		movw r22,r10
 344 0078 0E94 0000 		call memcpy
 345               	.LVL28:
 128:../../os/hal/src/hal_queues.c ****     s2 = n - s1;
 346               		.loc 1 128 5 view .LVU73
 129:../../os/hal/src/hal_queues.c ****     memcpy((void *)oqp->q_buffer, (const void *)bp, s2);
 347               		.loc 1 129 5 view .LVU74
 129:../../os/hal/src/hal_queues.c ****     memcpy((void *)oqp->q_buffer, (const void *)bp, s2);
 348               		.loc 1 129 8 is_stmt 0 view .LVU75
 349 007c 6801      		movw r12,r16
 350 007e CE18      		sub r12,r14
 351 0080 DF08      		sbc r13,r15
 352               	.LVL29:
 130:../../os/hal/src/hal_queues.c ****     oqp->q_wrptr = oqp->q_buffer + s2;
 353               		.loc 1 130 5 is_stmt 1 view .LVU76
 128:../../os/hal/src/hal_queues.c ****     s2 = n - s1;
 354               		.loc 1 128 8 is_stmt 0 view .LVU77
 355 0082 B501      		movw r22,r10
 356 0084 6E0D      		add r22,r14
 357 0086 7F1D      		adc r23,r15
 358               	.LVL30:
 130:../../os/hal/src/hal_queues.c ****     oqp->q_wrptr = oqp->q_buffer + s2;
 359               		.loc 1 130 5 view .LVU78
 360 0088 A601      		movw r20,r12
 361 008a 8B81      		ldd r24,Y+3
 362 008c 9C81      		ldd r25,Y+4
 363 008e 0E94 0000 		call memcpy
 364               	.LVL31:
 131:../../os/hal/src/hal_queues.c ****   }
 365               		.loc 1 131 5 is_stmt 1 view .LVU79
 131:../../os/hal/src/hal_queues.c ****   }
 366               		.loc 1 131 34 is_stmt 0 view .LVU80
 367 0092 8B81      		ldd r24,Y+3
 368 0094 9C81      		ldd r25,Y+4
 369 0096 8C0D      		add r24,r12
 370 0098 9D1D      		adc r25,r13
 371 009a 00C0      		rjmp .L12
 372               	.LVL32:
 373               	.L14:
 123:../../os/hal/src/hal_queues.c ****     oqp->q_wrptr += n;
 374               		.loc 1 123 5 is_stmt 1 view .LVU81
 375 009c A801      		movw r20,r16
 376 009e B501      		movw r22,r10
 377 00a0 0E94 0000 		call memcpy
 378               	.LVL33:
 124:../../os/hal/src/hal_queues.c ****   }
 379               		.loc 1 124 5 view .LVU82
 124:../../os/hal/src/hal_queues.c ****   }
 380               		.loc 1 124 18 is_stmt 0 view .LVU83
 381 00a4 8F81      		ldd r24,Y+7
 382 00a6 9885      		ldd r25,Y+8
 383 00a8 800F      		add r24,r16
 384 00aa 911F      		adc r25,r17
 385 00ac 00C0      		rjmp .L12
 386               		.cfi_endproc
 387               	.LFE147:
 389               		.section	.text.iqObjectInit,"ax",@progbits
 390               	.global	iqObjectInit
 392               	iqObjectInit:
 393               	.LVL34:
 394               	.LFB148:
 141:../../os/hal/src/hal_queues.c **** 
 142:../../os/hal/src/hal_queues.c **** /*===========================================================================*/
 143:../../os/hal/src/hal_queues.c **** /* Driver exported variables.                                                */
 144:../../os/hal/src/hal_queues.c **** /*===========================================================================*/
 145:../../os/hal/src/hal_queues.c **** 
 146:../../os/hal/src/hal_queues.c **** /*===========================================================================*/
 147:../../os/hal/src/hal_queues.c **** /* Driver local variables and types.                                         */
 148:../../os/hal/src/hal_queues.c **** /*===========================================================================*/
 149:../../os/hal/src/hal_queues.c **** 
 150:../../os/hal/src/hal_queues.c **** /*===========================================================================*/
 151:../../os/hal/src/hal_queues.c **** /* Driver local functions.                                                   */
 152:../../os/hal/src/hal_queues.c **** /*===========================================================================*/
 153:../../os/hal/src/hal_queues.c **** 
 154:../../os/hal/src/hal_queues.c **** /*===========================================================================*/
 155:../../os/hal/src/hal_queues.c **** /* Driver interrupt handlers.                                                */
 156:../../os/hal/src/hal_queues.c **** /*===========================================================================*/
 157:../../os/hal/src/hal_queues.c **** 
 158:../../os/hal/src/hal_queues.c **** /*===========================================================================*/
 159:../../os/hal/src/hal_queues.c **** /* Driver exported functions.                                                */
 160:../../os/hal/src/hal_queues.c **** /*===========================================================================*/
 161:../../os/hal/src/hal_queues.c **** 
 162:../../os/hal/src/hal_queues.c **** /**
 163:../../os/hal/src/hal_queues.c ****  * @brief   Initializes an input queue.
 164:../../os/hal/src/hal_queues.c ****  * @details A Semaphore is internally initialized and works as a counter of
 165:../../os/hal/src/hal_queues.c ****  *          the bytes contained in the queue.
 166:../../os/hal/src/hal_queues.c ****  * @note    The callback is invoked from within the S-Locked system state.
 167:../../os/hal/src/hal_queues.c ****  *
 168:../../os/hal/src/hal_queues.c ****  * @param[out] iqp      pointer to an @p input_queue_t structure
 169:../../os/hal/src/hal_queues.c ****  * @param[in] bp        pointer to a memory area allocated as queue buffer
 170:../../os/hal/src/hal_queues.c ****  * @param[in] size      size of the queue buffer
 171:../../os/hal/src/hal_queues.c ****  * @param[in] infy      pointer to a callback function that is invoked when
 172:../../os/hal/src/hal_queues.c ****  *                      data is read from the queue. The value can be @p NULL.
 173:../../os/hal/src/hal_queues.c ****  * @param[in] link      application defined pointer
 174:../../os/hal/src/hal_queues.c ****  *
 175:../../os/hal/src/hal_queues.c ****  * @init
 176:../../os/hal/src/hal_queues.c ****  */
 177:../../os/hal/src/hal_queues.c **** void iqObjectInit(input_queue_t *iqp, uint8_t *bp, size_t size,
 178:../../os/hal/src/hal_queues.c ****                   qnotify_t infy, void *link) {
 395               		.loc 1 178 47 is_stmt 1 view -0
 396               		.cfi_startproc
 397               		.loc 1 178 47 is_stmt 0 view .LVU85
 398 0000 0F93      		push r16
 399               	.LCFI20:
 400               		.cfi_def_cfa_offset 3
 401               		.cfi_offset 16, -2
 402 0002 1F93      		push r17
 403               	.LCFI21:
 404               		.cfi_def_cfa_offset 4
 405               		.cfi_offset 17, -3
 406               	/* prologue: function */
 407               	/* frame size = 0 */
 408               	/* stack size = 2 */
 409               	.L__stack_usage = 2
 410 0004 FC01      		movw r30,r24
 411 0006 DB01      		movw r26,r22
 179:../../os/hal/src/hal_queues.c **** 
 180:../../os/hal/src/hal_queues.c ****   osalThreadQueueObjectInit(&iqp->q_waiting);
 412               		.loc 1 180 3 is_stmt 1 view .LVU86
 413               	.LVL35:
 414               	.LBB89:
 415               	.LBI89:
 416               		.file 2 "../../os/hal/osal/rt-nil/osal.h"
   1:../../os/hal/osal/rt-nil/osal.h **** /*
   2:../../os/hal/osal/rt-nil/osal.h ****     ChibiOS - Copyright (C) 2006..2018 Giovanni Di Sirio
   3:../../os/hal/osal/rt-nil/osal.h **** 
   4:../../os/hal/osal/rt-nil/osal.h ****     Licensed under the Apache License, Version 2.0 (the "License");
   5:../../os/hal/osal/rt-nil/osal.h ****     you may not use this file except in compliance with the License.
   6:../../os/hal/osal/rt-nil/osal.h ****     You may obtain a copy of the License at
   7:../../os/hal/osal/rt-nil/osal.h **** 
   8:../../os/hal/osal/rt-nil/osal.h ****         http://www.apache.org/licenses/LICENSE-2.0
   9:../../os/hal/osal/rt-nil/osal.h **** 
  10:../../os/hal/osal/rt-nil/osal.h ****     Unless required by applicable law or agreed to in writing, software
  11:../../os/hal/osal/rt-nil/osal.h ****     distributed under the License is distributed on an "AS IS" BASIS,
  12:../../os/hal/osal/rt-nil/osal.h ****     WITHOUT WARRANTIES OR CONDITIONS OF ANY KIND, either express or implied.
  13:../../os/hal/osal/rt-nil/osal.h ****     See the License for the specific language governing permissions and
  14:../../os/hal/osal/rt-nil/osal.h ****     limitations under the License.
  15:../../os/hal/osal/rt-nil/osal.h **** */
  16:../../os/hal/osal/rt-nil/osal.h **** 
  17:../../os/hal/osal/rt-nil/osal.h **** /**
  18:../../os/hal/osal/rt-nil/osal.h ****  * @file    osal.h
  19:../../os/hal/osal/rt-nil/osal.h ****  * @brief   OSAL module header.
  20:../../os/hal/osal/rt-nil/osal.h ****  *
  21:../../os/hal/osal/rt-nil/osal.h ****  * @addtogroup OSAL
  22:../../os/hal/osal/rt-nil/osal.h ****  * @{
  23:../../os/hal/osal/rt-nil/osal.h ****  */
  24:../../os/hal/osal/rt-nil/osal.h **** 
  25:../../os/hal/osal/rt-nil/osal.h **** #ifndef OSAL_H
  26:../../os/hal/osal/rt-nil/osal.h **** #define OSAL_H
  27:../../os/hal/osal/rt-nil/osal.h **** 
  28:../../os/hal/osal/rt-nil/osal.h **** #include <stddef.h>
  29:../../os/hal/osal/rt-nil/osal.h **** #include <stdint.h>
  30:../../os/hal/osal/rt-nil/osal.h **** #include <stdbool.h>
  31:../../os/hal/osal/rt-nil/osal.h **** 
  32:../../os/hal/osal/rt-nil/osal.h **** #include "ch.h"
  33:../../os/hal/osal/rt-nil/osal.h **** 
  34:../../os/hal/osal/rt-nil/osal.h **** /*===========================================================================*/
  35:../../os/hal/osal/rt-nil/osal.h **** /* Module constants.                                                         */
  36:../../os/hal/osal/rt-nil/osal.h **** /*===========================================================================*/
  37:../../os/hal/osal/rt-nil/osal.h **** 
  38:../../os/hal/osal/rt-nil/osal.h **** /**
  39:../../os/hal/osal/rt-nil/osal.h ****  * @name    Common constants
  40:../../os/hal/osal/rt-nil/osal.h ****  * @{
  41:../../os/hal/osal/rt-nil/osal.h ****  */
  42:../../os/hal/osal/rt-nil/osal.h **** #if !defined(FALSE) || defined(__DOXYGEN__)
  43:../../os/hal/osal/rt-nil/osal.h **** #define FALSE                               0
  44:../../os/hal/osal/rt-nil/osal.h **** #endif
  45:../../os/hal/osal/rt-nil/osal.h **** 
  46:../../os/hal/osal/rt-nil/osal.h **** #if !defined(TRUE) || defined(__DOXYGEN__)
  47:../../os/hal/osal/rt-nil/osal.h **** #define TRUE                                1
  48:../../os/hal/osal/rt-nil/osal.h **** #endif
  49:../../os/hal/osal/rt-nil/osal.h **** 
  50:../../os/hal/osal/rt-nil/osal.h **** #define OSAL_SUCCESS                        false
  51:../../os/hal/osal/rt-nil/osal.h **** #define OSAL_FAILED                         true
  52:../../os/hal/osal/rt-nil/osal.h **** /** @} */
  53:../../os/hal/osal/rt-nil/osal.h **** 
  54:../../os/hal/osal/rt-nil/osal.h **** #if 0
  55:../../os/hal/osal/rt-nil/osal.h **** /**
  56:../../os/hal/osal/rt-nil/osal.h ****  * @name    Messages
  57:../../os/hal/osal/rt-nil/osal.h ****  * @{
  58:../../os/hal/osal/rt-nil/osal.h ****  */
  59:../../os/hal/osal/rt-nil/osal.h **** #define MSG_OK                              (msg_t)0
  60:../../os/hal/osal/rt-nil/osal.h **** #define MSG_TIMEOUT                         (msg_t)-1
  61:../../os/hal/osal/rt-nil/osal.h **** #define MSG_RESET                           (msg_t)-2
  62:../../os/hal/osal/rt-nil/osal.h **** /** @} */
  63:../../os/hal/osal/rt-nil/osal.h **** #endif
  64:../../os/hal/osal/rt-nil/osal.h **** 
  65:../../os/hal/osal/rt-nil/osal.h **** #if 0
  66:../../os/hal/osal/rt-nil/osal.h **** /**
  67:../../os/hal/osal/rt-nil/osal.h ****  * @name    Special time constants
  68:../../os/hal/osal/rt-nil/osal.h ****  * @{
  69:../../os/hal/osal/rt-nil/osal.h ****  */
  70:../../os/hal/osal/rt-nil/osal.h **** #define TIME_IMMEDIATE                      ((sysinterval_t)0)
  71:../../os/hal/osal/rt-nil/osal.h **** #define TIME_INFINITE                       ((sysinterval_t)-1)
  72:../../os/hal/osal/rt-nil/osal.h **** /** @} */
  73:../../os/hal/osal/rt-nil/osal.h **** #endif
  74:../../os/hal/osal/rt-nil/osal.h **** 
  75:../../os/hal/osal/rt-nil/osal.h **** /**
  76:../../os/hal/osal/rt-nil/osal.h ****  * @name    Systick modes.
  77:../../os/hal/osal/rt-nil/osal.h ****  * @{
  78:../../os/hal/osal/rt-nil/osal.h ****  */
  79:../../os/hal/osal/rt-nil/osal.h **** #define OSAL_ST_MODE_NONE                   0
  80:../../os/hal/osal/rt-nil/osal.h **** #define OSAL_ST_MODE_PERIODIC               1
  81:../../os/hal/osal/rt-nil/osal.h **** #define OSAL_ST_MODE_FREERUNNING            2
  82:../../os/hal/osal/rt-nil/osal.h **** /** @} */
  83:../../os/hal/osal/rt-nil/osal.h **** 
  84:../../os/hal/osal/rt-nil/osal.h **** /**
  85:../../os/hal/osal/rt-nil/osal.h ****  * @name    Systick parameters.
  86:../../os/hal/osal/rt-nil/osal.h ****  * @{
  87:../../os/hal/osal/rt-nil/osal.h ****  */
  88:../../os/hal/osal/rt-nil/osal.h **** /**
  89:../../os/hal/osal/rt-nil/osal.h ****  * @brief   Size in bits of the @p systick_t type.
  90:../../os/hal/osal/rt-nil/osal.h ****  */
  91:../../os/hal/osal/rt-nil/osal.h **** #define OSAL_ST_RESOLUTION                  CH_CFG_ST_RESOLUTION
  92:../../os/hal/osal/rt-nil/osal.h **** 
  93:../../os/hal/osal/rt-nil/osal.h **** /**
  94:../../os/hal/osal/rt-nil/osal.h ****  * @brief   Required systick frequency or resolution.
  95:../../os/hal/osal/rt-nil/osal.h ****  */
  96:../../os/hal/osal/rt-nil/osal.h **** #define OSAL_ST_FREQUENCY                   CH_CFG_ST_FREQUENCY
  97:../../os/hal/osal/rt-nil/osal.h **** 
  98:../../os/hal/osal/rt-nil/osal.h **** /**
  99:../../os/hal/osal/rt-nil/osal.h ****  * @brief   Systick mode required by the underlying OS.
 100:../../os/hal/osal/rt-nil/osal.h ****  */
 101:../../os/hal/osal/rt-nil/osal.h **** #if (CH_CFG_ST_TIMEDELTA == 0) || defined(__DOXYGEN__)
 102:../../os/hal/osal/rt-nil/osal.h **** #define OSAL_ST_MODE                        OSAL_ST_MODE_PERIODIC
 103:../../os/hal/osal/rt-nil/osal.h **** #else
 104:../../os/hal/osal/rt-nil/osal.h **** #define OSAL_ST_MODE                        OSAL_ST_MODE_FREERUNNING
 105:../../os/hal/osal/rt-nil/osal.h **** #endif
 106:../../os/hal/osal/rt-nil/osal.h **** /** @} */
 107:../../os/hal/osal/rt-nil/osal.h **** 
 108:../../os/hal/osal/rt-nil/osal.h **** /*===========================================================================*/
 109:../../os/hal/osal/rt-nil/osal.h **** /* Module pre-compile time settings.                                         */
 110:../../os/hal/osal/rt-nil/osal.h **** /*===========================================================================*/
 111:../../os/hal/osal/rt-nil/osal.h **** 
 112:../../os/hal/osal/rt-nil/osal.h **** /*===========================================================================*/
 113:../../os/hal/osal/rt-nil/osal.h **** /* Derived constants and error checks.                                       */
 114:../../os/hal/osal/rt-nil/osal.h **** /*===========================================================================*/
 115:../../os/hal/osal/rt-nil/osal.h **** 
 116:../../os/hal/osal/rt-nil/osal.h **** #if !(OSAL_ST_MODE == OSAL_ST_MODE_NONE) &&                                 \
 117:../../os/hal/osal/rt-nil/osal.h ****     !(OSAL_ST_MODE == OSAL_ST_MODE_PERIODIC) &&                             \
 118:../../os/hal/osal/rt-nil/osal.h ****     !(OSAL_ST_MODE == OSAL_ST_MODE_FREERUNNING)
 119:../../os/hal/osal/rt-nil/osal.h **** #error "invalid OSAL_ST_MODE setting in osal.h"
 120:../../os/hal/osal/rt-nil/osal.h **** #endif
 121:../../os/hal/osal/rt-nil/osal.h **** 
 122:../../os/hal/osal/rt-nil/osal.h **** #if (OSAL_ST_RESOLUTION != 16) && (OSAL_ST_RESOLUTION != 32) &&             \
 123:../../os/hal/osal/rt-nil/osal.h ****     (OSAL_ST_RESOLUTION != 64)
 124:../../os/hal/osal/rt-nil/osal.h **** #error "invalid OSAL_ST_RESOLUTION, must be 16, 32 or 64"
 125:../../os/hal/osal/rt-nil/osal.h **** #endif
 126:../../os/hal/osal/rt-nil/osal.h **** 
 127:../../os/hal/osal/rt-nil/osal.h **** /*===========================================================================*/
 128:../../os/hal/osal/rt-nil/osal.h **** /* Module data structures and types.                                         */
 129:../../os/hal/osal/rt-nil/osal.h **** /*===========================================================================*/
 130:../../os/hal/osal/rt-nil/osal.h **** 
 131:../../os/hal/osal/rt-nil/osal.h **** #if 0
 132:../../os/hal/osal/rt-nil/osal.h **** /**
 133:../../os/hal/osal/rt-nil/osal.h ****  * @brief   Type of a system status word.
 134:../../os/hal/osal/rt-nil/osal.h ****  */
 135:../../os/hal/osal/rt-nil/osal.h **** typedef uint32_t syssts_t;
 136:../../os/hal/osal/rt-nil/osal.h **** #endif
 137:../../os/hal/osal/rt-nil/osal.h **** 
 138:../../os/hal/osal/rt-nil/osal.h **** #if 0
 139:../../os/hal/osal/rt-nil/osal.h **** /**
 140:../../os/hal/osal/rt-nil/osal.h ****  * @brief   Type of a message.
 141:../../os/hal/osal/rt-nil/osal.h ****  */
 142:../../os/hal/osal/rt-nil/osal.h **** typedef int32_t msg_t;
 143:../../os/hal/osal/rt-nil/osal.h **** #endif
 144:../../os/hal/osal/rt-nil/osal.h **** 
 145:../../os/hal/osal/rt-nil/osal.h **** #if 0
 146:../../os/hal/osal/rt-nil/osal.h **** /**
 147:../../os/hal/osal/rt-nil/osal.h ****  * @brief   Type of system time counter.
 148:../../os/hal/osal/rt-nil/osal.h ****  */
 149:../../os/hal/osal/rt-nil/osal.h **** typedef uint32_t systime_t;
 150:../../os/hal/osal/rt-nil/osal.h **** #endif
 151:../../os/hal/osal/rt-nil/osal.h **** 
 152:../../os/hal/osal/rt-nil/osal.h **** #if 0
 153:../../os/hal/osal/rt-nil/osal.h **** /**
 154:../../os/hal/osal/rt-nil/osal.h ****  * @brief   Type of system time interval.
 155:../../os/hal/osal/rt-nil/osal.h ****  */
 156:../../os/hal/osal/rt-nil/osal.h **** typedef uint32_t sysinterval_t;
 157:../../os/hal/osal/rt-nil/osal.h **** #endif
 158:../../os/hal/osal/rt-nil/osal.h **** 
 159:../../os/hal/osal/rt-nil/osal.h **** #if 0
 160:../../os/hal/osal/rt-nil/osal.h **** /**
 161:../../os/hal/osal/rt-nil/osal.h ****  * @brief   Type of time conversion variable.
 162:../../os/hal/osal/rt-nil/osal.h ****  * @note    This type must have double width than other time types, it is
 163:../../os/hal/osal/rt-nil/osal.h ****  *          only used internally for conversions.
 164:../../os/hal/osal/rt-nil/osal.h ****  */
 165:../../os/hal/osal/rt-nil/osal.h **** typedef uint64_t time_conv_t;
 166:../../os/hal/osal/rt-nil/osal.h **** #endif
 167:../../os/hal/osal/rt-nil/osal.h **** 
 168:../../os/hal/osal/rt-nil/osal.h **** #if 0
 169:../../os/hal/osal/rt-nil/osal.h **** /**
 170:../../os/hal/osal/rt-nil/osal.h ****  * @brief   Type of realtime counter.
 171:../../os/hal/osal/rt-nil/osal.h ****  */
 172:../../os/hal/osal/rt-nil/osal.h **** typedef uint32_t rtcnt_t;
 173:../../os/hal/osal/rt-nil/osal.h **** #endif
 174:../../os/hal/osal/rt-nil/osal.h **** 
 175:../../os/hal/osal/rt-nil/osal.h **** #if 0
 176:../../os/hal/osal/rt-nil/osal.h **** /**
 177:../../os/hal/osal/rt-nil/osal.h ****  * @brief   Type of a thread reference.
 178:../../os/hal/osal/rt-nil/osal.h ****  */
 179:../../os/hal/osal/rt-nil/osal.h **** typedef thread_t * thread_reference_t;
 180:../../os/hal/osal/rt-nil/osal.h **** #endif
 181:../../os/hal/osal/rt-nil/osal.h **** 
 182:../../os/hal/osal/rt-nil/osal.h **** #if 0
 183:../../os/hal/osal/rt-nil/osal.h **** /**
 184:../../os/hal/osal/rt-nil/osal.h ****  * @brief   Type of an event flags mask.
 185:../../os/hal/osal/rt-nil/osal.h ****  */
 186:../../os/hal/osal/rt-nil/osal.h **** typedef uint32_t eventflags_t;
 187:../../os/hal/osal/rt-nil/osal.h **** #endif
 188:../../os/hal/osal/rt-nil/osal.h **** 
 189:../../os/hal/osal/rt-nil/osal.h **** #if (CH_CFG_USE_EVENTS == FALSE) || defined(__DOXYGEN__)
 190:../../os/hal/osal/rt-nil/osal.h **** /**
 191:../../os/hal/osal/rt-nil/osal.h ****  * @brief   Type of an event flags object.
 192:../../os/hal/osal/rt-nil/osal.h ****  * @note    The content of this structure is not part of the API and should
 193:../../os/hal/osal/rt-nil/osal.h ****  *          not be relied upon. Implementers may define this structure in
 194:../../os/hal/osal/rt-nil/osal.h ****  *          an entirely different way.
 195:../../os/hal/osal/rt-nil/osal.h ****  * @note    Retrieval and clearing of the flags are not defined in this
 196:../../os/hal/osal/rt-nil/osal.h ****  *          API and are implementation-dependent.
 197:../../os/hal/osal/rt-nil/osal.h ****  */
 198:../../os/hal/osal/rt-nil/osal.h **** typedef struct event_source event_source_t;
 199:../../os/hal/osal/rt-nil/osal.h **** 
 200:../../os/hal/osal/rt-nil/osal.h **** /**
 201:../../os/hal/osal/rt-nil/osal.h ****  * @brief   Type of an event source callback.
 202:../../os/hal/osal/rt-nil/osal.h ****  * @note    This type is not part of the OSAL API and is provided
 203:../../os/hal/osal/rt-nil/osal.h ****  *          exclusively as an example and for convenience.
 204:../../os/hal/osal/rt-nil/osal.h ****  */
 205:../../os/hal/osal/rt-nil/osal.h **** typedef void (*eventcallback_t)(event_source_t *esp);
 206:../../os/hal/osal/rt-nil/osal.h **** 
 207:../../os/hal/osal/rt-nil/osal.h **** /**
 208:../../os/hal/osal/rt-nil/osal.h ****  * @brief   Events source object.
 209:../../os/hal/osal/rt-nil/osal.h ****  * @note    The content of this structure is not part of the API and should
 210:../../os/hal/osal/rt-nil/osal.h ****  *          not be relied upon. Implementers may define this structure in
 211:../../os/hal/osal/rt-nil/osal.h ****  *          an entirely different way.
 212:../../os/hal/osal/rt-nil/osal.h ****  * @note    Retrieval and clearing of the flags are not defined in this
 213:../../os/hal/osal/rt-nil/osal.h ****  *          API and are implementation-dependent.
 214:../../os/hal/osal/rt-nil/osal.h ****  */
 215:../../os/hal/osal/rt-nil/osal.h **** struct event_source {
 216:../../os/hal/osal/rt-nil/osal.h ****   volatile eventflags_t flags;      /**< @brief Stored event flags.         */
 217:../../os/hal/osal/rt-nil/osal.h ****   eventcallback_t       cb;         /**< @brief Event source callback.      */
 218:../../os/hal/osal/rt-nil/osal.h ****   void                  *param;     /**< @brief User defined field.         */
 219:../../os/hal/osal/rt-nil/osal.h **** };
 220:../../os/hal/osal/rt-nil/osal.h **** #endif /* CH_CFG_USE_EVENTS == FALSE */
 221:../../os/hal/osal/rt-nil/osal.h **** 
 222:../../os/hal/osal/rt-nil/osal.h **** /**
 223:../../os/hal/osal/rt-nil/osal.h ****  * @brief   Type of a mutex.
 224:../../os/hal/osal/rt-nil/osal.h ****  * @note    If the OS does not support mutexes or there is no OS then the
 225:../../os/hal/osal/rt-nil/osal.h ****  *          mechanism can be simulated.
 226:../../os/hal/osal/rt-nil/osal.h ****  */
 227:../../os/hal/osal/rt-nil/osal.h **** #if CH_CFG_USE_MUTEXES || defined(__DOXYGEN__)
 228:../../os/hal/osal/rt-nil/osal.h **** #elif CH_CFG_USE_SEMAPHORES
 229:../../os/hal/osal/rt-nil/osal.h **** typedef semaphore_t mutex_t;
 230:../../os/hal/osal/rt-nil/osal.h **** #else
 231:../../os/hal/osal/rt-nil/osal.h **** typedef uint32_t mutex_t;
 232:../../os/hal/osal/rt-nil/osal.h **** #endif
 233:../../os/hal/osal/rt-nil/osal.h **** 
 234:../../os/hal/osal/rt-nil/osal.h **** #if 0
 235:../../os/hal/osal/rt-nil/osal.h **** /**
 236:../../os/hal/osal/rt-nil/osal.h ****  * @brief   Type of a thread queue.
 237:../../os/hal/osal/rt-nil/osal.h ****  * @details A thread queue is a queue of sleeping threads, queued threads
 238:../../os/hal/osal/rt-nil/osal.h ****  *          can be dequeued one at time or all together.
 239:../../os/hal/osal/rt-nil/osal.h ****  * @note    In this implementation it is implemented as a single reference
 240:../../os/hal/osal/rt-nil/osal.h ****  *          because there are no real threads.
 241:../../os/hal/osal/rt-nil/osal.h ****  */
 242:../../os/hal/osal/rt-nil/osal.h **** typedef struct {
 243:../../os/hal/osal/rt-nil/osal.h ****   thread_reference_t    tr;
 244:../../os/hal/osal/rt-nil/osal.h **** } threads_queue_t;
 245:../../os/hal/osal/rt-nil/osal.h **** #endif
 246:../../os/hal/osal/rt-nil/osal.h **** 
 247:../../os/hal/osal/rt-nil/osal.h **** /*===========================================================================*/
 248:../../os/hal/osal/rt-nil/osal.h **** /* Module macros.                                                            */
 249:../../os/hal/osal/rt-nil/osal.h **** /*===========================================================================*/
 250:../../os/hal/osal/rt-nil/osal.h **** 
 251:../../os/hal/osal/rt-nil/osal.h **** /**
 252:../../os/hal/osal/rt-nil/osal.h ****  * @name    Debug related macros
 253:../../os/hal/osal/rt-nil/osal.h ****  * @{
 254:../../os/hal/osal/rt-nil/osal.h ****  */
 255:../../os/hal/osal/rt-nil/osal.h **** /**
 256:../../os/hal/osal/rt-nil/osal.h ****  * @brief   Condition assertion.
 257:../../os/hal/osal/rt-nil/osal.h ****  * @details If the condition check fails then the OSAL panics with a
 258:../../os/hal/osal/rt-nil/osal.h ****  *          message and halts.
 259:../../os/hal/osal/rt-nil/osal.h ****  * @note    The condition is tested only if the @p OSAL_ENABLE_ASSERTIONS
 260:../../os/hal/osal/rt-nil/osal.h ****  *          switch is enabled.
 261:../../os/hal/osal/rt-nil/osal.h ****  * @note    The remark string is not currently used except for putting a
 262:../../os/hal/osal/rt-nil/osal.h ****  *          comment in the code about the assertion.
 263:../../os/hal/osal/rt-nil/osal.h ****  *
 264:../../os/hal/osal/rt-nil/osal.h ****  * @param[in] c         the condition to be verified to be true
 265:../../os/hal/osal/rt-nil/osal.h ****  * @param[in] remark    a remark string
 266:../../os/hal/osal/rt-nil/osal.h ****  *
 267:../../os/hal/osal/rt-nil/osal.h ****  * @api
 268:../../os/hal/osal/rt-nil/osal.h ****  */
 269:../../os/hal/osal/rt-nil/osal.h **** #define osalDbgAssert(c, remark) chDbgAssert(c, remark)
 270:../../os/hal/osal/rt-nil/osal.h **** 
 271:../../os/hal/osal/rt-nil/osal.h **** /**
 272:../../os/hal/osal/rt-nil/osal.h ****  * @brief   Function parameters check.
 273:../../os/hal/osal/rt-nil/osal.h ****  * @details If the condition check fails then the OSAL panics and halts.
 274:../../os/hal/osal/rt-nil/osal.h ****  * @note    The condition is tested only if the @p OSAL_ENABLE_CHECKS switch
 275:../../os/hal/osal/rt-nil/osal.h ****  *          is enabled.
 276:../../os/hal/osal/rt-nil/osal.h ****  *
 277:../../os/hal/osal/rt-nil/osal.h ****  * @param[in] c         the condition to be verified to be true
 278:../../os/hal/osal/rt-nil/osal.h ****  *
 279:../../os/hal/osal/rt-nil/osal.h ****  * @api
 280:../../os/hal/osal/rt-nil/osal.h ****  */
 281:../../os/hal/osal/rt-nil/osal.h **** #define osalDbgCheck(c) chDbgCheck(c)
 282:../../os/hal/osal/rt-nil/osal.h **** 
 283:../../os/hal/osal/rt-nil/osal.h **** /**
 284:../../os/hal/osal/rt-nil/osal.h ****  * @brief   I-Class state check.
 285:../../os/hal/osal/rt-nil/osal.h ****  * @note    Not implemented in this simplified OSAL.
 286:../../os/hal/osal/rt-nil/osal.h ****  */
 287:../../os/hal/osal/rt-nil/osal.h **** #define osalDbgCheckClassI() chDbgCheckClassI()
 288:../../os/hal/osal/rt-nil/osal.h **** 
 289:../../os/hal/osal/rt-nil/osal.h **** /**
 290:../../os/hal/osal/rt-nil/osal.h ****  * @brief   S-Class state check.
 291:../../os/hal/osal/rt-nil/osal.h ****  * @note    Not implemented in this simplified OSAL.
 292:../../os/hal/osal/rt-nil/osal.h ****  */
 293:../../os/hal/osal/rt-nil/osal.h **** #define osalDbgCheckClassS() chDbgCheckClassS()
 294:../../os/hal/osal/rt-nil/osal.h **** /** @} */
 295:../../os/hal/osal/rt-nil/osal.h **** 
 296:../../os/hal/osal/rt-nil/osal.h **** /**
 297:../../os/hal/osal/rt-nil/osal.h ****  * @name    IRQ service routines wrappers
 298:../../os/hal/osal/rt-nil/osal.h ****  * @{
 299:../../os/hal/osal/rt-nil/osal.h ****  */
 300:../../os/hal/osal/rt-nil/osal.h **** /**
 301:../../os/hal/osal/rt-nil/osal.h ****  * @brief   Priority level verification macro.
 302:../../os/hal/osal/rt-nil/osal.h ****  */
 303:../../os/hal/osal/rt-nil/osal.h **** #define OSAL_IRQ_IS_VALID_PRIORITY(n) CH_IRQ_IS_VALID_KERNEL_PRIORITY(n)
 304:../../os/hal/osal/rt-nil/osal.h **** 
 305:../../os/hal/osal/rt-nil/osal.h **** /**
 306:../../os/hal/osal/rt-nil/osal.h ****  * @brief   IRQ prologue code.
 307:../../os/hal/osal/rt-nil/osal.h ****  * @details This macro must be inserted at the start of all IRQ handlers.
 308:../../os/hal/osal/rt-nil/osal.h ****  */
 309:../../os/hal/osal/rt-nil/osal.h **** #define OSAL_IRQ_PROLOGUE() CH_IRQ_PROLOGUE()
 310:../../os/hal/osal/rt-nil/osal.h **** 
 311:../../os/hal/osal/rt-nil/osal.h **** /**
 312:../../os/hal/osal/rt-nil/osal.h ****  * @brief   IRQ epilogue code.
 313:../../os/hal/osal/rt-nil/osal.h ****  * @details This macro must be inserted at the end of all IRQ handlers.
 314:../../os/hal/osal/rt-nil/osal.h ****  */
 315:../../os/hal/osal/rt-nil/osal.h **** #define OSAL_IRQ_EPILOGUE() CH_IRQ_EPILOGUE()
 316:../../os/hal/osal/rt-nil/osal.h **** 
 317:../../os/hal/osal/rt-nil/osal.h **** /**
 318:../../os/hal/osal/rt-nil/osal.h ****  * @brief   IRQ handler function declaration.
 319:../../os/hal/osal/rt-nil/osal.h ****  * @details This macro hides the details of an ISR function declaration.
 320:../../os/hal/osal/rt-nil/osal.h ****  *
 321:../../os/hal/osal/rt-nil/osal.h ****  * @param[in] id        a vector name as defined in @p vectors.s
 322:../../os/hal/osal/rt-nil/osal.h ****  */
 323:../../os/hal/osal/rt-nil/osal.h **** #define OSAL_IRQ_HANDLER(id) CH_IRQ_HANDLER(id)
 324:../../os/hal/osal/rt-nil/osal.h **** /** @} */
 325:../../os/hal/osal/rt-nil/osal.h **** 
 326:../../os/hal/osal/rt-nil/osal.h **** /**
 327:../../os/hal/osal/rt-nil/osal.h ****  * @name    Time conversion utilities
 328:../../os/hal/osal/rt-nil/osal.h ****  * @{
 329:../../os/hal/osal/rt-nil/osal.h ****  */
 330:../../os/hal/osal/rt-nil/osal.h **** /**
 331:../../os/hal/osal/rt-nil/osal.h ****  * @brief   Seconds to time interval.
 332:../../os/hal/osal/rt-nil/osal.h ****  * @details Converts from seconds to system ticks number.
 333:../../os/hal/osal/rt-nil/osal.h ****  * @note    The result is rounded upward to the next tick boundary.
 334:../../os/hal/osal/rt-nil/osal.h ****  * @note    Use of this macro for large values is not secure because
 335:../../os/hal/osal/rt-nil/osal.h ****  *          integer overflows, make sure your value can be correctly
 336:../../os/hal/osal/rt-nil/osal.h ****  *          converted.
 337:../../os/hal/osal/rt-nil/osal.h ****  *
 338:../../os/hal/osal/rt-nil/osal.h ****  * @param[in] secs      number of seconds
 339:../../os/hal/osal/rt-nil/osal.h ****  * @return              The number of ticks.
 340:../../os/hal/osal/rt-nil/osal.h ****  *
 341:../../os/hal/osal/rt-nil/osal.h ****  * @api
 342:../../os/hal/osal/rt-nil/osal.h ****  */
 343:../../os/hal/osal/rt-nil/osal.h **** #define OSAL_S2I(secs) TIME_S2I(secs)
 344:../../os/hal/osal/rt-nil/osal.h **** 
 345:../../os/hal/osal/rt-nil/osal.h **** /**
 346:../../os/hal/osal/rt-nil/osal.h ****  * @brief   Milliseconds to time interval.
 347:../../os/hal/osal/rt-nil/osal.h ****  * @details Converts from milliseconds to system ticks number.
 348:../../os/hal/osal/rt-nil/osal.h ****  * @note    The result is rounded upward to the next tick boundary.
 349:../../os/hal/osal/rt-nil/osal.h ****  * @note    Use of this macro for large values is not secure because
 350:../../os/hal/osal/rt-nil/osal.h ****  *          integer overflows, make sure your value can be correctly
 351:../../os/hal/osal/rt-nil/osal.h ****  *          converted.
 352:../../os/hal/osal/rt-nil/osal.h ****  *
 353:../../os/hal/osal/rt-nil/osal.h ****  * @param[in] msecs     number of milliseconds
 354:../../os/hal/osal/rt-nil/osal.h ****  * @return              The number of ticks.
 355:../../os/hal/osal/rt-nil/osal.h ****  *
 356:../../os/hal/osal/rt-nil/osal.h ****  * @api
 357:../../os/hal/osal/rt-nil/osal.h ****  */
 358:../../os/hal/osal/rt-nil/osal.h **** #define OSAL_MS2I(msecs) TIME_MS2I(msecs)
 359:../../os/hal/osal/rt-nil/osal.h **** 
 360:../../os/hal/osal/rt-nil/osal.h **** /**
 361:../../os/hal/osal/rt-nil/osal.h ****  * @brief   Microseconds to time interval.
 362:../../os/hal/osal/rt-nil/osal.h ****  * @details Converts from microseconds to system ticks number.
 363:../../os/hal/osal/rt-nil/osal.h ****  * @note    The result is rounded upward to the next tick boundary.
 364:../../os/hal/osal/rt-nil/osal.h ****  * @note    Use of this macro for large values is not secure because
 365:../../os/hal/osal/rt-nil/osal.h ****  *          integer overflows, make sure your value can be correctly
 366:../../os/hal/osal/rt-nil/osal.h ****  *          converted.
 367:../../os/hal/osal/rt-nil/osal.h ****  *
 368:../../os/hal/osal/rt-nil/osal.h ****  * @param[in] usecs     number of microseconds
 369:../../os/hal/osal/rt-nil/osal.h ****  * @return              The number of ticks.
 370:../../os/hal/osal/rt-nil/osal.h ****  *
 371:../../os/hal/osal/rt-nil/osal.h ****  * @api
 372:../../os/hal/osal/rt-nil/osal.h ****  */
 373:../../os/hal/osal/rt-nil/osal.h **** #define OSAL_US2I(usecs) TIME_US2I(usecs)
 374:../../os/hal/osal/rt-nil/osal.h **** 
 375:../../os/hal/osal/rt-nil/osal.h **** /**
 376:../../os/hal/osal/rt-nil/osal.h ****  * @brief   Time interval to seconds.
 377:../../os/hal/osal/rt-nil/osal.h ****  * @details Converts from system ticks number to seconds.
 378:../../os/hal/osal/rt-nil/osal.h ****  * @note    The result is rounded up to the next second boundary.
 379:../../os/hal/osal/rt-nil/osal.h ****  * @note    Use of this macro for large values is not secure because
 380:../../os/hal/osal/rt-nil/osal.h ****  *          integer overflows, make sure your value can be correctly
 381:../../os/hal/osal/rt-nil/osal.h ****  *          converted.
 382:../../os/hal/osal/rt-nil/osal.h ****  *
 383:../../os/hal/osal/rt-nil/osal.h ****  * @param[in] interval  interval in ticks
 384:../../os/hal/osal/rt-nil/osal.h ****  * @return              The number of seconds.
 385:../../os/hal/osal/rt-nil/osal.h ****  *
 386:../../os/hal/osal/rt-nil/osal.h ****  * @api
 387:../../os/hal/osal/rt-nil/osal.h ****  */
 388:../../os/hal/osal/rt-nil/osal.h **** #define OSAL_I2S(interval) TIME_I2S(interval)
 389:../../os/hal/osal/rt-nil/osal.h **** 
 390:../../os/hal/osal/rt-nil/osal.h **** /**
 391:../../os/hal/osal/rt-nil/osal.h ****  * @brief   Time interval to milliseconds.
 392:../../os/hal/osal/rt-nil/osal.h ****  * @details Converts from system ticks number to milliseconds.
 393:../../os/hal/osal/rt-nil/osal.h ****  * @note    The result is rounded up to the next millisecond boundary.
 394:../../os/hal/osal/rt-nil/osal.h ****  * @note    Use of this macro for large values is not secure because
 395:../../os/hal/osal/rt-nil/osal.h ****  *          integer overflows, make sure your value can be correctly
 396:../../os/hal/osal/rt-nil/osal.h ****  *          converted.
 397:../../os/hal/osal/rt-nil/osal.h ****  *
 398:../../os/hal/osal/rt-nil/osal.h ****  * @param[in] interval  interval in ticks
 399:../../os/hal/osal/rt-nil/osal.h ****  * @return              The number of milliseconds.
 400:../../os/hal/osal/rt-nil/osal.h ****  *
 401:../../os/hal/osal/rt-nil/osal.h ****  * @api
 402:../../os/hal/osal/rt-nil/osal.h ****  */
 403:../../os/hal/osal/rt-nil/osal.h **** #define OSAL_I2MS(interval) TIME_I2MS(interval)
 404:../../os/hal/osal/rt-nil/osal.h **** 
 405:../../os/hal/osal/rt-nil/osal.h **** /**
 406:../../os/hal/osal/rt-nil/osal.h ****  * @brief   Time interval to microseconds.
 407:../../os/hal/osal/rt-nil/osal.h ****  * @details Converts from system ticks number to microseconds.
 408:../../os/hal/osal/rt-nil/osal.h ****  * @note    The result is rounded up to the next microsecond boundary.
 409:../../os/hal/osal/rt-nil/osal.h ****  * @note    Use of this macro for large values is not secure because
 410:../../os/hal/osal/rt-nil/osal.h ****  *          integer overflows, make sure your value can be correctly
 411:../../os/hal/osal/rt-nil/osal.h ****  *          converted.
 412:../../os/hal/osal/rt-nil/osal.h ****  *
 413:../../os/hal/osal/rt-nil/osal.h ****  * @param[in] interval  interval in ticks
 414:../../os/hal/osal/rt-nil/osal.h ****  * @return              The number of microseconds.
 415:../../os/hal/osal/rt-nil/osal.h ****  *
 416:../../os/hal/osal/rt-nil/osal.h ****  * @api
 417:../../os/hal/osal/rt-nil/osal.h ****  */
 418:../../os/hal/osal/rt-nil/osal.h **** #define OSAL_I2US(interval) TIME_I2US(interval)
 419:../../os/hal/osal/rt-nil/osal.h **** /** @} */
 420:../../os/hal/osal/rt-nil/osal.h **** 
 421:../../os/hal/osal/rt-nil/osal.h **** /**
 422:../../os/hal/osal/rt-nil/osal.h ****  * @name    Time conversion utilities for the realtime counter
 423:../../os/hal/osal/rt-nil/osal.h ****  * @{
 424:../../os/hal/osal/rt-nil/osal.h ****  */
 425:../../os/hal/osal/rt-nil/osal.h **** /**
 426:../../os/hal/osal/rt-nil/osal.h ****  * @brief   Seconds to realtime counter.
 427:../../os/hal/osal/rt-nil/osal.h ****  * @details Converts from seconds to realtime counter cycles.
 428:../../os/hal/osal/rt-nil/osal.h ****  * @note    The macro assumes that @p freq >= @p 1.
 429:../../os/hal/osal/rt-nil/osal.h ****  *
 430:../../os/hal/osal/rt-nil/osal.h ****  * @param[in] freq      clock frequency, in Hz, of the realtime counter
 431:../../os/hal/osal/rt-nil/osal.h ****  * @param[in] sec       number of seconds
 432:../../os/hal/osal/rt-nil/osal.h ****  * @return              The number of cycles.
 433:../../os/hal/osal/rt-nil/osal.h ****  *
 434:../../os/hal/osal/rt-nil/osal.h ****  * @api
 435:../../os/hal/osal/rt-nil/osal.h ****  */
 436:../../os/hal/osal/rt-nil/osal.h **** #define OSAL_S2RTC(freq, sec) S2RTC(freq, sec)
 437:../../os/hal/osal/rt-nil/osal.h **** 
 438:../../os/hal/osal/rt-nil/osal.h **** /**
 439:../../os/hal/osal/rt-nil/osal.h ****  * @brief   Milliseconds to realtime counter.
 440:../../os/hal/osal/rt-nil/osal.h ****  * @details Converts from milliseconds to realtime counter cycles.
 441:../../os/hal/osal/rt-nil/osal.h ****  * @note    The result is rounded upward to the next millisecond boundary.
 442:../../os/hal/osal/rt-nil/osal.h ****  * @note    The macro assumes that @p freq >= @p 1000.
 443:../../os/hal/osal/rt-nil/osal.h ****  *
 444:../../os/hal/osal/rt-nil/osal.h ****  * @param[in] freq      clock frequency, in Hz, of the realtime counter
 445:../../os/hal/osal/rt-nil/osal.h ****  * @param[in] msec      number of milliseconds
 446:../../os/hal/osal/rt-nil/osal.h ****  * @return              The number of cycles.
 447:../../os/hal/osal/rt-nil/osal.h ****  *
 448:../../os/hal/osal/rt-nil/osal.h ****  * @api
 449:../../os/hal/osal/rt-nil/osal.h ****  */
 450:../../os/hal/osal/rt-nil/osal.h **** #define OSAL_MS2RTC(freq, msec) MS2RTC(freq, msec)
 451:../../os/hal/osal/rt-nil/osal.h **** 
 452:../../os/hal/osal/rt-nil/osal.h **** /**
 453:../../os/hal/osal/rt-nil/osal.h ****  * @brief   Microseconds to realtime counter.
 454:../../os/hal/osal/rt-nil/osal.h ****  * @details Converts from microseconds to realtime counter cycles.
 455:../../os/hal/osal/rt-nil/osal.h ****  * @note    The result is rounded upward to the next microsecond boundary.
 456:../../os/hal/osal/rt-nil/osal.h ****  * @note    The macro assumes that @p freq >= @p 1000000.
 457:../../os/hal/osal/rt-nil/osal.h ****  *
 458:../../os/hal/osal/rt-nil/osal.h ****  * @param[in] freq      clock frequency, in Hz, of the realtime counter
 459:../../os/hal/osal/rt-nil/osal.h ****  * @param[in] usec      number of microseconds
 460:../../os/hal/osal/rt-nil/osal.h ****  * @return              The number of cycles.
 461:../../os/hal/osal/rt-nil/osal.h ****  *
 462:../../os/hal/osal/rt-nil/osal.h ****  * @api
 463:../../os/hal/osal/rt-nil/osal.h ****  */
 464:../../os/hal/osal/rt-nil/osal.h **** #define OSAL_US2RTC(freq, usec) US2RTC(freq, usec)
 465:../../os/hal/osal/rt-nil/osal.h **** /** @} */
 466:../../os/hal/osal/rt-nil/osal.h **** 
 467:../../os/hal/osal/rt-nil/osal.h **** /**
 468:../../os/hal/osal/rt-nil/osal.h ****  * @name    Sleep macros using absolute time
 469:../../os/hal/osal/rt-nil/osal.h ****  * @{
 470:../../os/hal/osal/rt-nil/osal.h ****  */
 471:../../os/hal/osal/rt-nil/osal.h **** /**
 472:../../os/hal/osal/rt-nil/osal.h ****  * @brief   Delays the invoking thread for the specified number of seconds.
 473:../../os/hal/osal/rt-nil/osal.h ****  * @note    The specified time is rounded up to a value allowed by the real
 474:../../os/hal/osal/rt-nil/osal.h ****  *          system tick clock.
 475:../../os/hal/osal/rt-nil/osal.h ****  * @note    The maximum specifiable value is implementation dependent.
 476:../../os/hal/osal/rt-nil/osal.h ****  *
 477:../../os/hal/osal/rt-nil/osal.h ****  * @param[in] secs      time in seconds, must be different from zero
 478:../../os/hal/osal/rt-nil/osal.h ****  *
 479:../../os/hal/osal/rt-nil/osal.h ****  * @api
 480:../../os/hal/osal/rt-nil/osal.h ****  */
 481:../../os/hal/osal/rt-nil/osal.h **** #define osalThreadSleepSeconds(secs) osalThreadSleep(OSAL_S2I(secs))
 482:../../os/hal/osal/rt-nil/osal.h **** 
 483:../../os/hal/osal/rt-nil/osal.h **** /**
 484:../../os/hal/osal/rt-nil/osal.h ****  * @brief   Delays the invoking thread for the specified number of
 485:../../os/hal/osal/rt-nil/osal.h ****  *          milliseconds.
 486:../../os/hal/osal/rt-nil/osal.h ****  * @note    The specified time is rounded up to a value allowed by the real
 487:../../os/hal/osal/rt-nil/osal.h ****  *          system tick clock.
 488:../../os/hal/osal/rt-nil/osal.h ****  * @note    The maximum specifiable value is implementation dependent.
 489:../../os/hal/osal/rt-nil/osal.h ****  *
 490:../../os/hal/osal/rt-nil/osal.h ****  * @param[in] msecs     time in milliseconds, must be different from zero
 491:../../os/hal/osal/rt-nil/osal.h ****  *
 492:../../os/hal/osal/rt-nil/osal.h ****  * @api
 493:../../os/hal/osal/rt-nil/osal.h ****  */
 494:../../os/hal/osal/rt-nil/osal.h **** #define osalThreadSleepMilliseconds(msecs) osalThreadSleep(OSAL_MS2I(msecs))
 495:../../os/hal/osal/rt-nil/osal.h **** 
 496:../../os/hal/osal/rt-nil/osal.h **** /**
 497:../../os/hal/osal/rt-nil/osal.h ****  * @brief   Delays the invoking thread for the specified number of
 498:../../os/hal/osal/rt-nil/osal.h ****  *          microseconds.
 499:../../os/hal/osal/rt-nil/osal.h ****  * @note    The specified time is rounded up to a value allowed by the real
 500:../../os/hal/osal/rt-nil/osal.h ****  *          system tick clock.
 501:../../os/hal/osal/rt-nil/osal.h ****  * @note    The maximum specifiable value is implementation dependent.
 502:../../os/hal/osal/rt-nil/osal.h ****  *
 503:../../os/hal/osal/rt-nil/osal.h ****  * @param[in] usecs     time in microseconds, must be different from zero
 504:../../os/hal/osal/rt-nil/osal.h ****  *
 505:../../os/hal/osal/rt-nil/osal.h ****  * @api
 506:../../os/hal/osal/rt-nil/osal.h ****  */
 507:../../os/hal/osal/rt-nil/osal.h **** #define osalThreadSleepMicroseconds(usecs) osalThreadSleep(OSAL_US2I(usecs))
 508:../../os/hal/osal/rt-nil/osal.h **** /** @} */
 509:../../os/hal/osal/rt-nil/osal.h **** 
 510:../../os/hal/osal/rt-nil/osal.h **** /*===========================================================================*/
 511:../../os/hal/osal/rt-nil/osal.h **** /* External declarations.                                                    */
 512:../../os/hal/osal/rt-nil/osal.h **** /*===========================================================================*/
 513:../../os/hal/osal/rt-nil/osal.h **** 
 514:../../os/hal/osal/rt-nil/osal.h **** #ifdef __cplusplus
 515:../../os/hal/osal/rt-nil/osal.h **** extern "C" {
 516:../../os/hal/osal/rt-nil/osal.h **** #endif
 517:../../os/hal/osal/rt-nil/osal.h **** 
 518:../../os/hal/osal/rt-nil/osal.h **** #ifdef __cplusplus
 519:../../os/hal/osal/rt-nil/osal.h **** }
 520:../../os/hal/osal/rt-nil/osal.h **** #endif
 521:../../os/hal/osal/rt-nil/osal.h **** 
 522:../../os/hal/osal/rt-nil/osal.h **** /*===========================================================================*/
 523:../../os/hal/osal/rt-nil/osal.h **** /* Module inline functions.                                                  */
 524:../../os/hal/osal/rt-nil/osal.h **** /*===========================================================================*/
 525:../../os/hal/osal/rt-nil/osal.h **** 
 526:../../os/hal/osal/rt-nil/osal.h **** /**
 527:../../os/hal/osal/rt-nil/osal.h ****  * @brief   OSAL module initialization.
 528:../../os/hal/osal/rt-nil/osal.h ****  *
 529:../../os/hal/osal/rt-nil/osal.h ****  * @api
 530:../../os/hal/osal/rt-nil/osal.h ****  */
 531:../../os/hal/osal/rt-nil/osal.h **** static inline void osalInit(void) {
 532:../../os/hal/osal/rt-nil/osal.h **** 
 533:../../os/hal/osal/rt-nil/osal.h **** }
 534:../../os/hal/osal/rt-nil/osal.h **** 
 535:../../os/hal/osal/rt-nil/osal.h **** /**
 536:../../os/hal/osal/rt-nil/osal.h ****  * @brief   System halt with error message.
 537:../../os/hal/osal/rt-nil/osal.h ****  *
 538:../../os/hal/osal/rt-nil/osal.h ****  * @param[in] reason    the halt message pointer
 539:../../os/hal/osal/rt-nil/osal.h ****  *
 540:../../os/hal/osal/rt-nil/osal.h ****  * @api
 541:../../os/hal/osal/rt-nil/osal.h ****  */
 542:../../os/hal/osal/rt-nil/osal.h **** static inline void osalSysHalt(const char *reason) {
 543:../../os/hal/osal/rt-nil/osal.h **** 
 544:../../os/hal/osal/rt-nil/osal.h ****   chSysHalt(reason);
 545:../../os/hal/osal/rt-nil/osal.h **** }
 546:../../os/hal/osal/rt-nil/osal.h **** 
 547:../../os/hal/osal/rt-nil/osal.h **** /**
 548:../../os/hal/osal/rt-nil/osal.h ****  * @brief   Disables interrupts globally.
 549:../../os/hal/osal/rt-nil/osal.h ****  *
 550:../../os/hal/osal/rt-nil/osal.h ****  * @special
 551:../../os/hal/osal/rt-nil/osal.h ****  */
 552:../../os/hal/osal/rt-nil/osal.h **** static inline void osalSysDisable(void) {
 553:../../os/hal/osal/rt-nil/osal.h **** 
 554:../../os/hal/osal/rt-nil/osal.h ****   chSysDisable();
 555:../../os/hal/osal/rt-nil/osal.h **** }
 556:../../os/hal/osal/rt-nil/osal.h **** 
 557:../../os/hal/osal/rt-nil/osal.h **** /**
 558:../../os/hal/osal/rt-nil/osal.h ****  * @brief   Enables interrupts globally.
 559:../../os/hal/osal/rt-nil/osal.h ****  *
 560:../../os/hal/osal/rt-nil/osal.h ****  * @special
 561:../../os/hal/osal/rt-nil/osal.h ****  */
 562:../../os/hal/osal/rt-nil/osal.h **** static inline void osalSysEnable(void) {
 563:../../os/hal/osal/rt-nil/osal.h **** 
 564:../../os/hal/osal/rt-nil/osal.h ****   chSysEnable();
 565:../../os/hal/osal/rt-nil/osal.h **** }
 566:../../os/hal/osal/rt-nil/osal.h **** 
 567:../../os/hal/osal/rt-nil/osal.h **** /**
 568:../../os/hal/osal/rt-nil/osal.h ****  * @brief   Enters a critical zone from thread context.
 569:../../os/hal/osal/rt-nil/osal.h ****  * @note    This function cannot be used for reentrant critical zones.
 570:../../os/hal/osal/rt-nil/osal.h ****  *
 571:../../os/hal/osal/rt-nil/osal.h ****  * @special
 572:../../os/hal/osal/rt-nil/osal.h ****  */
 573:../../os/hal/osal/rt-nil/osal.h **** static inline void osalSysLock(void) {
 574:../../os/hal/osal/rt-nil/osal.h **** 
 575:../../os/hal/osal/rt-nil/osal.h ****   chSysLock();
 576:../../os/hal/osal/rt-nil/osal.h **** }
 577:../../os/hal/osal/rt-nil/osal.h **** 
 578:../../os/hal/osal/rt-nil/osal.h **** /**
 579:../../os/hal/osal/rt-nil/osal.h ****  * @brief   Leaves a critical zone from thread context.
 580:../../os/hal/osal/rt-nil/osal.h ****  * @note    This function cannot be used for reentrant critical zones.
 581:../../os/hal/osal/rt-nil/osal.h ****  *
 582:../../os/hal/osal/rt-nil/osal.h ****  * @special
 583:../../os/hal/osal/rt-nil/osal.h ****  */
 584:../../os/hal/osal/rt-nil/osal.h **** static inline void osalSysUnlock(void) {
 585:../../os/hal/osal/rt-nil/osal.h **** 
 586:../../os/hal/osal/rt-nil/osal.h ****   chSysUnlock();
 587:../../os/hal/osal/rt-nil/osal.h **** }
 588:../../os/hal/osal/rt-nil/osal.h **** 
 589:../../os/hal/osal/rt-nil/osal.h **** /**
 590:../../os/hal/osal/rt-nil/osal.h ****  * @brief   Enters a critical zone from ISR context.
 591:../../os/hal/osal/rt-nil/osal.h ****  * @note    This function cannot be used for reentrant critical zones.
 592:../../os/hal/osal/rt-nil/osal.h ****  *
 593:../../os/hal/osal/rt-nil/osal.h ****  * @special
 594:../../os/hal/osal/rt-nil/osal.h ****  */
 595:../../os/hal/osal/rt-nil/osal.h **** static inline void osalSysLockFromISR(void) {
 596:../../os/hal/osal/rt-nil/osal.h **** 
 597:../../os/hal/osal/rt-nil/osal.h ****   chSysLockFromISR();
 598:../../os/hal/osal/rt-nil/osal.h **** }
 599:../../os/hal/osal/rt-nil/osal.h **** 
 600:../../os/hal/osal/rt-nil/osal.h **** /**
 601:../../os/hal/osal/rt-nil/osal.h ****  * @brief   Leaves a critical zone from ISR context.
 602:../../os/hal/osal/rt-nil/osal.h ****  * @note    This function cannot be used for reentrant critical zones.
 603:../../os/hal/osal/rt-nil/osal.h ****  *
 604:../../os/hal/osal/rt-nil/osal.h ****  * @special
 605:../../os/hal/osal/rt-nil/osal.h ****  */
 606:../../os/hal/osal/rt-nil/osal.h **** static inline void osalSysUnlockFromISR(void) {
 607:../../os/hal/osal/rt-nil/osal.h **** 
 608:../../os/hal/osal/rt-nil/osal.h ****   chSysUnlockFromISR();
 609:../../os/hal/osal/rt-nil/osal.h **** }
 610:../../os/hal/osal/rt-nil/osal.h **** 
 611:../../os/hal/osal/rt-nil/osal.h **** /**
 612:../../os/hal/osal/rt-nil/osal.h ****  * @brief   Returns the execution status and enters a critical zone.
 613:../../os/hal/osal/rt-nil/osal.h ****  * @details This functions enters into a critical zone and can be called
 614:../../os/hal/osal/rt-nil/osal.h ****  *          from any context. Because its flexibility it is less efficient
 615:../../os/hal/osal/rt-nil/osal.h ****  *          than @p chSysLock() which is preferable when the calling context
 616:../../os/hal/osal/rt-nil/osal.h ****  *          is known.
 617:../../os/hal/osal/rt-nil/osal.h ****  * @post    The system is in a critical zone.
 618:../../os/hal/osal/rt-nil/osal.h ****  *
 619:../../os/hal/osal/rt-nil/osal.h ****  * @return              The previous system status, the encoding of this
 620:../../os/hal/osal/rt-nil/osal.h ****  *                      status word is architecture-dependent and opaque.
 621:../../os/hal/osal/rt-nil/osal.h ****  *
 622:../../os/hal/osal/rt-nil/osal.h ****  * @xclass
 623:../../os/hal/osal/rt-nil/osal.h ****  */
 624:../../os/hal/osal/rt-nil/osal.h **** static inline syssts_t osalSysGetStatusAndLockX(void) {
 625:../../os/hal/osal/rt-nil/osal.h **** 
 626:../../os/hal/osal/rt-nil/osal.h ****   return chSysGetStatusAndLockX();
 627:../../os/hal/osal/rt-nil/osal.h **** }
 628:../../os/hal/osal/rt-nil/osal.h **** 
 629:../../os/hal/osal/rt-nil/osal.h **** /**
 630:../../os/hal/osal/rt-nil/osal.h ****  * @brief   Restores the specified execution status and leaves a critical zone.
 631:../../os/hal/osal/rt-nil/osal.h ****  * @note    A call to @p chSchRescheduleS() is automatically performed
 632:../../os/hal/osal/rt-nil/osal.h ****  *          if exiting the critical zone and if not in ISR context.
 633:../../os/hal/osal/rt-nil/osal.h ****  *
 634:../../os/hal/osal/rt-nil/osal.h ****  * @param[in] sts       the system status to be restored.
 635:../../os/hal/osal/rt-nil/osal.h ****  *
 636:../../os/hal/osal/rt-nil/osal.h ****  * @xclass
 637:../../os/hal/osal/rt-nil/osal.h ****  */
 638:../../os/hal/osal/rt-nil/osal.h **** static inline void osalSysRestoreStatusX(syssts_t sts) {
 639:../../os/hal/osal/rt-nil/osal.h **** 
 640:../../os/hal/osal/rt-nil/osal.h ****   chSysRestoreStatusX(sts);
 641:../../os/hal/osal/rt-nil/osal.h **** }
 642:../../os/hal/osal/rt-nil/osal.h **** 
 643:../../os/hal/osal/rt-nil/osal.h **** /**
 644:../../os/hal/osal/rt-nil/osal.h ****  * @brief   Polled delay.
 645:../../os/hal/osal/rt-nil/osal.h ****  * @note    The real delay is always few cycles in excess of the specified
 646:../../os/hal/osal/rt-nil/osal.h ****  *          value.
 647:../../os/hal/osal/rt-nil/osal.h ****  *
 648:../../os/hal/osal/rt-nil/osal.h ****  * @param[in] cycles    number of cycles
 649:../../os/hal/osal/rt-nil/osal.h ****  *
 650:../../os/hal/osal/rt-nil/osal.h ****  * @xclass
 651:../../os/hal/osal/rt-nil/osal.h ****  */
 652:../../os/hal/osal/rt-nil/osal.h **** #if (PORT_SUPPORTS_RT == TRUE) || defined(__DOXYGEN__)
 653:../../os/hal/osal/rt-nil/osal.h **** static inline void osalSysPolledDelayX(rtcnt_t cycles) {
 654:../../os/hal/osal/rt-nil/osal.h **** 
 655:../../os/hal/osal/rt-nil/osal.h ****   chSysPolledDelayX(cycles);
 656:../../os/hal/osal/rt-nil/osal.h **** }
 657:../../os/hal/osal/rt-nil/osal.h **** #endif
 658:../../os/hal/osal/rt-nil/osal.h **** 
 659:../../os/hal/osal/rt-nil/osal.h **** /**
 660:../../os/hal/osal/rt-nil/osal.h ****  * @brief   Systick callback for the underlying OS.
 661:../../os/hal/osal/rt-nil/osal.h ****  * @note    This callback is only defined if the OSAL requires such a
 662:../../os/hal/osal/rt-nil/osal.h ****  *          service from the HAL.
 663:../../os/hal/osal/rt-nil/osal.h ****  */
 664:../../os/hal/osal/rt-nil/osal.h **** #if (OSAL_ST_MODE != OSAL_ST_MODE_NONE) || defined(__DOXYGEN__)
 665:../../os/hal/osal/rt-nil/osal.h **** static inline void osalOsTimerHandlerI(void) {
 666:../../os/hal/osal/rt-nil/osal.h **** 
 667:../../os/hal/osal/rt-nil/osal.h ****   chSysTimerHandlerI();
 668:../../os/hal/osal/rt-nil/osal.h **** }
 669:../../os/hal/osal/rt-nil/osal.h **** #endif
 670:../../os/hal/osal/rt-nil/osal.h **** 
 671:../../os/hal/osal/rt-nil/osal.h **** /**
 672:../../os/hal/osal/rt-nil/osal.h ****  * @brief   Checks if a reschedule is required and performs it.
 673:../../os/hal/osal/rt-nil/osal.h ****  * @note    I-Class functions invoked from thread context must not reschedule
 674:../../os/hal/osal/rt-nil/osal.h ****  *          by themselves, an explicit reschedule using this function is
 675:../../os/hal/osal/rt-nil/osal.h ****  *          required in this scenario.
 676:../../os/hal/osal/rt-nil/osal.h ****  * @note    Not implemented in this simplified OSAL.
 677:../../os/hal/osal/rt-nil/osal.h ****  *
 678:../../os/hal/osal/rt-nil/osal.h ****  * @sclass
 679:../../os/hal/osal/rt-nil/osal.h ****  */
 680:../../os/hal/osal/rt-nil/osal.h **** static inline void osalOsRescheduleS(void) {
 681:../../os/hal/osal/rt-nil/osal.h **** 
 682:../../os/hal/osal/rt-nil/osal.h ****   chSchRescheduleS();
 683:../../os/hal/osal/rt-nil/osal.h **** }
 684:../../os/hal/osal/rt-nil/osal.h **** 
 685:../../os/hal/osal/rt-nil/osal.h **** /**
 686:../../os/hal/osal/rt-nil/osal.h ****  * @brief   Current system time.
 687:../../os/hal/osal/rt-nil/osal.h ****  * @details Returns the number of system ticks since the @p osalInit()
 688:../../os/hal/osal/rt-nil/osal.h ****  *          invocation.
 689:../../os/hal/osal/rt-nil/osal.h ****  * @note    The counter can reach its maximum and then restart from zero.
 690:../../os/hal/osal/rt-nil/osal.h ****  * @note    This function can be called from any context but its atomicity
 691:../../os/hal/osal/rt-nil/osal.h ****  *          is not guaranteed on architectures whose word size is less than
 692:../../os/hal/osal/rt-nil/osal.h ****  *          @p systime_t size.
 693:../../os/hal/osal/rt-nil/osal.h ****  *
 694:../../os/hal/osal/rt-nil/osal.h ****  * @return              The system time in ticks.
 695:../../os/hal/osal/rt-nil/osal.h ****  *
 696:../../os/hal/osal/rt-nil/osal.h ****  * @xclass
 697:../../os/hal/osal/rt-nil/osal.h ****  */
 698:../../os/hal/osal/rt-nil/osal.h **** static inline systime_t osalOsGetSystemTimeX(void) {
 699:../../os/hal/osal/rt-nil/osal.h **** 
 700:../../os/hal/osal/rt-nil/osal.h ****   return chVTGetSystemTimeX();
 701:../../os/hal/osal/rt-nil/osal.h **** }
 702:../../os/hal/osal/rt-nil/osal.h **** 
 703:../../os/hal/osal/rt-nil/osal.h **** /**
 704:../../os/hal/osal/rt-nil/osal.h ****  * @brief   Adds an interval to a system time returning a system time.
 705:../../os/hal/osal/rt-nil/osal.h ****  *
 706:../../os/hal/osal/rt-nil/osal.h ****  * @param[in] systime   base system time
 707:../../os/hal/osal/rt-nil/osal.h ****  * @param[in] interval  interval to be added
 708:../../os/hal/osal/rt-nil/osal.h ****  * @return              The new system time.
 709:../../os/hal/osal/rt-nil/osal.h ****  *
 710:../../os/hal/osal/rt-nil/osal.h ****  * @xclass
 711:../../os/hal/osal/rt-nil/osal.h ****  */
 712:../../os/hal/osal/rt-nil/osal.h **** static inline systime_t osalTimeAddX(systime_t systime,
 713:../../os/hal/osal/rt-nil/osal.h ****                                      sysinterval_t interval) {
 714:../../os/hal/osal/rt-nil/osal.h **** 
 715:../../os/hal/osal/rt-nil/osal.h ****   return chTimeAddX(systime, interval);
 716:../../os/hal/osal/rt-nil/osal.h **** }
 717:../../os/hal/osal/rt-nil/osal.h **** 
 718:../../os/hal/osal/rt-nil/osal.h **** /**
 719:../../os/hal/osal/rt-nil/osal.h ****  * @brief   Subtracts two system times returning an interval.
 720:../../os/hal/osal/rt-nil/osal.h ****  *
 721:../../os/hal/osal/rt-nil/osal.h ****  * @param[in] start     first system time
 722:../../os/hal/osal/rt-nil/osal.h ****  * @param[in] end       second system time
 723:../../os/hal/osal/rt-nil/osal.h ****  * @return              The interval representing the time difference.
 724:../../os/hal/osal/rt-nil/osal.h ****  *
 725:../../os/hal/osal/rt-nil/osal.h ****  * @xclass
 726:../../os/hal/osal/rt-nil/osal.h ****  */
 727:../../os/hal/osal/rt-nil/osal.h **** static inline sysinterval_t osalTimeDiffX(systime_t start, systime_t end) {
 728:../../os/hal/osal/rt-nil/osal.h **** 
 729:../../os/hal/osal/rt-nil/osal.h ****   return chTimeDiffX(start, end);
 730:../../os/hal/osal/rt-nil/osal.h **** }
 731:../../os/hal/osal/rt-nil/osal.h **** 
 732:../../os/hal/osal/rt-nil/osal.h **** /**
 733:../../os/hal/osal/rt-nil/osal.h ****  * @brief   Checks if the specified time is within the specified time window.
 734:../../os/hal/osal/rt-nil/osal.h ****  * @note    When start==end then the function returns always true because the
 735:../../os/hal/osal/rt-nil/osal.h ****  *          whole time range is specified.
 736:../../os/hal/osal/rt-nil/osal.h ****  * @note    This function can be called from any context.
 737:../../os/hal/osal/rt-nil/osal.h ****  *
 738:../../os/hal/osal/rt-nil/osal.h ****  * @param[in] time      the time to be verified
 739:../../os/hal/osal/rt-nil/osal.h ****  * @param[in] start     the start of the time window (inclusive)
 740:../../os/hal/osal/rt-nil/osal.h ****  * @param[in] end       the end of the time window (non inclusive)
 741:../../os/hal/osal/rt-nil/osal.h ****  * @retval true         current time within the specified time window.
 742:../../os/hal/osal/rt-nil/osal.h ****  * @retval false        current time not within the specified time window.
 743:../../os/hal/osal/rt-nil/osal.h ****  *
 744:../../os/hal/osal/rt-nil/osal.h ****  * @xclass
 745:../../os/hal/osal/rt-nil/osal.h ****  */
 746:../../os/hal/osal/rt-nil/osal.h **** static inline bool osalTimeIsInRangeX(systime_t time,
 747:../../os/hal/osal/rt-nil/osal.h ****                                       systime_t start,
 748:../../os/hal/osal/rt-nil/osal.h ****                                       systime_t end) {
 749:../../os/hal/osal/rt-nil/osal.h **** 
 750:../../os/hal/osal/rt-nil/osal.h ****   return chTimeIsInRangeX(time, start, end);
 751:../../os/hal/osal/rt-nil/osal.h **** }
 752:../../os/hal/osal/rt-nil/osal.h **** 
 753:../../os/hal/osal/rt-nil/osal.h **** /**
 754:../../os/hal/osal/rt-nil/osal.h ****  * @brief   Suspends the invoking thread for the specified time.
 755:../../os/hal/osal/rt-nil/osal.h ****  *
 756:../../os/hal/osal/rt-nil/osal.h ****  * @param[in] delay     the delay in system ticks, the special values are
 757:../../os/hal/osal/rt-nil/osal.h ****  *                      handled as follow:
 758:../../os/hal/osal/rt-nil/osal.h ****  *                      - @a TIME_INFINITE is allowed but interpreted as a
 759:../../os/hal/osal/rt-nil/osal.h ****  *                        normal time specification.
 760:../../os/hal/osal/rt-nil/osal.h ****  *                      - @a TIME_IMMEDIATE this value is not allowed.
 761:../../os/hal/osal/rt-nil/osal.h ****  *                      .
 762:../../os/hal/osal/rt-nil/osal.h ****  *
 763:../../os/hal/osal/rt-nil/osal.h ****  * @sclass
 764:../../os/hal/osal/rt-nil/osal.h ****  */
 765:../../os/hal/osal/rt-nil/osal.h **** static inline void osalThreadSleepS(sysinterval_t delay) {
 766:../../os/hal/osal/rt-nil/osal.h **** 
 767:../../os/hal/osal/rt-nil/osal.h ****   chThdSleepS(delay);
 768:../../os/hal/osal/rt-nil/osal.h **** }
 769:../../os/hal/osal/rt-nil/osal.h **** 
 770:../../os/hal/osal/rt-nil/osal.h **** /**
 771:../../os/hal/osal/rt-nil/osal.h ****  * @brief   Suspends the invoking thread for the specified time.
 772:../../os/hal/osal/rt-nil/osal.h ****  *
 773:../../os/hal/osal/rt-nil/osal.h ****  * @param[in] delay     the delay in system ticks, the special values are
 774:../../os/hal/osal/rt-nil/osal.h ****  *                      handled as follow:
 775:../../os/hal/osal/rt-nil/osal.h ****  *                      - @a TIME_INFINITE is allowed but interpreted as a
 776:../../os/hal/osal/rt-nil/osal.h ****  *                        normal time specification.
 777:../../os/hal/osal/rt-nil/osal.h ****  *                      - @a TIME_IMMEDIATE this value is not allowed.
 778:../../os/hal/osal/rt-nil/osal.h ****  *                      .
 779:../../os/hal/osal/rt-nil/osal.h ****  *
 780:../../os/hal/osal/rt-nil/osal.h ****  * @api
 781:../../os/hal/osal/rt-nil/osal.h ****  */
 782:../../os/hal/osal/rt-nil/osal.h **** static inline void osalThreadSleep(sysinterval_t delay) {
 783:../../os/hal/osal/rt-nil/osal.h **** 
 784:../../os/hal/osal/rt-nil/osal.h ****   chThdSleep(delay);
 785:../../os/hal/osal/rt-nil/osal.h **** }
 786:../../os/hal/osal/rt-nil/osal.h **** 
 787:../../os/hal/osal/rt-nil/osal.h **** /**
 788:../../os/hal/osal/rt-nil/osal.h ****  * @brief   Sends the current thread sleeping and sets a reference variable.
 789:../../os/hal/osal/rt-nil/osal.h ****  * @note    This function must reschedule, it can only be called from thread
 790:../../os/hal/osal/rt-nil/osal.h ****  *          context.
 791:../../os/hal/osal/rt-nil/osal.h ****  *
 792:../../os/hal/osal/rt-nil/osal.h ****  * @param[in] trp       a pointer to a thread reference object
 793:../../os/hal/osal/rt-nil/osal.h ****  * @return              The wake up message.
 794:../../os/hal/osal/rt-nil/osal.h ****  *
 795:../../os/hal/osal/rt-nil/osal.h ****  * @sclass
 796:../../os/hal/osal/rt-nil/osal.h ****  */
 797:../../os/hal/osal/rt-nil/osal.h **** static inline msg_t osalThreadSuspendS(thread_reference_t *trp) {
 798:../../os/hal/osal/rt-nil/osal.h **** 
 799:../../os/hal/osal/rt-nil/osal.h ****   return chThdSuspendTimeoutS(trp, TIME_INFINITE);
 800:../../os/hal/osal/rt-nil/osal.h **** }
 801:../../os/hal/osal/rt-nil/osal.h **** 
 802:../../os/hal/osal/rt-nil/osal.h **** /**
 803:../../os/hal/osal/rt-nil/osal.h ****  * @brief   Sends the current thread sleeping and sets a reference variable.
 804:../../os/hal/osal/rt-nil/osal.h ****  * @note    This function must reschedule, it can only be called from thread
 805:../../os/hal/osal/rt-nil/osal.h ****  *          context.
 806:../../os/hal/osal/rt-nil/osal.h ****  *
 807:../../os/hal/osal/rt-nil/osal.h ****  * @param[in] trp       a pointer to a thread reference object
 808:../../os/hal/osal/rt-nil/osal.h ****  * @param[in] timeout   the timeout in system ticks, the special values are
 809:../../os/hal/osal/rt-nil/osal.h ****  *                      handled as follow:
 810:../../os/hal/osal/rt-nil/osal.h ****  *                      - @a TIME_INFINITE the thread enters an infinite sleep
 811:../../os/hal/osal/rt-nil/osal.h ****  *                        state.
 812:../../os/hal/osal/rt-nil/osal.h ****  *                      - @a TIME_IMMEDIATE the thread is not enqueued and
 813:../../os/hal/osal/rt-nil/osal.h ****  *                        the function returns @p MSG_TIMEOUT as if a timeout
 814:../../os/hal/osal/rt-nil/osal.h ****  *                        occurred.
 815:../../os/hal/osal/rt-nil/osal.h ****  *                      .
 816:../../os/hal/osal/rt-nil/osal.h ****  * @return              The wake up message.
 817:../../os/hal/osal/rt-nil/osal.h ****  * @retval MSG_TIMEOUT  if the operation timed out.
 818:../../os/hal/osal/rt-nil/osal.h ****  *
 819:../../os/hal/osal/rt-nil/osal.h ****  * @sclass
 820:../../os/hal/osal/rt-nil/osal.h ****  */
 821:../../os/hal/osal/rt-nil/osal.h **** static inline msg_t osalThreadSuspendTimeoutS(thread_reference_t *trp,
 822:../../os/hal/osal/rt-nil/osal.h ****                                               sysinterval_t timeout) {
 823:../../os/hal/osal/rt-nil/osal.h **** 
 824:../../os/hal/osal/rt-nil/osal.h ****   return chThdSuspendTimeoutS(trp, timeout);
 825:../../os/hal/osal/rt-nil/osal.h **** }
 826:../../os/hal/osal/rt-nil/osal.h **** 
 827:../../os/hal/osal/rt-nil/osal.h **** /**
 828:../../os/hal/osal/rt-nil/osal.h ****  * @brief   Wakes up a thread waiting on a thread reference object.
 829:../../os/hal/osal/rt-nil/osal.h ****  * @note    This function must not reschedule because it can be called from
 830:../../os/hal/osal/rt-nil/osal.h ****  *          ISR context.
 831:../../os/hal/osal/rt-nil/osal.h ****  *
 832:../../os/hal/osal/rt-nil/osal.h ****  * @param[in] trp       a pointer to a thread reference object
 833:../../os/hal/osal/rt-nil/osal.h ****  * @param[in] msg       the message code
 834:../../os/hal/osal/rt-nil/osal.h ****  *
 835:../../os/hal/osal/rt-nil/osal.h ****  * @iclass
 836:../../os/hal/osal/rt-nil/osal.h ****  */
 837:../../os/hal/osal/rt-nil/osal.h **** static inline void osalThreadResumeI(thread_reference_t *trp, msg_t msg) {
 838:../../os/hal/osal/rt-nil/osal.h **** 
 839:../../os/hal/osal/rt-nil/osal.h ****   chThdResumeI(trp, msg);
 840:../../os/hal/osal/rt-nil/osal.h **** }
 841:../../os/hal/osal/rt-nil/osal.h **** 
 842:../../os/hal/osal/rt-nil/osal.h **** /**
 843:../../os/hal/osal/rt-nil/osal.h ****  * @brief   Wakes up a thread waiting on a thread reference object.
 844:../../os/hal/osal/rt-nil/osal.h ****  * @note    This function must reschedule, it can only be called from thread
 845:../../os/hal/osal/rt-nil/osal.h ****  *          context.
 846:../../os/hal/osal/rt-nil/osal.h ****  *
 847:../../os/hal/osal/rt-nil/osal.h ****  * @param[in] trp       a pointer to a thread reference object
 848:../../os/hal/osal/rt-nil/osal.h ****  * @param[in] msg       the message code
 849:../../os/hal/osal/rt-nil/osal.h ****  *
 850:../../os/hal/osal/rt-nil/osal.h ****  * @iclass
 851:../../os/hal/osal/rt-nil/osal.h ****  */
 852:../../os/hal/osal/rt-nil/osal.h **** static inline void osalThreadResumeS(thread_reference_t *trp, msg_t msg) {
 853:../../os/hal/osal/rt-nil/osal.h **** 
 854:../../os/hal/osal/rt-nil/osal.h ****   chThdResumeS(trp, msg);
 855:../../os/hal/osal/rt-nil/osal.h **** }
 856:../../os/hal/osal/rt-nil/osal.h **** 
 857:../../os/hal/osal/rt-nil/osal.h **** /**
 858:../../os/hal/osal/rt-nil/osal.h ****  * @brief   Initializes a threads queue object.
 859:../../os/hal/osal/rt-nil/osal.h ****  *
 860:../../os/hal/osal/rt-nil/osal.h ****  * @param[out] tqp      pointer to the threads queue object
 861:../../os/hal/osal/rt-nil/osal.h ****  *
 862:../../os/hal/osal/rt-nil/osal.h ****  * @init
 863:../../os/hal/osal/rt-nil/osal.h ****  */
 864:../../os/hal/osal/rt-nil/osal.h **** static inline void osalThreadQueueObjectInit(threads_queue_t *tqp) {
 417               		.loc 2 864 20 view .LVU87
 418               	.LBB90:
 865:../../os/hal/osal/rt-nil/osal.h **** 
 866:../../os/hal/osal/rt-nil/osal.h ****   chThdQueueObjectInit(tqp);
 419               		.loc 2 866 3 view .LVU88
 420 0008 1082      		st Z,__zero_reg__
 421               	.LVL36:
 422               		.loc 2 866 3 is_stmt 0 view .LVU89
 423               	.LBE90:
 424               	.LBE89:
 181:../../os/hal/src/hal_queues.c ****   iqp->q_counter = 0;
 425               		.loc 1 181 3 is_stmt 1 view .LVU90
 426               		.loc 1 181 18 is_stmt 0 view .LVU91
 427 000a 1282      		std Z+2,__zero_reg__
 428 000c 1182      		std Z+1,__zero_reg__
 182:../../os/hal/src/hal_queues.c ****   iqp->q_buffer  = bp;
 429               		.loc 1 182 3 is_stmt 1 view .LVU92
 430               		.loc 1 182 18 is_stmt 0 view .LVU93
 431 000e 7483      		std Z+4,r23
 432 0010 6383      		std Z+3,r22
 183:../../os/hal/src/hal_queues.c ****   iqp->q_rdptr   = bp;
 433               		.loc 1 183 3 is_stmt 1 view .LVU94
 434               		.loc 1 183 18 is_stmt 0 view .LVU95
 435 0012 7287      		std Z+10,r23
 436 0014 6187      		std Z+9,r22
 184:../../os/hal/src/hal_queues.c ****   iqp->q_wrptr   = bp;
 437               		.loc 1 184 3 is_stmt 1 view .LVU96
 438               		.loc 1 184 18 is_stmt 0 view .LVU97
 439 0016 7087      		std Z+8,r23
 440 0018 6783      		std Z+7,r22
 185:../../os/hal/src/hal_queues.c ****   iqp->q_top     = bp + size;
 441               		.loc 1 185 3 is_stmt 1 view .LVU98
 442               		.loc 1 185 23 is_stmt 0 view .LVU99
 443 001a A40F      		add r26,r20
 444 001c B51F      		adc r27,r21
 445               		.loc 1 185 18 view .LVU100
 446 001e B683      		std Z+6,r27
 447 0020 A583      		std Z+5,r26
 186:../../os/hal/src/hal_queues.c ****   iqp->q_notify  = infy;
 448               		.loc 1 186 3 is_stmt 1 view .LVU101
 449               		.loc 1 186 18 is_stmt 0 view .LVU102
 450 0022 3487      		std Z+12,r19
 451 0024 2387      		std Z+11,r18
 187:../../os/hal/src/hal_queues.c ****   iqp->q_link    = link;
 452               		.loc 1 187 3 is_stmt 1 view .LVU103
 453               		.loc 1 187 18 is_stmt 0 view .LVU104
 454 0026 1687      		std Z+14,r17
 455 0028 0587      		std Z+13,r16
 456               	/* epilogue start */
 188:../../os/hal/src/hal_queues.c **** }
 457               		.loc 1 188 1 view .LVU105
 458 002a 1F91      		pop r17
 459 002c 0F91      		pop r16
 460               	.LVL37:
 461               		.loc 1 188 1 view .LVU106
 462 002e 0895      		ret
 463               		.cfi_endproc
 464               	.LFE148:
 466               		.section	.text.iqResetI,"ax",@progbits
 467               	.global	iqResetI
 469               	iqResetI:
 470               	.LVL38:
 471               	.LFB149:
 189:../../os/hal/src/hal_queues.c **** 
 190:../../os/hal/src/hal_queues.c **** /**
 191:../../os/hal/src/hal_queues.c ****  * @brief   Resets an input queue.
 192:../../os/hal/src/hal_queues.c ****  * @details All the data in the input queue is erased and lost, any waiting
 193:../../os/hal/src/hal_queues.c ****  *          thread is resumed with status @p MSG_RESET.
 194:../../os/hal/src/hal_queues.c ****  * @note    A reset operation can be used by a low level driver in order to
 195:../../os/hal/src/hal_queues.c ****  *          obtain immediate attention from the high level layers.
 196:../../os/hal/src/hal_queues.c ****  *
 197:../../os/hal/src/hal_queues.c ****  * @param[in] iqp       pointer to an @p input_queue_t structure
 198:../../os/hal/src/hal_queues.c ****  *
 199:../../os/hal/src/hal_queues.c ****  * @iclass
 200:../../os/hal/src/hal_queues.c ****  */
 201:../../os/hal/src/hal_queues.c **** void iqResetI(input_queue_t *iqp) {
 472               		.loc 1 201 35 is_stmt 1 view -0
 473               		.cfi_startproc
 474               	/* prologue: function */
 475               	/* frame size = 0 */
 476               	/* stack size = 0 */
 477               	.L__stack_usage = 0
 478               		.loc 1 201 35 is_stmt 0 view .LVU108
 479 0000 FC01      		movw r30,r24
 202:../../os/hal/src/hal_queues.c **** 
 203:../../os/hal/src/hal_queues.c ****   osalDbgCheckClassI();
 480               		.loc 1 203 23 is_stmt 1 view .LVU109
 204:../../os/hal/src/hal_queues.c **** 
 205:../../os/hal/src/hal_queues.c ****   iqp->q_rdptr = iqp->q_buffer;
 481               		.loc 1 205 3 view .LVU110
 482               		.loc 1 205 21 is_stmt 0 view .LVU111
 483 0002 8381      		ldd r24,Z+3
 484 0004 9481      		ldd r25,Z+4
 485               	.LVL39:
 486               		.loc 1 205 16 view .LVU112
 487 0006 9287      		std Z+10,r25
 488 0008 8187      		std Z+9,r24
 206:../../os/hal/src/hal_queues.c ****   iqp->q_wrptr = iqp->q_buffer;
 489               		.loc 1 206 3 is_stmt 1 view .LVU113
 490               		.loc 1 206 16 is_stmt 0 view .LVU114
 491 000a 9087      		std Z+8,r25
 492 000c 8783      		std Z+7,r24
 207:../../os/hal/src/hal_queues.c ****   iqp->q_counter = 0;
 493               		.loc 1 207 3 is_stmt 1 view .LVU115
 494               		.loc 1 207 18 is_stmt 0 view .LVU116
 495 000e 1282      		std Z+2,__zero_reg__
 496 0010 1182      		std Z+1,__zero_reg__
 208:../../os/hal/src/hal_queues.c ****   osalThreadDequeueAllI(&iqp->q_waiting, MSG_RESET);
 497               		.loc 1 208 3 is_stmt 1 view .LVU117
 498               	.LVL40:
 499               	.LBB91:
 500               	.LBI91:
 867:../../os/hal/osal/rt-nil/osal.h **** }
 868:../../os/hal/osal/rt-nil/osal.h **** 
 869:../../os/hal/osal/rt-nil/osal.h **** /**
 870:../../os/hal/osal/rt-nil/osal.h ****  * @brief   Enqueues the caller thread.
 871:../../os/hal/osal/rt-nil/osal.h ****  * @details The caller thread is enqueued and put to sleep until it is
 872:../../os/hal/osal/rt-nil/osal.h ****  *          dequeued or the specified timeouts expires.
 873:../../os/hal/osal/rt-nil/osal.h ****  *
 874:../../os/hal/osal/rt-nil/osal.h ****  * @param[in] tqp       pointer to the threads queue object
 875:../../os/hal/osal/rt-nil/osal.h ****  * @param[in] timeout   the timeout in system ticks, the special values are
 876:../../os/hal/osal/rt-nil/osal.h ****  *                      handled as follow:
 877:../../os/hal/osal/rt-nil/osal.h ****  *                      - @a TIME_INFINITE the thread enters an infinite sleep
 878:../../os/hal/osal/rt-nil/osal.h ****  *                        state.
 879:../../os/hal/osal/rt-nil/osal.h ****  *                      - @a TIME_IMMEDIATE the thread is not enqueued and
 880:../../os/hal/osal/rt-nil/osal.h ****  *                        the function returns @p MSG_TIMEOUT as if a timeout
 881:../../os/hal/osal/rt-nil/osal.h ****  *                        occurred.
 882:../../os/hal/osal/rt-nil/osal.h ****  *                      .
 883:../../os/hal/osal/rt-nil/osal.h ****  * @return              The message from @p osalQueueWakeupOneI() or
 884:../../os/hal/osal/rt-nil/osal.h ****  *                      @p osalQueueWakeupAllI() functions.
 885:../../os/hal/osal/rt-nil/osal.h ****  * @retval MSG_TIMEOUT  if the thread has not been dequeued within the
 886:../../os/hal/osal/rt-nil/osal.h ****  *                      specified timeout or if the function has been
 887:../../os/hal/osal/rt-nil/osal.h ****  *                      invoked with @p TIME_IMMEDIATE as timeout
 888:../../os/hal/osal/rt-nil/osal.h ****  *                      specification.
 889:../../os/hal/osal/rt-nil/osal.h ****  *
 890:../../os/hal/osal/rt-nil/osal.h ****  * @sclass
 891:../../os/hal/osal/rt-nil/osal.h ****  */
 892:../../os/hal/osal/rt-nil/osal.h **** static inline msg_t osalThreadEnqueueTimeoutS(threads_queue_t *tqp,
 893:../../os/hal/osal/rt-nil/osal.h ****                                               sysinterval_t timeout) {
 894:../../os/hal/osal/rt-nil/osal.h **** 
 895:../../os/hal/osal/rt-nil/osal.h ****   return chThdEnqueueTimeoutS(tqp, timeout);
 896:../../os/hal/osal/rt-nil/osal.h **** }
 897:../../os/hal/osal/rt-nil/osal.h **** 
 898:../../os/hal/osal/rt-nil/osal.h **** /**
 899:../../os/hal/osal/rt-nil/osal.h ****  * @brief   Dequeues and wakes up one thread from the queue, if any.
 900:../../os/hal/osal/rt-nil/osal.h ****  *
 901:../../os/hal/osal/rt-nil/osal.h ****  * @param[in] tqp       pointer to the threads queue object
 902:../../os/hal/osal/rt-nil/osal.h ****  * @param[in] msg       the message code
 903:../../os/hal/osal/rt-nil/osal.h ****  *
 904:../../os/hal/osal/rt-nil/osal.h ****  * @iclass
 905:../../os/hal/osal/rt-nil/osal.h ****  */
 906:../../os/hal/osal/rt-nil/osal.h **** static inline void osalThreadDequeueNextI(threads_queue_t *tqp, msg_t msg) {
 907:../../os/hal/osal/rt-nil/osal.h **** 
 908:../../os/hal/osal/rt-nil/osal.h ****   chThdDequeueNextI(tqp, msg);
 909:../../os/hal/osal/rt-nil/osal.h **** }
 910:../../os/hal/osal/rt-nil/osal.h **** 
 911:../../os/hal/osal/rt-nil/osal.h **** /**
 912:../../os/hal/osal/rt-nil/osal.h ****  * @brief   Dequeues and wakes up all threads from the queue.
 913:../../os/hal/osal/rt-nil/osal.h ****  *
 914:../../os/hal/osal/rt-nil/osal.h ****  * @param[in] tqp       pointer to the threads queue object
 915:../../os/hal/osal/rt-nil/osal.h ****  * @param[in] msg       the message code
 916:../../os/hal/osal/rt-nil/osal.h ****  *
 917:../../os/hal/osal/rt-nil/osal.h ****  * @iclass
 918:../../os/hal/osal/rt-nil/osal.h ****  */
 919:../../os/hal/osal/rt-nil/osal.h **** static inline void osalThreadDequeueAllI(threads_queue_t *tqp, msg_t msg) {
 501               		.loc 2 919 20 view .LVU118
 502               	.LBB92:
 920:../../os/hal/osal/rt-nil/osal.h **** 
 921:../../os/hal/osal/rt-nil/osal.h ****   chThdDequeueAllI(tqp, msg);
 503               		.loc 2 921 3 view .LVU119
 504 0012 6EEF      		ldi r22,lo8(-2)
 505 0014 7FEF      		ldi r23,lo8(-1)
 506 0016 CF01      		movw r24,r30
 507 0018 0C94 0000 		jmp chThdDequeueAllI
 508               	.LVL41:
 509               		.loc 2 921 3 is_stmt 0 view .LVU120
 510               	.LBE92:
 511               	.LBE91:
 512               		.cfi_endproc
 513               	.LFE149:
 515               		.section	.text.iqPutI,"ax",@progbits
 516               	.global	iqPutI
 518               	iqPutI:
 519               	.LVL42:
 520               	.LFB150:
 209:../../os/hal/src/hal_queues.c **** }
 210:../../os/hal/src/hal_queues.c **** 
 211:../../os/hal/src/hal_queues.c **** /**
 212:../../os/hal/src/hal_queues.c ****  * @brief   Input queue write.
 213:../../os/hal/src/hal_queues.c ****  * @details A byte value is written into the low end of an input queue. The
 214:../../os/hal/src/hal_queues.c ****  *          operation completes immediately.
 215:../../os/hal/src/hal_queues.c ****  *
 216:../../os/hal/src/hal_queues.c ****  * @param[in] iqp       pointer to an @p input_queue_t structure
 217:../../os/hal/src/hal_queues.c ****  * @param[in] b         the byte value to be written in the queue
 218:../../os/hal/src/hal_queues.c ****  * @return              The operation status.
 219:../../os/hal/src/hal_queues.c ****  * @retval MSG_OK       if the operation has been completed with success.
 220:../../os/hal/src/hal_queues.c ****  * @retval MSG_TIMEOUT  if the queue is full.
 221:../../os/hal/src/hal_queues.c ****  *
 222:../../os/hal/src/hal_queues.c ****  * @iclass
 223:../../os/hal/src/hal_queues.c ****  */
 224:../../os/hal/src/hal_queues.c **** msg_t iqPutI(input_queue_t *iqp, uint8_t b) {
 521               		.loc 1 224 45 is_stmt 1 view -0
 522               		.cfi_startproc
 523               	/* prologue: function */
 524               	/* frame size = 0 */
 525               	/* stack size = 0 */
 526               	.L__stack_usage = 0
 527               		.loc 1 224 45 is_stmt 0 view .LVU122
 528 0000 FC01      		movw r30,r24
 225:../../os/hal/src/hal_queues.c **** 
 226:../../os/hal/src/hal_queues.c ****   osalDbgCheckClassI();
 529               		.loc 1 226 23 is_stmt 1 view .LVU123
 227:../../os/hal/src/hal_queues.c **** 
 228:../../os/hal/src/hal_queues.c ****   /* Queue space check.*/
 229:../../os/hal/src/hal_queues.c ****   if (!iqIsFullI(iqp)) {
 530               		.loc 1 229 3 view .LVU124
 531               		.loc 1 229 8 is_stmt 0 view .LVU125
 532 0002 A781      		ldd r26,Z+7
 533 0004 B085      		ldd r27,Z+8
 534 0006 8185      		ldd r24,Z+9
 535 0008 9285      		ldd r25,Z+10
 536               	.LVL43:
 537               		.loc 1 229 8 view .LVU126
 538 000a A817      		cp r26,r24
 539 000c B907      		cpc r27,r25
 540 000e 01F0      		breq .L23
 541               	.L19:
 230:../../os/hal/src/hal_queues.c ****     iqp->q_counter++;
 542               		.loc 1 230 5 is_stmt 1 view .LVU127
 543               		.loc 1 230 8 is_stmt 0 view .LVU128
 544 0010 8181      		ldd r24,Z+1
 545 0012 9281      		ldd r25,Z+2
 546               		.loc 1 230 19 view .LVU129
 547 0014 0196      		adiw r24,1
 548 0016 9283      		std Z+2,r25
 549 0018 8183      		std Z+1,r24
 231:../../os/hal/src/hal_queues.c ****     *iqp->q_wrptr++ = b;
 550               		.loc 1 231 5 is_stmt 1 view .LVU130
 551               		.loc 1 231 18 is_stmt 0 view .LVU131
 552 001a CD01      		movw r24,r26
 553 001c 0196      		adiw r24,1
 554 001e 9087      		std Z+8,r25
 555 0020 8783      		std Z+7,r24
 556               		.loc 1 231 21 view .LVU132
 557 0022 6C93      		st X,r22
 232:../../os/hal/src/hal_queues.c ****     if (iqp->q_wrptr >= iqp->q_top) {
 558               		.loc 1 232 5 is_stmt 1 view .LVU133
 559               		.loc 1 232 8 is_stmt 0 view .LVU134
 560 0024 2781      		ldd r18,Z+7
 561 0026 3085      		ldd r19,Z+8
 562 0028 8581      		ldd r24,Z+5
 563 002a 9681      		ldd r25,Z+6
 564 002c 2817      		cp r18,r24
 565 002e 3907      		cpc r19,r25
 566 0030 00F0      		brlo .L21
 233:../../os/hal/src/hal_queues.c ****       iqp->q_wrptr = iqp->q_buffer;
 567               		.loc 1 233 7 is_stmt 1 view .LVU135
 568               		.loc 1 233 20 is_stmt 0 view .LVU136
 569 0032 8381      		ldd r24,Z+3
 570 0034 9481      		ldd r25,Z+4
 571 0036 9087      		std Z+8,r25
 572 0038 8783      		std Z+7,r24
 573               	.L21:
 234:../../os/hal/src/hal_queues.c ****     }
 235:../../os/hal/src/hal_queues.c **** 
 236:../../os/hal/src/hal_queues.c ****     osalThreadDequeueNextI(&iqp->q_waiting, MSG_OK);
 574               		.loc 1 236 5 is_stmt 1 view .LVU137
 575               	.LVL44:
 576               	.LBB93:
 577               	.LBI93:
 906:../../os/hal/osal/rt-nil/osal.h **** 
 578               		.loc 2 906 20 view .LVU138
 579               	.LBB94:
 908:../../os/hal/osal/rt-nil/osal.h **** }
 580               		.loc 2 908 3 view .LVU139
 581 003a 60E0      		ldi r22,0
 582 003c 70E0      		ldi r23,0
 583               	.LVL45:
 908:../../os/hal/osal/rt-nil/osal.h **** }
 584               		.loc 2 908 3 is_stmt 0 view .LVU140
 585 003e CF01      		movw r24,r30
 586 0040 0E94 0000 		call chThdDequeueNextI
 587               	.LVL46:
 908:../../os/hal/osal/rt-nil/osal.h **** }
 588               		.loc 2 908 3 view .LVU141
 589               	.LBE94:
 590               	.LBE93:
 237:../../os/hal/src/hal_queues.c **** 
 238:../../os/hal/src/hal_queues.c ****     return MSG_OK;
 591               		.loc 1 238 5 is_stmt 1 view .LVU142
 592               		.loc 1 238 12 is_stmt 0 view .LVU143
 593 0044 80E0      		ldi r24,0
 594 0046 90E0      		ldi r25,0
 595 0048 0895      		ret
 596               	.LVL47:
 597               	.L23:
 229:../../os/hal/src/hal_queues.c ****     iqp->q_counter++;
 598               		.loc 1 229 8 discriminator 1 view .LVU144
 599 004a 8181      		ldd r24,Z+1
 600 004c 9281      		ldd r25,Z+2
 601 004e 892B      		or r24,r25
 602 0050 01F0      		breq .L19
 239:../../os/hal/src/hal_queues.c ****   }
 240:../../os/hal/src/hal_queues.c **** 
 241:../../os/hal/src/hal_queues.c ****   return MSG_TIMEOUT;
 603               		.loc 1 241 10 view .LVU145
 604 0052 8FEF      		ldi r24,lo8(-1)
 605 0054 9FEF      		ldi r25,lo8(-1)
 606               	/* epilogue start */
 242:../../os/hal/src/hal_queues.c **** }
 607               		.loc 1 242 1 view .LVU146
 608 0056 0895      		ret
 609               		.cfi_endproc
 610               	.LFE150:
 612               		.section	.text.iqGetI,"ax",@progbits
 613               	.global	iqGetI
 615               	iqGetI:
 616               	.LVL48:
 617               	.LFB151:
 243:../../os/hal/src/hal_queues.c **** 
 244:../../os/hal/src/hal_queues.c **** /**
 245:../../os/hal/src/hal_queues.c ****  * @brief   Input queue non-blocking read.
 246:../../os/hal/src/hal_queues.c ****  * @details This function reads a byte value from an input queue. The
 247:../../os/hal/src/hal_queues.c ****  *          operation completes immediately.
 248:../../os/hal/src/hal_queues.c ****  * @note    The callback is invoked after removing a character from the
 249:../../os/hal/src/hal_queues.c ****  *          queue.
 250:../../os/hal/src/hal_queues.c ****  *
 251:../../os/hal/src/hal_queues.c ****  * @param[in] iqp       pointer to an @p input_queue_t structure
 252:../../os/hal/src/hal_queues.c ****  * @return              A byte value from the queue.
 253:../../os/hal/src/hal_queues.c ****  * @retval MSG_TIMEOUT  if the queue is empty.
 254:../../os/hal/src/hal_queues.c ****  * @retval MSG_RESET    if the queue has been reset.
 255:../../os/hal/src/hal_queues.c ****  *
 256:../../os/hal/src/hal_queues.c ****  * @iclass
 257:../../os/hal/src/hal_queues.c ****  */
 258:../../os/hal/src/hal_queues.c **** msg_t iqGetI(input_queue_t *iqp) {
 618               		.loc 1 258 34 is_stmt 1 view -0
 619               		.cfi_startproc
 620               		.loc 1 258 34 is_stmt 0 view .LVU148
 621 0000 CF93      		push r28
 622               	.LCFI22:
 623               		.cfi_def_cfa_offset 3
 624               		.cfi_offset 28, -2
 625               	/* prologue: function */
 626               	/* frame size = 0 */
 627               	/* stack size = 1 */
 628               	.L__stack_usage = 1
 629 0002 DC01      		movw r26,r24
 259:../../os/hal/src/hal_queues.c **** 
 260:../../os/hal/src/hal_queues.c ****   osalDbgCheckClassI();
 630               		.loc 1 260 23 is_stmt 1 view .LVU149
 261:../../os/hal/src/hal_queues.c **** 
 262:../../os/hal/src/hal_queues.c ****   /* Queue data check.*/
 263:../../os/hal/src/hal_queues.c ****   if (!iqIsEmptyI(iqp)) {
 631               		.loc 1 263 3 view .LVU150
 632               		.loc 1 263 8 is_stmt 0 view .LVU151
 633 0004 1196      		adiw r26,1
 634 0006 8D91      		ld r24,X+
 635 0008 9C91      		ld r25,X
 636 000a 1297      		sbiw r26,1+1
 637               	.LVL49:
 638               		.loc 1 263 6 view .LVU152
 639 000c 892B      		or r24,r25
 640 000e 01F0      		breq .L28
 641               	.LBB95:
 264:../../os/hal/src/hal_queues.c ****     uint8_t b;
 642               		.loc 1 264 5 is_stmt 1 view .LVU153
 265:../../os/hal/src/hal_queues.c **** 
 266:../../os/hal/src/hal_queues.c ****     /* Getting the character from the queue.*/
 267:../../os/hal/src/hal_queues.c ****     iqp->q_counter--;
 643               		.loc 1 267 5 view .LVU154
 644               		.loc 1 267 8 is_stmt 0 view .LVU155
 645 0010 1196      		adiw r26,1
 646 0012 8D91      		ld r24,X+
 647 0014 9C91      		ld r25,X
 648 0016 1297      		sbiw r26,1+1
 649               		.loc 1 267 19 view .LVU156
 650 0018 0197      		sbiw r24,1
 651 001a 1296      		adiw r26,1+1
 652 001c 9C93      		st X,r25
 653 001e 8E93      		st -X,r24
 654 0020 1197      		sbiw r26,1
 268:../../os/hal/src/hal_queues.c ****     b = *iqp->q_rdptr++;
 655               		.loc 1 268 5 is_stmt 1 view .LVU157
 656               		.loc 1 268 13 is_stmt 0 view .LVU158
 657 0022 1996      		adiw r26,9
 658 0024 ED91      		ld r30,X+
 659 0026 FC91      		ld r31,X
 660 0028 1A97      		sbiw r26,9+1
 661               		.loc 1 268 22 view .LVU159
 662 002a CF01      		movw r24,r30
 663 002c 0196      		adiw r24,1
 664 002e 1A96      		adiw r26,9+1
 665 0030 9C93      		st X,r25
 666 0032 8E93      		st -X,r24
 667 0034 1997      		sbiw r26,9
 668               		.loc 1 268 7 view .LVU160
 669 0036 C081      		ld r28,Z
 670               	.LVL50:
 269:../../os/hal/src/hal_queues.c ****     if (iqp->q_rdptr >= iqp->q_top) {
 671               		.loc 1 269 5 is_stmt 1 view .LVU161
 672               		.loc 1 269 8 is_stmt 0 view .LVU162
 673 0038 1596      		adiw r26,5
 674 003a 2D91      		ld r18,X+
 675 003c 3C91      		ld r19,X
 676 003e 1697      		sbiw r26,5+1
 677 0040 8217      		cp r24,r18
 678 0042 9307      		cpc r25,r19
 679 0044 00F4      		brsh .L32
 680               	.L26:
 270:../../os/hal/src/hal_queues.c ****       iqp->q_rdptr = iqp->q_buffer;
 271:../../os/hal/src/hal_queues.c ****     }
 272:../../os/hal/src/hal_queues.c **** 
 273:../../os/hal/src/hal_queues.c ****     /* Inform the low side that the queue has at least one slot available.*/
 274:../../os/hal/src/hal_queues.c ****     if (iqp->q_notify != NULL) {
 681               		.loc 1 274 5 is_stmt 1 view .LVU163
 682               		.loc 1 274 12 is_stmt 0 view .LVU164
 683 0046 1B96      		adiw r26,11
 684 0048 ED91      		ld r30,X+
 685 004a FC91      		ld r31,X
 686 004c 1C97      		sbiw r26,11+1
 687               		.loc 1 274 8 view .LVU165
 688 004e 3097      		sbiw r30,0
 689 0050 01F0      		breq .L27
 275:../../os/hal/src/hal_queues.c ****       iqp->q_notify(iqp);
 690               		.loc 1 275 7 is_stmt 1 view .LVU166
 691 0052 CD01      		movw r24,r26
 692 0054 0995      		icall
 693               	.LVL51:
 694               	.L27:
 276:../../os/hal/src/hal_queues.c ****     }
 277:../../os/hal/src/hal_queues.c **** 
 278:../../os/hal/src/hal_queues.c ****     return (msg_t)b;
 695               		.loc 1 278 5 view .LVU167
 696               		.loc 1 278 12 is_stmt 0 view .LVU168
 697 0056 8C2F      		mov r24,r28
 698 0058 90E0      		ldi r25,0
 699               	.LVL52:
 700               	.L24:
 701               	/* epilogue start */
 702               		.loc 1 278 12 view .LVU169
 703               	.LBE95:
 279:../../os/hal/src/hal_queues.c ****   }
 280:../../os/hal/src/hal_queues.c **** 
 281:../../os/hal/src/hal_queues.c ****   return MSG_TIMEOUT;
 282:../../os/hal/src/hal_queues.c **** }
 704               		.loc 1 282 1 view .LVU170
 705 005a CF91      		pop r28
 706 005c 0895      		ret
 707               	.LVL53:
 708               	.L32:
 709               	.LBB96:
 270:../../os/hal/src/hal_queues.c ****     }
 710               		.loc 1 270 7 is_stmt 1 view .LVU171
 270:../../os/hal/src/hal_queues.c ****     }
 711               		.loc 1 270 20 is_stmt 0 view .LVU172
 712 005e 1396      		adiw r26,3
 713 0060 8D91      		ld r24,X+
 714 0062 9C91      		ld r25,X
 715 0064 1497      		sbiw r26,3+1
 716 0066 1A96      		adiw r26,9+1
 717 0068 9C93      		st X,r25
 718 006a 8E93      		st -X,r24
 719 006c 1997      		sbiw r26,9
 720 006e 00C0      		rjmp .L26
 721               	.LVL54:
 722               	.L28:
 270:../../os/hal/src/hal_queues.c ****     }
 723               		.loc 1 270 20 view .LVU173
 724               	.LBE96:
 281:../../os/hal/src/hal_queues.c **** }
 725               		.loc 1 281 10 view .LVU174
 726 0070 8FEF      		ldi r24,lo8(-1)
 727 0072 9FEF      		ldi r25,lo8(-1)
 728 0074 00C0      		rjmp .L24
 729               		.cfi_endproc
 730               	.LFE151:
 732               		.section	.text.iqGetTimeout,"ax",@progbits
 733               	.global	iqGetTimeout
 735               	iqGetTimeout:
 736               	.LVL55:
 737               	.LFB152:
 283:../../os/hal/src/hal_queues.c **** 
 284:../../os/hal/src/hal_queues.c **** /**
 285:../../os/hal/src/hal_queues.c ****  * @brief   Input queue read with timeout.
 286:../../os/hal/src/hal_queues.c ****  * @details This function reads a byte value from an input queue. If the queue
 287:../../os/hal/src/hal_queues.c ****  *          is empty then the calling thread is suspended until a byte arrives
 288:../../os/hal/src/hal_queues.c ****  *          in the queue or a timeout occurs.
 289:../../os/hal/src/hal_queues.c ****  * @note    The callback is invoked after removing a character from the
 290:../../os/hal/src/hal_queues.c ****  *          queue.
 291:../../os/hal/src/hal_queues.c ****  *
 292:../../os/hal/src/hal_queues.c ****  * @param[in] iqp       pointer to an @p input_queue_t structure
 293:../../os/hal/src/hal_queues.c ****  * @param[in] timeout   the number of ticks before the operation timeouts,
 294:../../os/hal/src/hal_queues.c ****  *                      the following special values are allowed:
 295:../../os/hal/src/hal_queues.c ****  *                      - @a TIME_IMMEDIATE immediate timeout.
 296:../../os/hal/src/hal_queues.c ****  *                      - @a TIME_INFINITE no timeout.
 297:../../os/hal/src/hal_queues.c ****  *                      .
 298:../../os/hal/src/hal_queues.c ****  * @return              A byte value from the queue.
 299:../../os/hal/src/hal_queues.c ****  * @retval MSG_TIMEOUT  if the specified time expired.
 300:../../os/hal/src/hal_queues.c ****  * @retval MSG_RESET    if the queue has been reset.
 301:../../os/hal/src/hal_queues.c ****  *
 302:../../os/hal/src/hal_queues.c ****  * @api
 303:../../os/hal/src/hal_queues.c ****  */
 304:../../os/hal/src/hal_queues.c **** msg_t iqGetTimeout(input_queue_t *iqp, sysinterval_t timeout) {
 738               		.loc 1 304 63 is_stmt 1 view -0
 739               		.cfi_startproc
 740               		.loc 1 304 63 is_stmt 0 view .LVU176
 741 0000 EF92      		push r14
 742               	.LCFI23:
 743               		.cfi_def_cfa_offset 3
 744               		.cfi_offset 14, -2
 745 0002 FF92      		push r15
 746               	.LCFI24:
 747               		.cfi_def_cfa_offset 4
 748               		.cfi_offset 15, -3
 749 0004 0F93      		push r16
 750               	.LCFI25:
 751               		.cfi_def_cfa_offset 5
 752               		.cfi_offset 16, -4
 753 0006 1F93      		push r17
 754               	.LCFI26:
 755               		.cfi_def_cfa_offset 6
 756               		.cfi_offset 17, -5
 757 0008 CF93      		push r28
 758               	.LCFI27:
 759               		.cfi_def_cfa_offset 7
 760               		.cfi_offset 28, -6
 761 000a DF93      		push r29
 762               	.LCFI28:
 763               		.cfi_def_cfa_offset 8
 764               		.cfi_offset 29, -7
 765               	/* prologue: function */
 766               	/* frame size = 0 */
 767               	/* stack size = 6 */
 768               	.L__stack_usage = 6
 769 000c 8C01      		movw r16,r24
 770 000e 7B01      		movw r14,r22
 305:../../os/hal/src/hal_queues.c ****   uint8_t b;
 771               		.loc 1 305 3 is_stmt 1 view .LVU177
 306:../../os/hal/src/hal_queues.c **** 
 307:../../os/hal/src/hal_queues.c ****   osalSysLock();
 772               		.loc 1 307 3 view .LVU178
 773               	.LBB97:
 774               	.LBI97:
 573:../../os/hal/osal/rt-nil/osal.h **** 
 775               		.loc 2 573 20 view .LVU179
 776               	.LBB98:
 575:../../os/hal/osal/rt-nil/osal.h **** }
 777               		.loc 2 575 3 view .LVU180
 778               	.LBB99:
 779               	.LBI99:
 780               		.file 3 "../../os/common/ports/AVR/chcore.h"
   1:../../os/common/ports/AVR/chcore.h **** /*
   2:../../os/common/ports/AVR/chcore.h ****     ChibiOS - Copyright (C) 2006,2007,2008,2009,2010,2011,2012,2013,2014,
   3:../../os/common/ports/AVR/chcore.h ****               2015,2016,2017,2018,2019,2020,2021 Giovanni Di Sirio.
   4:../../os/common/ports/AVR/chcore.h **** 
   5:../../os/common/ports/AVR/chcore.h ****     This file is part of ChibiOS.
   6:../../os/common/ports/AVR/chcore.h **** 
   7:../../os/common/ports/AVR/chcore.h ****     ChibiOS is free software; you can redistribute it and/or modify
   8:../../os/common/ports/AVR/chcore.h ****     it under the terms of the GNU General Public License as published by
   9:../../os/common/ports/AVR/chcore.h ****     the Free Software Foundation version 3 of the License.
  10:../../os/common/ports/AVR/chcore.h **** 
  11:../../os/common/ports/AVR/chcore.h ****     ChibiOS is distributed in the hope that it will be useful,
  12:../../os/common/ports/AVR/chcore.h ****     but WITHOUT ANY WARRANTY; without even the implied warranty of
  13:../../os/common/ports/AVR/chcore.h ****     MERCHANTABILITY or FITNESS FOR A PARTICULAR PURPOSE.  See the
  14:../../os/common/ports/AVR/chcore.h ****     GNU General Public License for more details.
  15:../../os/common/ports/AVR/chcore.h **** 
  16:../../os/common/ports/AVR/chcore.h ****     You should have received a copy of the GNU General Public License
  17:../../os/common/ports/AVR/chcore.h ****     along with this program.  If not, see <http://www.gnu.org/licenses/>.
  18:../../os/common/ports/AVR/chcore.h **** */
  19:../../os/common/ports/AVR/chcore.h **** 
  20:../../os/common/ports/AVR/chcore.h **** /**
  21:../../os/common/ports/AVR/chcore.h ****  * @file    chcore.h
  22:../../os/common/ports/AVR/chcore.h ****  * @brief   AVR port macros and structures.
  23:../../os/common/ports/AVR/chcore.h ****  *
  24:../../os/common/ports/AVR/chcore.h ****  * @addtogroup AVR_CORE
  25:../../os/common/ports/AVR/chcore.h ****  * @{
  26:../../os/common/ports/AVR/chcore.h ****  */
  27:../../os/common/ports/AVR/chcore.h **** 
  28:../../os/common/ports/AVR/chcore.h **** #ifndef CHCORE_H
  29:../../os/common/ports/AVR/chcore.h **** #define CHCORE_H
  30:../../os/common/ports/AVR/chcore.h **** 
  31:../../os/common/ports/AVR/chcore.h **** #include <avr/io.h>
  32:../../os/common/ports/AVR/chcore.h **** #include <avr/interrupt.h>
  33:../../os/common/ports/AVR/chcore.h **** 
  34:../../os/common/ports/AVR/chcore.h **** extern bool __avr_in_isr;
  35:../../os/common/ports/AVR/chcore.h **** 
  36:../../os/common/ports/AVR/chcore.h **** /*===========================================================================*/
  37:../../os/common/ports/AVR/chcore.h **** /* Module constants.                                                         */
  38:../../os/common/ports/AVR/chcore.h **** /*===========================================================================*/
  39:../../os/common/ports/AVR/chcore.h **** 
  40:../../os/common/ports/AVR/chcore.h **** /**
  41:../../os/common/ports/AVR/chcore.h ****  * @name    Port Capabilities and Constants
  42:../../os/common/ports/AVR/chcore.h ****  * @{
  43:../../os/common/ports/AVR/chcore.h ****  */
  44:../../os/common/ports/AVR/chcore.h **** /**
  45:../../os/common/ports/AVR/chcore.h ****  * @brief   This port supports a realtime counter.
  46:../../os/common/ports/AVR/chcore.h ****  */
  47:../../os/common/ports/AVR/chcore.h **** #define PORT_SUPPORTS_RT                FALSE
  48:../../os/common/ports/AVR/chcore.h **** 
  49:../../os/common/ports/AVR/chcore.h **** /**
  50:../../os/common/ports/AVR/chcore.h ****  * @brief   Natural alignment constant.
  51:../../os/common/ports/AVR/chcore.h ****  * @note    It is the minimum alignment for pointer-size variables.
  52:../../os/common/ports/AVR/chcore.h ****  */
  53:../../os/common/ports/AVR/chcore.h **** #define PORT_NATURAL_ALIGN              1U
  54:../../os/common/ports/AVR/chcore.h **** 
  55:../../os/common/ports/AVR/chcore.h **** /**
  56:../../os/common/ports/AVR/chcore.h ****  * @brief   Stack alignment constant.
  57:../../os/common/ports/AVR/chcore.h ****  * @note    It is the alignment required for the stack pointer.
  58:../../os/common/ports/AVR/chcore.h ****  */
  59:../../os/common/ports/AVR/chcore.h **** #define PORT_STACK_ALIGN                1U
  60:../../os/common/ports/AVR/chcore.h **** 
  61:../../os/common/ports/AVR/chcore.h **** /**
  62:../../os/common/ports/AVR/chcore.h ****  * @brief   Working Areas alignment constant.
  63:../../os/common/ports/AVR/chcore.h ****  * @note    It is the alignment to be enforced for thread working areas.
  64:../../os/common/ports/AVR/chcore.h ****  */
  65:../../os/common/ports/AVR/chcore.h **** #define PORT_WORKING_AREA_ALIGN         1U
  66:../../os/common/ports/AVR/chcore.h **** /** @} */
  67:../../os/common/ports/AVR/chcore.h **** 
  68:../../os/common/ports/AVR/chcore.h **** /**
  69:../../os/common/ports/AVR/chcore.h ****  * @name    Architecture and Compiler
  70:../../os/common/ports/AVR/chcore.h ****  * @{
  71:../../os/common/ports/AVR/chcore.h ****  */
  72:../../os/common/ports/AVR/chcore.h **** /**
  73:../../os/common/ports/AVR/chcore.h ****  * @brief   Macro defining an AVR architecture.
  74:../../os/common/ports/AVR/chcore.h ****  */
  75:../../os/common/ports/AVR/chcore.h **** #define PORT_ARCHITECTURE_AVR
  76:../../os/common/ports/AVR/chcore.h **** 
  77:../../os/common/ports/AVR/chcore.h **** /**
  78:../../os/common/ports/AVR/chcore.h ****  * @brief   Macro defining the specific AVR architecture.
  79:../../os/common/ports/AVR/chcore.h ****  */
  80:../../os/common/ports/AVR/chcore.h **** #define PORT_ARCHITECTURE_AVR_MEGAAVR
  81:../../os/common/ports/AVR/chcore.h **** 
  82:../../os/common/ports/AVR/chcore.h **** /**
  83:../../os/common/ports/AVR/chcore.h ****  * @brief   Name of the implemented architecture.
  84:../../os/common/ports/AVR/chcore.h ****  */
  85:../../os/common/ports/AVR/chcore.h **** #define PORT_ARCHITECTURE_NAME          "AVR"
  86:../../os/common/ports/AVR/chcore.h **** 
  87:../../os/common/ports/AVR/chcore.h **** /**
  88:../../os/common/ports/AVR/chcore.h ****  * @brief   Name of the architecture variant.
  89:../../os/common/ports/AVR/chcore.h ****  */
  90:../../os/common/ports/AVR/chcore.h **** #define PORT_CORE_VARIANT_NAME          "MegaAVR"
  91:../../os/common/ports/AVR/chcore.h **** 
  92:../../os/common/ports/AVR/chcore.h **** /**
  93:../../os/common/ports/AVR/chcore.h ****  * @brief   Compiler name and version.
  94:../../os/common/ports/AVR/chcore.h ****  */
  95:../../os/common/ports/AVR/chcore.h **** #if defined(__GNUC__) || defined(__DOXYGEN__)
  96:../../os/common/ports/AVR/chcore.h **** #define PORT_COMPILER_NAME              "GCC " __VERSION__
  97:../../os/common/ports/AVR/chcore.h **** 
  98:../../os/common/ports/AVR/chcore.h **** #else
  99:../../os/common/ports/AVR/chcore.h **** #error "unsupported compiler"
 100:../../os/common/ports/AVR/chcore.h **** #endif
 101:../../os/common/ports/AVR/chcore.h **** 
 102:../../os/common/ports/AVR/chcore.h **** /**
 103:../../os/common/ports/AVR/chcore.h ****  * @brief   Port-specific information string.
 104:../../os/common/ports/AVR/chcore.h ****  */
 105:../../os/common/ports/AVR/chcore.h **** #define PORT_INFO                       "None"
 106:../../os/common/ports/AVR/chcore.h **** /** @} */
 107:../../os/common/ports/AVR/chcore.h **** 
 108:../../os/common/ports/AVR/chcore.h **** /*===========================================================================*/
 109:../../os/common/ports/AVR/chcore.h **** /* Module pre-compile time settings.                                         */
 110:../../os/common/ports/AVR/chcore.h **** /*===========================================================================*/
 111:../../os/common/ports/AVR/chcore.h **** 
 112:../../os/common/ports/AVR/chcore.h **** /**
 113:../../os/common/ports/AVR/chcore.h ****  * @brief   Stack size for the system idle thread.
 114:../../os/common/ports/AVR/chcore.h ****  * @details This size depends on the idle thread implementation, usually
 115:../../os/common/ports/AVR/chcore.h ****  *          the idle thread should take no more space than those reserved
 116:../../os/common/ports/AVR/chcore.h ****  *          by @p PORT_INT_REQUIRED_STACK.
 117:../../os/common/ports/AVR/chcore.h ****  */
 118:../../os/common/ports/AVR/chcore.h **** #if !defined(PORT_IDLE_THREAD_STACK_SIZE) || defined(__DOXYGEN__)
 119:../../os/common/ports/AVR/chcore.h **** #define PORT_IDLE_THREAD_STACK_SIZE     8
 120:../../os/common/ports/AVR/chcore.h **** #endif
 121:../../os/common/ports/AVR/chcore.h **** 
 122:../../os/common/ports/AVR/chcore.h **** /**
 123:../../os/common/ports/AVR/chcore.h ****  * @brief   Per-thread stack overhead for interrupts servicing.
 124:../../os/common/ports/AVR/chcore.h ****  * @details This constant is used in the calculation of the correct working
 125:../../os/common/ports/AVR/chcore.h ****  *          area size.
 126:../../os/common/ports/AVR/chcore.h ****  */
 127:../../os/common/ports/AVR/chcore.h **** #if !defined(PORT_INT_REQUIRED_STACK) || defined(__DOXYGEN__)
 128:../../os/common/ports/AVR/chcore.h **** #define PORT_INT_REQUIRED_STACK         32
 129:../../os/common/ports/AVR/chcore.h **** #endif
 130:../../os/common/ports/AVR/chcore.h **** 
 131:../../os/common/ports/AVR/chcore.h **** /**
 132:../../os/common/ports/AVR/chcore.h ****  * @brief   Enables a "wait for interrupt" instruction in the idle loop.
 133:../../os/common/ports/AVR/chcore.h ****  */
 134:../../os/common/ports/AVR/chcore.h **** #if !defined(PORT_AVR_WFI_SLEEP_IDLE) || defined(__DOXYGEN__)
 135:../../os/common/ports/AVR/chcore.h **** #define PORT_AVR_WFI_SLEEP_IDLE      FALSE
 136:../../os/common/ports/AVR/chcore.h **** #endif
 137:../../os/common/ports/AVR/chcore.h **** 
 138:../../os/common/ports/AVR/chcore.h **** /*===========================================================================*/
 139:../../os/common/ports/AVR/chcore.h **** /* Derived constants and error checks.                                       */
 140:../../os/common/ports/AVR/chcore.h **** /*===========================================================================*/
 141:../../os/common/ports/AVR/chcore.h **** 
 142:../../os/common/ports/AVR/chcore.h **** /*===========================================================================*/
 143:../../os/common/ports/AVR/chcore.h **** /* Module data structures and types.                                         */
 144:../../os/common/ports/AVR/chcore.h **** /*===========================================================================*/
 145:../../os/common/ports/AVR/chcore.h **** 
 146:../../os/common/ports/AVR/chcore.h **** /* The following code is not processed when the file is included from an
 147:../../os/common/ports/AVR/chcore.h ****    asm module.*/
 148:../../os/common/ports/AVR/chcore.h **** #if !defined(_FROM_ASM_)
 149:../../os/common/ports/AVR/chcore.h **** 
 150:../../os/common/ports/AVR/chcore.h **** /**
 151:../../os/common/ports/AVR/chcore.h ****  * @brief   Type of stack and memory alignment enforcement.
 152:../../os/common/ports/AVR/chcore.h ****  * @note    In this architecture the stack alignment is enforced to 8 bits.
 153:../../os/common/ports/AVR/chcore.h ****  */
 154:../../os/common/ports/AVR/chcore.h **** typedef uint8_t stkalign_t;
 155:../../os/common/ports/AVR/chcore.h **** 
 156:../../os/common/ports/AVR/chcore.h **** /**
 157:../../os/common/ports/AVR/chcore.h ****  * @brief   Interrupt saved context.
 158:../../os/common/ports/AVR/chcore.h ****  * @details This structure represents the stack frame saved during a
 159:../../os/common/ports/AVR/chcore.h ****  *          preemption-capable interrupt handler.
 160:../../os/common/ports/AVR/chcore.h ****  * @note    R2 and R13 are not saved because those are assumed to be immutable
 161:../../os/common/ports/AVR/chcore.h ****  *          during the system life cycle.
 162:../../os/common/ports/AVR/chcore.h ****  */
 163:../../os/common/ports/AVR/chcore.h **** struct port_extctx {
 164:../../os/common/ports/AVR/chcore.h ****   uint8_t       _next;
 165:../../os/common/ports/AVR/chcore.h ****   uint8_t       r31;
 166:../../os/common/ports/AVR/chcore.h ****   uint8_t       r30;
 167:../../os/common/ports/AVR/chcore.h ****   uint8_t       r27;
 168:../../os/common/ports/AVR/chcore.h ****   uint8_t       r26;
 169:../../os/common/ports/AVR/chcore.h ****   uint8_t       r25;
 170:../../os/common/ports/AVR/chcore.h ****   uint8_t       r24;
 171:../../os/common/ports/AVR/chcore.h ****   uint8_t       r23;
 172:../../os/common/ports/AVR/chcore.h ****   uint8_t       r22;
 173:../../os/common/ports/AVR/chcore.h ****   uint8_t       r21;
 174:../../os/common/ports/AVR/chcore.h ****   uint8_t       r20;
 175:../../os/common/ports/AVR/chcore.h ****   uint8_t       r19;
 176:../../os/common/ports/AVR/chcore.h ****   uint8_t       r18;
 177:../../os/common/ports/AVR/chcore.h ****   uint8_t       sr;
 178:../../os/common/ports/AVR/chcore.h ****   uint8_t       r1;
 179:../../os/common/ports/AVR/chcore.h ****   uint8_t       r0;
 180:../../os/common/ports/AVR/chcore.h **** #if defined(__AVR_3_BYTE_PC__)
 181:../../os/common/ports/AVR/chcore.h ****   uint8_t       pcx;
 182:../../os/common/ports/AVR/chcore.h **** #endif
 183:../../os/common/ports/AVR/chcore.h ****   uint16_t      pc;
 184:../../os/common/ports/AVR/chcore.h **** };
 185:../../os/common/ports/AVR/chcore.h **** 
 186:../../os/common/ports/AVR/chcore.h **** /**
 187:../../os/common/ports/AVR/chcore.h ****  * @brief   System saved context.
 188:../../os/common/ports/AVR/chcore.h ****  * @details This structure represents the inner stack frame during a context
 189:../../os/common/ports/AVR/chcore.h ****  *          switching.
 190:../../os/common/ports/AVR/chcore.h ****  * @note    R2 and R13 are not saved because those are assumed to be immutable
 191:../../os/common/ports/AVR/chcore.h ****  *          during the system life cycle.
 192:../../os/common/ports/AVR/chcore.h ****  * @note    LR is stored in the caller context so it is not present in this
 193:../../os/common/ports/AVR/chcore.h ****  *          structure.
 194:../../os/common/ports/AVR/chcore.h ****  */
 195:../../os/common/ports/AVR/chcore.h **** struct port_intctx {
 196:../../os/common/ports/AVR/chcore.h ****   uint8_t       _next;
 197:../../os/common/ports/AVR/chcore.h ****   uint8_t       r29;
 198:../../os/common/ports/AVR/chcore.h ****   uint8_t       r28;
 199:../../os/common/ports/AVR/chcore.h ****   uint8_t       r17;
 200:../../os/common/ports/AVR/chcore.h ****   uint8_t       r16;
 201:../../os/common/ports/AVR/chcore.h ****   uint8_t       r15;
 202:../../os/common/ports/AVR/chcore.h ****   uint8_t       r14;
 203:../../os/common/ports/AVR/chcore.h ****   uint8_t       r13;
 204:../../os/common/ports/AVR/chcore.h ****   uint8_t       r12;
 205:../../os/common/ports/AVR/chcore.h ****   uint8_t       r11;
 206:../../os/common/ports/AVR/chcore.h ****   uint8_t       r10;
 207:../../os/common/ports/AVR/chcore.h ****   uint8_t       r9;
 208:../../os/common/ports/AVR/chcore.h ****   uint8_t       r8;
 209:../../os/common/ports/AVR/chcore.h ****   uint8_t       r7;
 210:../../os/common/ports/AVR/chcore.h ****   uint8_t       r6;
 211:../../os/common/ports/AVR/chcore.h ****   uint8_t       r5;
 212:../../os/common/ports/AVR/chcore.h ****   uint8_t       r4;
 213:../../os/common/ports/AVR/chcore.h ****   uint8_t       r3;
 214:../../os/common/ports/AVR/chcore.h ****   uint8_t       r2;
 215:../../os/common/ports/AVR/chcore.h **** #if defined(__AVR_3_BYTE_PC__)
 216:../../os/common/ports/AVR/chcore.h ****   uint8_t       pcx;
 217:../../os/common/ports/AVR/chcore.h **** #endif
 218:../../os/common/ports/AVR/chcore.h ****   uint8_t       pcl;
 219:../../os/common/ports/AVR/chcore.h ****   uint8_t       pch;
 220:../../os/common/ports/AVR/chcore.h **** };
 221:../../os/common/ports/AVR/chcore.h **** 
 222:../../os/common/ports/AVR/chcore.h **** /**
 223:../../os/common/ports/AVR/chcore.h ****  * @brief   Platform dependent part of the @p thread_t structure.
 224:../../os/common/ports/AVR/chcore.h ****  * @details This structure usually contains just the saved stack pointer
 225:../../os/common/ports/AVR/chcore.h ****  *          defined as a pointer to a @p port_intctx structure.
 226:../../os/common/ports/AVR/chcore.h ****  */
 227:../../os/common/ports/AVR/chcore.h **** struct port_context {
 228:../../os/common/ports/AVR/chcore.h ****   struct port_intctx *sp;
 229:../../os/common/ports/AVR/chcore.h **** };
 230:../../os/common/ports/AVR/chcore.h **** 
 231:../../os/common/ports/AVR/chcore.h **** #endif /* !defined(_FROM_ASM_) */
 232:../../os/common/ports/AVR/chcore.h **** 
 233:../../os/common/ports/AVR/chcore.h **** /*===========================================================================*/
 234:../../os/common/ports/AVR/chcore.h **** /* Module macros.                                                            */
 235:../../os/common/ports/AVR/chcore.h **** /*===========================================================================*/
 236:../../os/common/ports/AVR/chcore.h **** 
 237:../../os/common/ports/AVR/chcore.h **** /**
 238:../../os/common/ports/AVR/chcore.h ****  * @brief   Platform dependent part of the @p chThdCreateI() API.
 239:../../os/common/ports/AVR/chcore.h ****  * @details This code usually setup the context switching frame represented
 240:../../os/common/ports/AVR/chcore.h ****  *          by an @p port_intctx structure.
 241:../../os/common/ports/AVR/chcore.h ****  */
 242:../../os/common/ports/AVR/chcore.h **** #if defined(__AVR_3_BYTE_PC__) || defined(__DOXYGEN__)
 243:../../os/common/ports/AVR/chcore.h **** #define PORT_SETUP_CONTEXT(tp, wbase, wtop, pf, arg) {                      \
 244:../../os/common/ports/AVR/chcore.h ****   tp->ctx.sp = (struct port_intctx *)((uint8_t *)(wtop) -                   \
 245:../../os/common/ports/AVR/chcore.h ****                                       sizeof(struct port_intctx));          \
 246:../../os/common/ports/AVR/chcore.h ****   tp->ctx.sp->r2  = (uint8_t)(0xff & (uint16_t)pf);                         \
 247:../../os/common/ports/AVR/chcore.h ****   tp->ctx.sp->r3  = (uint8_t)((uint16_t)(pf) >> 8);                         \
 248:../../os/common/ports/AVR/chcore.h ****   tp->ctx.sp->r4  = (uint8_t)(0xff & (uint16_t)arg);                        \
 249:../../os/common/ports/AVR/chcore.h ****   tp->ctx.sp->r5  = (uint8_t)((uint16_t)(arg) >> 8);                        \
 250:../../os/common/ports/AVR/chcore.h ****   tp->ctx.sp->pcx = (uint8_t)0;                                             \
 251:../../os/common/ports/AVR/chcore.h ****   tp->ctx.sp->pcl = (uint16_t)_port_thread_start >> 8;                      \
 252:../../os/common/ports/AVR/chcore.h ****   tp->ctx.sp->pch = (uint8_t)(0xff & (uint16_t)_port_thread_start);         \
 253:../../os/common/ports/AVR/chcore.h **** }
 254:../../os/common/ports/AVR/chcore.h **** #else /* !__AVR_3_BYTE_PC__ */
 255:../../os/common/ports/AVR/chcore.h **** #define PORT_SETUP_CONTEXT(tp, wbase, wtop, pf, arg) {                      \
 256:../../os/common/ports/AVR/chcore.h ****   tp->ctx.sp = (struct port_intctx *)((uint8_t *)(wtop) -                   \
 257:../../os/common/ports/AVR/chcore.h ****                                       sizeof(struct port_intctx));          \
 258:../../os/common/ports/AVR/chcore.h ****   tp->ctx.sp->r2  = (uint8_t)(0xff & (uint16_t)pf);                         \
 259:../../os/common/ports/AVR/chcore.h ****   tp->ctx.sp->r3  = (uint8_t)((uint16_t)(pf) >> 8);                         \
 260:../../os/common/ports/AVR/chcore.h ****   tp->ctx.sp->r4  = (uint8_t)(0xff & (uint16_t)arg);                        \
 261:../../os/common/ports/AVR/chcore.h ****   tp->ctx.sp->r5  = (uint8_t)((uint16_t)(arg) >> 8);                        \
 262:../../os/common/ports/AVR/chcore.h ****   tp->ctx.sp->pcl = (uint16_t)_port_thread_start >> 8;                      \
 263:../../os/common/ports/AVR/chcore.h ****   tp->ctx.sp->pch = (uint8_t)(0xff & (uint16_t)_port_thread_start);         \
 264:../../os/common/ports/AVR/chcore.h **** }
 265:../../os/common/ports/AVR/chcore.h **** #endif /* !__AVR_3_BYTE_PC__ */
 266:../../os/common/ports/AVR/chcore.h **** 
 267:../../os/common/ports/AVR/chcore.h **** /**
 268:../../os/common/ports/AVR/chcore.h ****  * @brief   Computes the thread working area global size.
 269:../../os/common/ports/AVR/chcore.h ****  * @note    There is no need to perform alignments in this macro.
 270:../../os/common/ports/AVR/chcore.h ****  */
 271:../../os/common/ports/AVR/chcore.h **** #define PORT_WA_SIZE(n) ((sizeof(struct port_intctx) - 1) +                \
 272:../../os/common/ports/AVR/chcore.h ****                          (sizeof(struct port_extctx) - 1) +                \
 273:../../os/common/ports/AVR/chcore.h ****                          ((size_t)(n)) + ((size_t)(PORT_INT_REQUIRED_STACK)))
 274:../../os/common/ports/AVR/chcore.h **** 
 275:../../os/common/ports/AVR/chcore.h **** /**
 276:../../os/common/ports/AVR/chcore.h ****  * @brief   Static working area allocation.
 277:../../os/common/ports/AVR/chcore.h ****  * @details This macro is used to allocate a static thread working area
 278:../../os/common/ports/AVR/chcore.h ****  *          aligned as both position and size.
 279:../../os/common/ports/AVR/chcore.h ****  *
 280:../../os/common/ports/AVR/chcore.h ****  * @param[in] s         the name to be assigned to the stack array
 281:../../os/common/ports/AVR/chcore.h ****  * @param[in] n         the stack size to be assigned to the thread
 282:../../os/common/ports/AVR/chcore.h ****  */
 283:../../os/common/ports/AVR/chcore.h **** #define PORT_WORKING_AREA(s, n)                                             \
 284:../../os/common/ports/AVR/chcore.h ****   stkalign_t s[THD_WORKING_AREA_SIZE(n) / sizeof (stkalign_t)]
 285:../../os/common/ports/AVR/chcore.h **** 
 286:../../os/common/ports/AVR/chcore.h **** /**
 287:../../os/common/ports/AVR/chcore.h ****  * @brief   Priority level verification macro.
 288:../../os/common/ports/AVR/chcore.h ****  */
 289:../../os/common/ports/AVR/chcore.h **** #define PORT_IRQ_IS_VALID_PRIORITY(n) false
 290:../../os/common/ports/AVR/chcore.h **** 
 291:../../os/common/ports/AVR/chcore.h **** /**
 292:../../os/common/ports/AVR/chcore.h ****  * @brief   Priority level verification macro.
 293:../../os/common/ports/AVR/chcore.h ****  */
 294:../../os/common/ports/AVR/chcore.h **** #define PORT_IRQ_IS_VALID_KERNEL_PRIORITY(n) false
 295:../../os/common/ports/AVR/chcore.h **** 
 296:../../os/common/ports/AVR/chcore.h **** /**
 297:../../os/common/ports/AVR/chcore.h ****  * @brief   IRQ prologue code.
 298:../../os/common/ports/AVR/chcore.h ****  * @details This macro must be inserted at the start of all IRQ handlers
 299:../../os/common/ports/AVR/chcore.h ****  *          enabled to invoke system APIs.
 300:../../os/common/ports/AVR/chcore.h ****  * @note    This code tricks the compiler to save all the specified registers
 301:../../os/common/ports/AVR/chcore.h ****  *          by "touching" them.
 302:../../os/common/ports/AVR/chcore.h ****  */
 303:../../os/common/ports/AVR/chcore.h **** #define PORT_IRQ_PROLOGUE() {                                               \
 304:../../os/common/ports/AVR/chcore.h ****   asm ("" : : : "r18", "r19", "r20", "r21", "r22", "r23", "r24",            \
 305:../../os/common/ports/AVR/chcore.h ****                 "r25", "r26", "r27", "r30", "r31");                         \
 306:../../os/common/ports/AVR/chcore.h ****   __avr_in_isr = true;                                                      \
 307:../../os/common/ports/AVR/chcore.h **** }
 308:../../os/common/ports/AVR/chcore.h **** 
 309:../../os/common/ports/AVR/chcore.h **** /**
 310:../../os/common/ports/AVR/chcore.h ****  * @brief   IRQ epilogue code.
 311:../../os/common/ports/AVR/chcore.h ****  * @details This macro must be inserted at the end of all IRQ handlers
 312:../../os/common/ports/AVR/chcore.h ****  *          enabled to invoke system APIs.
 313:../../os/common/ports/AVR/chcore.h ****  */
 314:../../os/common/ports/AVR/chcore.h **** #define PORT_IRQ_EPILOGUE() {                                               \
 315:../../os/common/ports/AVR/chcore.h ****   __avr_in_isr = false;                                                     \
 316:../../os/common/ports/AVR/chcore.h ****   __dbg_check_lock();                                                       \
 317:../../os/common/ports/AVR/chcore.h ****   if (chSchIsPreemptionRequired())                                          \
 318:../../os/common/ports/AVR/chcore.h ****     chSchDoPreemption();                                                    \
 319:../../os/common/ports/AVR/chcore.h ****   __dbg_check_unlock();                                                     \
 320:../../os/common/ports/AVR/chcore.h **** }
 321:../../os/common/ports/AVR/chcore.h **** 
 322:../../os/common/ports/AVR/chcore.h **** /**
 323:../../os/common/ports/AVR/chcore.h ****  * @brief   IRQ handler function declaration.
 324:../../os/common/ports/AVR/chcore.h ****  * @note    @p id can be a function name or a vector number depending on the
 325:../../os/common/ports/AVR/chcore.h ****  *          port implementation.
 326:../../os/common/ports/AVR/chcore.h ****  */
 327:../../os/common/ports/AVR/chcore.h **** #define PORT_IRQ_HANDLER(id) ISR(id)
 328:../../os/common/ports/AVR/chcore.h **** 
 329:../../os/common/ports/AVR/chcore.h **** /**
 330:../../os/common/ports/AVR/chcore.h ****  * @brief   Fast IRQ handler function declaration.
 331:../../os/common/ports/AVR/chcore.h ****  * @note    @p id can be a function name or a vector number depending on the
 332:../../os/common/ports/AVR/chcore.h ****  *          port implementation.
 333:../../os/common/ports/AVR/chcore.h ****  */
 334:../../os/common/ports/AVR/chcore.h **** #define PORT_FAST_IRQ_HANDLER(id) ISR(id)
 335:../../os/common/ports/AVR/chcore.h **** 
 336:../../os/common/ports/AVR/chcore.h **** /**
 337:../../os/common/ports/AVR/chcore.h ****  * @brief   Performs a context switch between two threads.
 338:../../os/common/ports/AVR/chcore.h ****  * @details This is the most critical code in any port, this function
 339:../../os/common/ports/AVR/chcore.h ****  *          is responsible for the context switch between 2 threads.
 340:../../os/common/ports/AVR/chcore.h ****  * @note    The implementation of this code affects <b>directly</b> the context
 341:../../os/common/ports/AVR/chcore.h ****  *          switch performance so optimize here as much as you can.
 342:../../os/common/ports/AVR/chcore.h ****  *
 343:../../os/common/ports/AVR/chcore.h ****  * @param[in] ntp       the thread to be switched in
 344:../../os/common/ports/AVR/chcore.h ****  * @param[in] otp       the thread to be switched out
 345:../../os/common/ports/AVR/chcore.h ****  */
 346:../../os/common/ports/AVR/chcore.h **** #define port_switch(ntp, otp) {                                             \
 347:../../os/common/ports/AVR/chcore.h ****   _port_switch(ntp, otp);                                                   \
 348:../../os/common/ports/AVR/chcore.h ****   asm volatile ("" : : : "memory");                                         \
 349:../../os/common/ports/AVR/chcore.h **** }
 350:../../os/common/ports/AVR/chcore.h **** 
 351:../../os/common/ports/AVR/chcore.h **** 
 352:../../os/common/ports/AVR/chcore.h **** /**
 353:../../os/common/ports/AVR/chcore.h ****  * @brief   Port-related initialization code.
 354:../../os/common/ports/AVR/chcore.h ****  * @note    This function is empty in this port.
 355:../../os/common/ports/AVR/chcore.h ****  */
 356:../../os/common/ports/AVR/chcore.h **** #define port_init(oip) {                                                    \
 357:../../os/common/ports/AVR/chcore.h ****   __avr_in_isr = true;                                                      \
 358:../../os/common/ports/AVR/chcore.h **** }
 359:../../os/common/ports/AVR/chcore.h **** 
 360:../../os/common/ports/AVR/chcore.h **** /*===========================================================================*/
 361:../../os/common/ports/AVR/chcore.h **** /* External declarations.                                                    */
 362:../../os/common/ports/AVR/chcore.h **** /*===========================================================================*/
 363:../../os/common/ports/AVR/chcore.h **** 
 364:../../os/common/ports/AVR/chcore.h **** /* The following code is not processed when the file is included from an
 365:../../os/common/ports/AVR/chcore.h ****    asm module.*/
 366:../../os/common/ports/AVR/chcore.h **** #if !defined(_FROM_ASM_)
 367:../../os/common/ports/AVR/chcore.h **** 
 368:../../os/common/ports/AVR/chcore.h **** #ifdef __cplusplus
 369:../../os/common/ports/AVR/chcore.h **** extern "C" {
 370:../../os/common/ports/AVR/chcore.h **** #endif
 371:../../os/common/ports/AVR/chcore.h ****   void _port_switch(thread_t *ntp, thread_t *otp);
 372:../../os/common/ports/AVR/chcore.h ****   void _port_thread_start(void);
 373:../../os/common/ports/AVR/chcore.h **** #ifdef __cplusplus
 374:../../os/common/ports/AVR/chcore.h **** }
 375:../../os/common/ports/AVR/chcore.h **** #endif
 376:../../os/common/ports/AVR/chcore.h **** 
 377:../../os/common/ports/AVR/chcore.h **** #endif /* !defined(_FROM_ASM_) */
 378:../../os/common/ports/AVR/chcore.h **** 
 379:../../os/common/ports/AVR/chcore.h **** /*===========================================================================*/
 380:../../os/common/ports/AVR/chcore.h **** /* Module inline functions.                                                  */
 381:../../os/common/ports/AVR/chcore.h **** /*===========================================================================*/
 382:../../os/common/ports/AVR/chcore.h **** 
 383:../../os/common/ports/AVR/chcore.h **** /* The following code is not processed when the file is included from an
 384:../../os/common/ports/AVR/chcore.h ****    asm module.*/
 385:../../os/common/ports/AVR/chcore.h **** #if !defined(_FROM_ASM_)
 386:../../os/common/ports/AVR/chcore.h **** 
 387:../../os/common/ports/AVR/chcore.h **** /**
 388:../../os/common/ports/AVR/chcore.h ****  * @brief   Returns a word encoding the current interrupts status.
 389:../../os/common/ports/AVR/chcore.h ****  *
 390:../../os/common/ports/AVR/chcore.h ****  * @return              The interrupts status.
 391:../../os/common/ports/AVR/chcore.h ****  */
 392:../../os/common/ports/AVR/chcore.h **** static inline syssts_t port_get_irq_status(void) {
 393:../../os/common/ports/AVR/chcore.h **** 
 394:../../os/common/ports/AVR/chcore.h ****   return SREG;
 395:../../os/common/ports/AVR/chcore.h **** }
 396:../../os/common/ports/AVR/chcore.h **** 
 397:../../os/common/ports/AVR/chcore.h **** /**
 398:../../os/common/ports/AVR/chcore.h ****  * @brief   Checks the interrupt status.
 399:../../os/common/ports/AVR/chcore.h ****  *
 400:../../os/common/ports/AVR/chcore.h ****  * @param[in] sts       the interrupt status word
 401:../../os/common/ports/AVR/chcore.h ****  *
 402:../../os/common/ports/AVR/chcore.h ****  * @return              The interrupt status.
 403:../../os/common/ports/AVR/chcore.h ****  * @retval false        the word specified a disabled interrupts status.
 404:../../os/common/ports/AVR/chcore.h ****  * @retval true         the word specified an enabled interrupts status.
 405:../../os/common/ports/AVR/chcore.h ****  */
 406:../../os/common/ports/AVR/chcore.h **** static inline bool port_irq_enabled(syssts_t sts) {
 407:../../os/common/ports/AVR/chcore.h **** 
 408:../../os/common/ports/AVR/chcore.h ****   return (bool)((sts & 0x80) != 0);
 409:../../os/common/ports/AVR/chcore.h **** }
 410:../../os/common/ports/AVR/chcore.h **** 
 411:../../os/common/ports/AVR/chcore.h **** /**
 412:../../os/common/ports/AVR/chcore.h ****  * @brief   Determines the current execution context.
 413:../../os/common/ports/AVR/chcore.h ****  *
 414:../../os/common/ports/AVR/chcore.h ****  * @return              The execution context.
 415:../../os/common/ports/AVR/chcore.h ****  * @retval false        not running in ISR mode.
 416:../../os/common/ports/AVR/chcore.h ****  * @retval true         running in ISR mode.
 417:../../os/common/ports/AVR/chcore.h ****  */
 418:../../os/common/ports/AVR/chcore.h **** static inline bool port_is_isr_context(void) {
 419:../../os/common/ports/AVR/chcore.h **** 
 420:../../os/common/ports/AVR/chcore.h ****   return __avr_in_isr;
 421:../../os/common/ports/AVR/chcore.h **** }
 422:../../os/common/ports/AVR/chcore.h **** 
 423:../../os/common/ports/AVR/chcore.h **** /**
 424:../../os/common/ports/AVR/chcore.h ****  * @brief   Kernel-lock action.
 425:../../os/common/ports/AVR/chcore.h ****  * @details Usually this function just disables interrupts but may perform more
 426:../../os/common/ports/AVR/chcore.h ****  *          actions.
 427:../../os/common/ports/AVR/chcore.h ****  */
 428:../../os/common/ports/AVR/chcore.h **** static inline void port_lock(void) {
 781               		.loc 3 428 20 view .LVU181
 782               	.LBB100:
 429:../../os/common/ports/AVR/chcore.h **** 
 430:../../os/common/ports/AVR/chcore.h ****   asm volatile ("cli" : : : "memory");
 783               		.loc 3 430 3 view .LVU182
 784               	/* #APP */
 785               	 ;  430 "../../os/common/ports/AVR/chcore.h" 1
 786 0010 F894      		cli
 787               	 ;  0 "" 2
 788               	/* #NOAPP */
 789               	.LBE100:
 790               	.LBE99:
 575:../../os/hal/osal/rt-nil/osal.h **** }
 791               		.loc 2 575 3 discriminator 1 view .LVU183
 575:../../os/hal/osal/rt-nil/osal.h **** }
 792               		.loc 2 575 14 discriminator 1 view .LVU184
 793               	.LBE98:
 794               	.LBE97:
 308:../../os/hal/src/hal_queues.c **** 
 309:../../os/hal/src/hal_queues.c ****   /* Waiting until there is a character available or a timeout occurs.*/
 310:../../os/hal/src/hal_queues.c ****   while (iqIsEmptyI(iqp)) {
 795               		.loc 1 310 3 view .LVU185
 796               	.LBB102:
 797               	.LBB101:
 576:../../os/hal/osal/rt-nil/osal.h **** 
 798               		.loc 2 576 1 is_stmt 0 view .LVU186
 799 0012 00C0      		rjmp .L34
 800               	.LVL56:
 801               	.L36:
 576:../../os/hal/osal/rt-nil/osal.h **** 
 802               		.loc 2 576 1 view .LVU187
 803               	.LBE101:
 804               	.LBE102:
 805               	.LBB103:
 311:../../os/hal/src/hal_queues.c ****     msg_t msg = osalThreadEnqueueTimeoutS(&iqp->q_waiting, timeout);
 806               		.loc 1 311 5 is_stmt 1 view .LVU188
 807               	.LBB104:
 808               	.LBI104:
 892:../../os/hal/osal/rt-nil/osal.h ****                                               sysinterval_t timeout) {
 809               		.loc 2 892 21 view .LVU189
 810               	.LBB105:
 895:../../os/hal/osal/rt-nil/osal.h **** }
 811               		.loc 2 895 3 view .LVU190
 895:../../os/hal/osal/rt-nil/osal.h **** }
 812               		.loc 2 895 10 is_stmt 0 view .LVU191
 813 0014 B701      		movw r22,r14
 814 0016 C801      		movw r24,r16
 815 0018 0E94 0000 		call chThdEnqueueTimeoutS
 816               	.LVL57:
 817 001c EC01      		movw r28,r24
 818               	.LVL58:
 895:../../os/hal/osal/rt-nil/osal.h **** }
 819               		.loc 2 895 10 view .LVU192
 820               	.LBE105:
 821               	.LBE104:
 312:../../os/hal/src/hal_queues.c ****     if (msg < MSG_OK) {
 822               		.loc 1 312 5 is_stmt 1 view .LVU193
 823               		.loc 1 312 8 is_stmt 0 view .LVU194
 824 001e 97FD      		sbrc r25,7
 825 0020 00C0      		rjmp .L43
 826               	.LVL59:
 827               	.L34:
 828               		.loc 1 312 8 view .LVU195
 829               	.LBE103:
 310:../../os/hal/src/hal_queues.c ****     msg_t msg = osalThreadEnqueueTimeoutS(&iqp->q_waiting, timeout);
 830               		.loc 1 310 10 is_stmt 1 view .LVU196
 831 0022 D801      		movw r26,r16
 832 0024 1196      		adiw r26,1
 833 0026 8D91      		ld r24,X+
 834 0028 9C91      		ld r25,X
 835 002a 1297      		sbiw r26,1+1
 836 002c 892B      		or r24,r25
 837 002e 01F0      		breq .L36
 313:../../os/hal/src/hal_queues.c ****       osalSysUnlock();
 314:../../os/hal/src/hal_queues.c ****       return msg;
 315:../../os/hal/src/hal_queues.c ****     }
 316:../../os/hal/src/hal_queues.c ****   }
 317:../../os/hal/src/hal_queues.c **** 
 318:../../os/hal/src/hal_queues.c ****   /* Getting the character from the queue.*/
 319:../../os/hal/src/hal_queues.c ****   iqp->q_counter--;
 838               		.loc 1 319 3 view .LVU197
 839               		.loc 1 319 6 is_stmt 0 view .LVU198
 840 0030 1196      		adiw r26,1
 841 0032 8D91      		ld r24,X+
 842 0034 9C91      		ld r25,X
 843 0036 1297      		sbiw r26,1+1
 844               		.loc 1 319 17 view .LVU199
 845 0038 0197      		sbiw r24,1
 846 003a 1296      		adiw r26,1+1
 847 003c 9C93      		st X,r25
 848 003e 8E93      		st -X,r24
 849 0040 1197      		sbiw r26,1
 320:../../os/hal/src/hal_queues.c ****   b = *iqp->q_rdptr++;
 850               		.loc 1 320 3 is_stmt 1 view .LVU200
 851               		.loc 1 320 11 is_stmt 0 view .LVU201
 852 0042 1996      		adiw r26,9
 853 0044 ED91      		ld r30,X+
 854 0046 FC91      		ld r31,X
 855 0048 1A97      		sbiw r26,9+1
 856               		.loc 1 320 20 view .LVU202
 857 004a CF01      		movw r24,r30
 858 004c 0196      		adiw r24,1
 859 004e 1A96      		adiw r26,9+1
 860 0050 9C93      		st X,r25
 861 0052 8E93      		st -X,r24
 862 0054 1997      		sbiw r26,9
 863               		.loc 1 320 5 view .LVU203
 864 0056 C081      		ld r28,Z
 865               	.LVL60:
 321:../../os/hal/src/hal_queues.c ****   if (iqp->q_rdptr >= iqp->q_top) {
 866               		.loc 1 321 3 is_stmt 1 view .LVU204
 867               		.loc 1 321 6 is_stmt 0 view .LVU205
 868 0058 1596      		adiw r26,5
 869 005a 2D91      		ld r18,X+
 870 005c 3C91      		ld r19,X
 871 005e 1697      		sbiw r26,5+1
 872 0060 8217      		cp r24,r18
 873 0062 9307      		cpc r25,r19
 874 0064 00F0      		brlo .L37
 322:../../os/hal/src/hal_queues.c ****     iqp->q_rdptr = iqp->q_buffer;
 875               		.loc 1 322 5 is_stmt 1 view .LVU206
 876               		.loc 1 322 18 is_stmt 0 view .LVU207
 877 0066 1396      		adiw r26,3
 878 0068 8D91      		ld r24,X+
 879 006a 9C91      		ld r25,X
 880 006c 1497      		sbiw r26,3+1
 881 006e 1A96      		adiw r26,9+1
 882 0070 9C93      		st X,r25
 883 0072 8E93      		st -X,r24
 884 0074 1997      		sbiw r26,9
 885               	.L37:
 323:../../os/hal/src/hal_queues.c ****   }
 324:../../os/hal/src/hal_queues.c **** 
 325:../../os/hal/src/hal_queues.c ****   /* Inform the low side that the queue has at least one slot available.*/
 326:../../os/hal/src/hal_queues.c ****   if (iqp->q_notify != NULL) {
 886               		.loc 1 326 3 is_stmt 1 view .LVU208
 887               		.loc 1 326 10 is_stmt 0 view .LVU209
 888 0076 D801      		movw r26,r16
 889 0078 1B96      		adiw r26,11
 890 007a ED91      		ld r30,X+
 891 007c FC91      		ld r31,X
 892               		.loc 1 326 6 view .LVU210
 893 007e 3097      		sbiw r30,0
 894 0080 01F0      		breq .L38
 327:../../os/hal/src/hal_queues.c ****     iqp->q_notify(iqp);
 895               		.loc 1 327 5 is_stmt 1 view .LVU211
 896 0082 C801      		movw r24,r16
 897 0084 0995      		icall
 898               	.LVL61:
 899               	.L38:
 328:../../os/hal/src/hal_queues.c ****   }
 329:../../os/hal/src/hal_queues.c **** 
 330:../../os/hal/src/hal_queues.c ****   osalSysUnlock();
 900               		.loc 1 330 3 view .LVU212
 901               	.LBB109:
 902               	.LBI109:
 584:../../os/hal/osal/rt-nil/osal.h **** 
 903               		.loc 2 584 20 view .LVU213
 586:../../os/hal/osal/rt-nil/osal.h **** }
 904               		.loc 2 586 3 view .LVU214
 586:../../os/hal/osal/rt-nil/osal.h **** }
 905               		.loc 2 586 3 view .LVU215
 906               	.LBB110:
 907               	.LBI110:
 431:../../os/common/ports/AVR/chcore.h **** }
 432:../../os/common/ports/AVR/chcore.h **** 
 433:../../os/common/ports/AVR/chcore.h **** /**
 434:../../os/common/ports/AVR/chcore.h ****  * @brief   Kernel-unlock action.
 435:../../os/common/ports/AVR/chcore.h ****  * @details Usually this function just enables interrupts but may perform more
 436:../../os/common/ports/AVR/chcore.h ****  *          actions.
 437:../../os/common/ports/AVR/chcore.h ****  */
 438:../../os/common/ports/AVR/chcore.h **** static inline void port_unlock(void) {
 908               		.loc 3 438 20 view .LVU216
 909               	.LBB111:
 439:../../os/common/ports/AVR/chcore.h **** 
 440:../../os/common/ports/AVR/chcore.h ****   asm volatile ("sei" : : : "memory");
 910               		.loc 3 440 3 view .LVU217
 911               	/* #APP */
 912               	 ;  440 "../../os/common/ports/AVR/chcore.h" 1
 913 0086 7894      		sei
 914               	 ;  0 "" 2
 915               	/* #NOAPP */
 916               	.LBE111:
 917               	.LBE110:
 586:../../os/hal/osal/rt-nil/osal.h **** }
 918               		.loc 2 586 16 discriminator 1 view .LVU218
 919               	.LBE109:
 331:../../os/hal/src/hal_queues.c **** 
 332:../../os/hal/src/hal_queues.c ****   return (msg_t)b;
 920               		.loc 1 332 3 view .LVU219
 921               		.loc 1 332 10 is_stmt 0 view .LVU220
 922 0088 D0E0      		ldi r29,0
 333:../../os/hal/src/hal_queues.c **** }
 923               		.loc 1 333 1 view .LVU221
 924 008a CE01      		movw r24,r28
 925               	/* epilogue start */
 926 008c DF91      		pop r29
 927 008e CF91      		pop r28
 928               	.LVL62:
 929               		.loc 1 333 1 view .LVU222
 930 0090 1F91      		pop r17
 931 0092 0F91      		pop r16
 932               	.LVL63:
 933               		.loc 1 333 1 view .LVU223
 934 0094 FF90      		pop r15
 935 0096 EF90      		pop r14
 936               	.LVL64:
 937               		.loc 1 333 1 view .LVU224
 938 0098 0895      		ret
 939               	.LVL65:
 940               	.L43:
 941               	.LBB112:
 313:../../os/hal/src/hal_queues.c ****       return msg;
 942               		.loc 1 313 7 is_stmt 1 view .LVU225
 943               	.LBB106:
 944               	.LBI106:
 584:../../os/hal/osal/rt-nil/osal.h **** 
 945               		.loc 2 584 20 view .LVU226
 586:../../os/hal/osal/rt-nil/osal.h **** }
 946               		.loc 2 586 3 view .LVU227
 586:../../os/hal/osal/rt-nil/osal.h **** }
 947               		.loc 2 586 3 view .LVU228
 948               	.LBB107:
 949               	.LBI107:
 438:../../os/common/ports/AVR/chcore.h **** 
 950               		.loc 3 438 20 view .LVU229
 951               	.LBB108:
 952               		.loc 3 440 3 view .LVU230
 953               	/* #APP */
 954               	 ;  440 "../../os/common/ports/AVR/chcore.h" 1
 955 009a 7894      		sei
 956               	 ;  0 "" 2
 957               	/* #NOAPP */
 958               	.LBE108:
 959               	.LBE107:
 586:../../os/hal/osal/rt-nil/osal.h **** }
 960               		.loc 2 586 16 discriminator 1 view .LVU231
 961               	.LBE106:
 314:../../os/hal/src/hal_queues.c ****     }
 962               		.loc 1 314 7 view .LVU232
 963               	.LBE112:
 964               		.loc 1 333 1 is_stmt 0 view .LVU233
 965 009c CE01      		movw r24,r28
 966               	.LVL66:
 967               	/* epilogue start */
 968               		.loc 1 333 1 view .LVU234
 969 009e DF91      		pop r29
 970 00a0 CF91      		pop r28
 971               	.LVL67:
 972               		.loc 1 333 1 view .LVU235
 973 00a2 1F91      		pop r17
 974 00a4 0F91      		pop r16
 975               	.LVL68:
 976               		.loc 1 333 1 view .LVU236
 977 00a6 FF90      		pop r15
 978 00a8 EF90      		pop r14
 979               	.LVL69:
 980               		.loc 1 333 1 view .LVU237
 981 00aa 0895      		ret
 982               		.cfi_endproc
 983               	.LFE152:
 985               		.section	.text.iqReadI,"ax",@progbits
 986               	.global	iqReadI
 988               	iqReadI:
 989               	.LVL70:
 990               	.LFB153:
 334:../../os/hal/src/hal_queues.c **** 
 335:../../os/hal/src/hal_queues.c **** /**
 336:../../os/hal/src/hal_queues.c ****  * @brief   Input queue non-blocking read.
 337:../../os/hal/src/hal_queues.c ****  * @details The function reads data from an input queue into a buffer. The
 338:../../os/hal/src/hal_queues.c ****  *          operation completes immediately.
 339:../../os/hal/src/hal_queues.c ****  *
 340:../../os/hal/src/hal_queues.c ****  * @param[in] iqp       pointer to an @p input_queue_t structure
 341:../../os/hal/src/hal_queues.c ****  * @param[out] bp       pointer to the data buffer
 342:../../os/hal/src/hal_queues.c ****  * @param[in] n         the maximum amount of data to be transferred, the
 343:../../os/hal/src/hal_queues.c ****  *                      value 0 is reserved
 344:../../os/hal/src/hal_queues.c ****  * @return              The number of bytes effectively transferred.
 345:../../os/hal/src/hal_queues.c ****  *
 346:../../os/hal/src/hal_queues.c ****  * @iclass
 347:../../os/hal/src/hal_queues.c ****  */
 348:../../os/hal/src/hal_queues.c **** size_t iqReadI(input_queue_t *iqp, uint8_t *bp, size_t n) {
 991               		.loc 1 348 59 is_stmt 1 view -0
 992               		.cfi_startproc
 993               		.loc 1 348 59 is_stmt 0 view .LVU239
 994 0000 EF92      		push r14
 995               	.LCFI29:
 996               		.cfi_def_cfa_offset 3
 997               		.cfi_offset 14, -2
 998 0002 FF92      		push r15
 999               	.LCFI30:
 1000               		.cfi_def_cfa_offset 4
 1001               		.cfi_offset 15, -3
 1002 0004 0F93      		push r16
 1003               	.LCFI31:
 1004               		.cfi_def_cfa_offset 5
 1005               		.cfi_offset 16, -4
 1006 0006 1F93      		push r17
 1007               	.LCFI32:
 1008               		.cfi_def_cfa_offset 6
 1009               		.cfi_offset 17, -5
 1010 0008 CF93      		push r28
 1011               	.LCFI33:
 1012               		.cfi_def_cfa_offset 7
 1013               		.cfi_offset 28, -6
 1014 000a DF93      		push r29
 1015               	.LCFI34:
 1016               		.cfi_def_cfa_offset 8
 1017               		.cfi_offset 29, -7
 1018               	/* prologue: function */
 1019               	/* frame size = 0 */
 1020               	/* stack size = 6 */
 1021               	.L__stack_usage = 6
 1022 000c EC01      		movw r28,r24
 349:../../os/hal/src/hal_queues.c ****   qnotify_t nfy = iqp->q_notify;
 1023               		.loc 1 349 3 is_stmt 1 view .LVU240
 1024               		.loc 1 349 13 is_stmt 0 view .LVU241
 1025 000e EB84      		ldd r14,Y+11
 1026 0010 FC84      		ldd r15,Y+12
 1027               	.LVL71:
 350:../../os/hal/src/hal_queues.c ****   size_t rd;
 1028               		.loc 1 350 3 is_stmt 1 view .LVU242
 351:../../os/hal/src/hal_queues.c **** 
 352:../../os/hal/src/hal_queues.c ****   osalDbgCheckClassI();
 1029               		.loc 1 352 23 view .LVU243
 353:../../os/hal/src/hal_queues.c **** 
 354:../../os/hal/src/hal_queues.c ****   rd = iq_read(iqp, bp, n);
 1030               		.loc 1 354 3 view .LVU244
 1031               		.loc 1 354 8 is_stmt 0 view .LVU245
 1032 0012 0E94 0000 		call iq_read
 1033               	.LVL72:
 1034               		.loc 1 354 8 view .LVU246
 1035 0016 8C01      		movw r16,r24
 1036               	.LVL73:
 355:../../os/hal/src/hal_queues.c **** 
 356:../../os/hal/src/hal_queues.c ****   /* Inform the low side that the queue has at least one character
 357:../../os/hal/src/hal_queues.c ****      available.*/
 358:../../os/hal/src/hal_queues.c ****   if ((rd > (size_t)0) && (nfy != NULL)) {
 1037               		.loc 1 358 3 is_stmt 1 view .LVU247
 1038               		.loc 1 358 6 is_stmt 0 view .LVU248
 1039 0018 892B      		or r24,r25
 1040 001a 01F0      		breq .L44
 1041               		.loc 1 358 24 discriminator 1 view .LVU249
 1042 001c E114      		cp r14,__zero_reg__
 1043 001e F104      		cpc r15,__zero_reg__
 1044 0020 01F0      		breq .L44
 359:../../os/hal/src/hal_queues.c ****     nfy(iqp);
 1045               		.loc 1 359 5 is_stmt 1 view .LVU250
 1046 0022 CE01      		movw r24,r28
 1047 0024 F701      		movw r30,r14
 1048 0026 0995      		icall
 1049               	.LVL74:
 360:../../os/hal/src/hal_queues.c ****   }
 361:../../os/hal/src/hal_queues.c **** 
 362:../../os/hal/src/hal_queues.c ****   return rd;
 1050               		.loc 1 362 3 view .LVU251
 1051               	.L44:
 363:../../os/hal/src/hal_queues.c **** }
 1052               		.loc 1 363 1 is_stmt 0 view .LVU252
 1053 0028 C801      		movw r24,r16
 1054               	/* epilogue start */
 1055 002a DF91      		pop r29
 1056 002c CF91      		pop r28
 1057               	.LVL75:
 1058               		.loc 1 363 1 view .LVU253
 1059 002e 1F91      		pop r17
 1060 0030 0F91      		pop r16
 1061               	.LVL76:
 1062               		.loc 1 363 1 view .LVU254
 1063 0032 FF90      		pop r15
 1064 0034 EF90      		pop r14
 1065               	.LVL77:
 1066               		.loc 1 363 1 view .LVU255
 1067 0036 0895      		ret
 1068               		.cfi_endproc
 1069               	.LFE153:
 1071               		.section	.text.iqReadTimeout,"ax",@progbits
 1072               	.global	iqReadTimeout
 1074               	iqReadTimeout:
 1075               	.LVL78:
 1076               	.LFB154:
 364:../../os/hal/src/hal_queues.c **** 
 365:../../os/hal/src/hal_queues.c **** /**
 366:../../os/hal/src/hal_queues.c ****  * @brief   Input queue read with timeout.
 367:../../os/hal/src/hal_queues.c ****  * @details The function reads data from an input queue into a buffer. The
 368:../../os/hal/src/hal_queues.c ****  *          operation completes when the specified amount of data has been
 369:../../os/hal/src/hal_queues.c ****  *          transferred or after the specified timeout or if the queue has
 370:../../os/hal/src/hal_queues.c ****  *          been reset.
 371:../../os/hal/src/hal_queues.c ****  * @note    The function is not atomic, if you need atomicity it is suggested
 372:../../os/hal/src/hal_queues.c ****  *          to use a semaphore or a mutex for mutual exclusion.
 373:../../os/hal/src/hal_queues.c ****  * @note    The callback is invoked after removing each character from the
 374:../../os/hal/src/hal_queues.c ****  *          queue.
 375:../../os/hal/src/hal_queues.c ****  *
 376:../../os/hal/src/hal_queues.c ****  * @param[in] iqp       pointer to an @p input_queue_t structure
 377:../../os/hal/src/hal_queues.c ****  * @param[out] bp       pointer to the data buffer
 378:../../os/hal/src/hal_queues.c ****  * @param[in] n         the maximum amount of data to be transferred, the
 379:../../os/hal/src/hal_queues.c ****  *                      value 0 is reserved
 380:../../os/hal/src/hal_queues.c ****  * @param[in] timeout   the number of ticks before the operation timeouts,
 381:../../os/hal/src/hal_queues.c ****  *                      the following special values are allowed:
 382:../../os/hal/src/hal_queues.c ****  *                      - @a TIME_IMMEDIATE immediate timeout.
 383:../../os/hal/src/hal_queues.c ****  *                      - @a TIME_INFINITE no timeout.
 384:../../os/hal/src/hal_queues.c ****  *                      .
 385:../../os/hal/src/hal_queues.c ****  * @return              The number of bytes effectively transferred.
 386:../../os/hal/src/hal_queues.c ****  *
 387:../../os/hal/src/hal_queues.c ****  * @api
 388:../../os/hal/src/hal_queues.c ****  */
 389:../../os/hal/src/hal_queues.c **** size_t iqReadTimeout(input_queue_t *iqp, uint8_t *bp,
 390:../../os/hal/src/hal_queues.c ****                      size_t n, sysinterval_t timeout) {
 1077               		.loc 1 390 55 is_stmt 1 view -0
 1078               		.cfi_startproc
 1079               		.loc 1 390 55 is_stmt 0 view .LVU257
 1080 0000 6F92      		push r6
 1081               	.LCFI35:
 1082               		.cfi_def_cfa_offset 3
 1083               		.cfi_offset 6, -2
 1084 0002 7F92      		push r7
 1085               	.LCFI36:
 1086               		.cfi_def_cfa_offset 4
 1087               		.cfi_offset 7, -3
 1088 0004 8F92      		push r8
 1089               	.LCFI37:
 1090               		.cfi_def_cfa_offset 5
 1091               		.cfi_offset 8, -4
 1092 0006 9F92      		push r9
 1093               	.LCFI38:
 1094               		.cfi_def_cfa_offset 6
 1095               		.cfi_offset 9, -5
 1096 0008 AF92      		push r10
 1097               	.LCFI39:
 1098               		.cfi_def_cfa_offset 7
 1099               		.cfi_offset 10, -6
 1100 000a BF92      		push r11
 1101               	.LCFI40:
 1102               		.cfi_def_cfa_offset 8
 1103               		.cfi_offset 11, -7
 1104 000c CF92      		push r12
 1105               	.LCFI41:
 1106               		.cfi_def_cfa_offset 9
 1107               		.cfi_offset 12, -8
 1108 000e DF92      		push r13
 1109               	.LCFI42:
 1110               		.cfi_def_cfa_offset 10
 1111               		.cfi_offset 13, -9
 1112 0010 EF92      		push r14
 1113               	.LCFI43:
 1114               		.cfi_def_cfa_offset 11
 1115               		.cfi_offset 14, -10
 1116 0012 FF92      		push r15
 1117               	.LCFI44:
 1118               		.cfi_def_cfa_offset 12
 1119               		.cfi_offset 15, -11
 1120 0014 0F93      		push r16
 1121               	.LCFI45:
 1122               		.cfi_def_cfa_offset 13
 1123               		.cfi_offset 16, -12
 1124 0016 1F93      		push r17
 1125               	.LCFI46:
 1126               		.cfi_def_cfa_offset 14
 1127               		.cfi_offset 17, -13
 1128 0018 CF93      		push r28
 1129               	.LCFI47:
 1130               		.cfi_def_cfa_offset 15
 1131               		.cfi_offset 28, -14
 1132 001a DF93      		push r29
 1133               	.LCFI48:
 1134               		.cfi_def_cfa_offset 16
 1135               		.cfi_offset 29, -15
 1136               	/* prologue: function */
 1137               	/* frame size = 0 */
 1138               	/* stack size = 14 */
 1139               	.L__stack_usage = 14
 1140 001c 6C01      		movw r12,r24
 1141 001e 7B01      		movw r14,r22
 1142 0020 4A01      		movw r8,r20
 1143 0022 722E      		mov r7,r18
 1144 0024 632E      		mov r6,r19
 391:../../os/hal/src/hal_queues.c ****   qnotify_t nfy = iqp->q_notify;
 1145               		.loc 1 391 3 is_stmt 1 view .LVU258
 1146               		.loc 1 391 13 is_stmt 0 view .LVU259
 1147 0026 FC01      		movw r30,r24
 1148 0028 A384      		ldd r10,Z+11
 1149 002a B484      		ldd r11,Z+12
 1150               	.LVL79:
 392:../../os/hal/src/hal_queues.c ****   size_t max = n;
 1151               		.loc 1 392 3 is_stmt 1 view .LVU260
 393:../../os/hal/src/hal_queues.c **** 
 394:../../os/hal/src/hal_queues.c ****   osalDbgCheck(n > 0U);
 1152               		.loc 1 394 3 view .LVU261
 1153               		.loc 1 394 3 view .LVU262
 1154               		.loc 1 394 3 discriminator 5 view .LVU263
 395:../../os/hal/src/hal_queues.c **** 
 396:../../os/hal/src/hal_queues.c ****   osalSysLock();
 1155               		.loc 1 396 3 view .LVU264
 1156               	.LBB113:
 1157               	.LBI113:
 573:../../os/hal/osal/rt-nil/osal.h **** 
 1158               		.loc 2 573 20 view .LVU265
 575:../../os/hal/osal/rt-nil/osal.h **** }
 1159               		.loc 2 575 3 view .LVU266
 1160               	.LBB114:
 1161               	.LBI114:
 428:../../os/common/ports/AVR/chcore.h **** 
 1162               		.loc 3 428 20 view .LVU267
 1163               	.LBB115:
 430:../../os/common/ports/AVR/chcore.h **** }
 1164               		.loc 3 430 3 view .LVU268
 1165               	/* #APP */
 1166               	 ;  430 "../../os/common/ports/AVR/chcore.h" 1
 1167 002c F894      		cli
 1168               	 ;  0 "" 2
 1169               	/* #NOAPP */
 1170               	.LBE115:
 1171               	.LBE114:
 575:../../os/hal/osal/rt-nil/osal.h **** }
 1172               		.loc 2 575 3 discriminator 1 view .LVU269
 575:../../os/hal/osal/rt-nil/osal.h **** }
 1173               		.loc 2 575 14 discriminator 1 view .LVU270
 1174               	.LBE113:
 397:../../os/hal/src/hal_queues.c **** 
 398:../../os/hal/src/hal_queues.c ****   while (n > 0U) {
 1175               		.loc 1 398 3 view .LVU271
 1176               		.loc 1 398 12 view .LVU272
 1177 002e 8A01      		movw r16,r20
 1178 0030 452B      		or r20,r21
 1179 0032 01F0      		breq .L58
 1180               	.LVL80:
 1181               	.L53:
 1182               	.LBB116:
 399:../../os/hal/src/hal_queues.c ****     size_t done;
 1183               		.loc 1 399 5 view .LVU273
 400:../../os/hal/src/hal_queues.c **** 
 401:../../os/hal/src/hal_queues.c ****     done = iq_read(iqp, bp, n);
 1184               		.loc 1 401 5 view .LVU274
 1185               		.loc 1 401 12 is_stmt 0 view .LVU275
 1186 0034 A801      		movw r20,r16
 1187 0036 B701      		movw r22,r14
 1188 0038 C601      		movw r24,r12
 1189 003a 0E94 0000 		call iq_read
 1190               	.LVL81:
 1191 003e EC01      		movw r28,r24
 1192               	.LVL82:
 402:../../os/hal/src/hal_queues.c ****     if (done == (size_t)0) {
 1193               		.loc 1 402 5 is_stmt 1 view .LVU276
 1194               		.loc 1 402 8 is_stmt 0 view .LVU277
 1195 0040 892B      		or r24,r25
 1196 0042 01F0      		breq .L69
 403:../../os/hal/src/hal_queues.c ****       msg_t msg = osalThreadEnqueueTimeoutS(&iqp->q_waiting, timeout);
 404:../../os/hal/src/hal_queues.c **** 
 405:../../os/hal/src/hal_queues.c ****       /* Anything except MSG_OK causes the operation to stop.*/
 406:../../os/hal/src/hal_queues.c ****       if (msg != MSG_OK) {
 407:../../os/hal/src/hal_queues.c ****         break;
 408:../../os/hal/src/hal_queues.c ****       }
 409:../../os/hal/src/hal_queues.c ****     }
 410:../../os/hal/src/hal_queues.c ****     else {
 411:../../os/hal/src/hal_queues.c ****       /* Inform the low side that the queue has at least one empty slot
 412:../../os/hal/src/hal_queues.c ****          available.*/
 413:../../os/hal/src/hal_queues.c ****       if (nfy != NULL) {
 1197               		.loc 1 413 7 is_stmt 1 view .LVU278
 1198               		.loc 1 413 10 is_stmt 0 view .LVU279
 1199 0044 A114      		cp r10,__zero_reg__
 1200 0046 B104      		cpc r11,__zero_reg__
 1201 0048 01F0      		breq .L57
 414:../../os/hal/src/hal_queues.c ****         nfy(iqp);
 1202               		.loc 1 414 9 is_stmt 1 view .LVU280
 1203 004a C601      		movw r24,r12
 1204               	.LVL83:
 1205               		.loc 1 414 9 is_stmt 0 view .LVU281
 1206 004c F501      		movw r30,r10
 1207 004e 0995      		icall
 1208               	.LVL84:
 1209               	.L57:
 415:../../os/hal/src/hal_queues.c ****       }
 416:../../os/hal/src/hal_queues.c **** 
 417:../../os/hal/src/hal_queues.c ****       /* Giving a preemption chance in a controlled point.*/
 418:../../os/hal/src/hal_queues.c ****       osalSysUnlock();
 1210               		.loc 1 418 7 is_stmt 1 view .LVU282
 1211               	.LBB117:
 1212               	.LBI117:
 584:../../os/hal/osal/rt-nil/osal.h **** 
 1213               		.loc 2 584 20 view .LVU283
 586:../../os/hal/osal/rt-nil/osal.h **** }
 1214               		.loc 2 586 3 view .LVU284
 586:../../os/hal/osal/rt-nil/osal.h **** }
 1215               		.loc 2 586 3 view .LVU285
 1216               	.LBB118:
 1217               	.LBI118:
 438:../../os/common/ports/AVR/chcore.h **** 
 1218               		.loc 3 438 20 view .LVU286
 1219               	.LBB119:
 1220               		.loc 3 440 3 view .LVU287
 1221               	/* #APP */
 1222               	 ;  440 "../../os/common/ports/AVR/chcore.h" 1
 1223 0050 7894      		sei
 1224               	 ;  0 "" 2
 1225               	/* #NOAPP */
 1226               	.LBE119:
 1227               	.LBE118:
 586:../../os/hal/osal/rt-nil/osal.h **** }
 1228               		.loc 2 586 16 discriminator 1 view .LVU288
 1229               	.LBE117:
 419:../../os/hal/src/hal_queues.c **** 
 420:../../os/hal/src/hal_queues.c ****       n  -= done;
 1230               		.loc 1 420 7 view .LVU289
 1231               		.loc 1 420 10 is_stmt 0 view .LVU290
 1232 0052 0C1B      		sub r16,r28
 1233 0054 1D0B      		sbc r17,r29
 1234               	.LVL85:
 421:../../os/hal/src/hal_queues.c ****       bp += done;
 1235               		.loc 1 421 7 is_stmt 1 view .LVU291
 1236               		.loc 1 421 10 is_stmt 0 view .LVU292
 1237 0056 EC0E      		add r14,r28
 1238 0058 FD1E      		adc r15,r29
 1239               	.LVL86:
 422:../../os/hal/src/hal_queues.c **** 
 423:../../os/hal/src/hal_queues.c ****       osalSysLock();
 1240               		.loc 1 423 7 is_stmt 1 view .LVU293
 1241               	.LBB120:
 1242               	.LBI120:
 573:../../os/hal/osal/rt-nil/osal.h **** 
 1243               		.loc 2 573 20 view .LVU294
 575:../../os/hal/osal/rt-nil/osal.h **** }
 1244               		.loc 2 575 3 view .LVU295
 1245               	.LBB121:
 1246               	.LBI121:
 428:../../os/common/ports/AVR/chcore.h **** 
 1247               		.loc 3 428 20 view .LVU296
 1248               	.LBB122:
 430:../../os/common/ports/AVR/chcore.h **** }
 1249               		.loc 3 430 3 view .LVU297
 1250               	/* #APP */
 1251               	 ;  430 "../../os/common/ports/AVR/chcore.h" 1
 1252 005a F894      		cli
 1253               	 ;  0 "" 2
 1254               	/* #NOAPP */
 1255               	.LBE122:
 1256               	.LBE121:
 575:../../os/hal/osal/rt-nil/osal.h **** }
 1257               		.loc 2 575 3 discriminator 1 view .LVU298
 575:../../os/hal/osal/rt-nil/osal.h **** }
 1258               		.loc 2 575 14 discriminator 1 view .LVU299
 575:../../os/hal/osal/rt-nil/osal.h **** }
 1259               		.loc 2 575 14 is_stmt 0 discriminator 1 view .LVU300
 1260               	.LBE120:
 1261               	.LBE116:
 398:../../os/hal/src/hal_queues.c ****     size_t done;
 1262               		.loc 1 398 12 is_stmt 1 view .LVU301
 1263 005c 0115      		cp r16,__zero_reg__
 1264 005e 1105      		cpc r17,__zero_reg__
 1265 0060 01F4      		brne .L53
 1266               	.LVL87:
 1267               	.L58:
 398:../../os/hal/src/hal_queues.c ****     size_t done;
 1268               		.loc 1 398 12 is_stmt 0 view .LVU302
 1269 0062 C401      		movw r24,r8
 1270               	.L54:
 424:../../os/hal/src/hal_queues.c ****     }
 425:../../os/hal/src/hal_queues.c ****   }
 426:../../os/hal/src/hal_queues.c **** 
 427:../../os/hal/src/hal_queues.c ****   osalSysUnlock();
 1271               		.loc 1 427 3 is_stmt 1 view .LVU303
 1272               	.LBB126:
 1273               	.LBI126:
 584:../../os/hal/osal/rt-nil/osal.h **** 
 1274               		.loc 2 584 20 view .LVU304
 586:../../os/hal/osal/rt-nil/osal.h **** }
 1275               		.loc 2 586 3 view .LVU305
 586:../../os/hal/osal/rt-nil/osal.h **** }
 1276               		.loc 2 586 3 view .LVU306
 1277               	.LBB127:
 1278               	.LBI127:
 438:../../os/common/ports/AVR/chcore.h **** 
 1279               		.loc 3 438 20 view .LVU307
 1280               	.LBB128:
 1281               		.loc 3 440 3 view .LVU308
 1282               	/* #APP */
 1283               	 ;  440 "../../os/common/ports/AVR/chcore.h" 1
 1284 0064 7894      		sei
 1285               	 ;  0 "" 2
 1286               	/* #NOAPP */
 1287               	.LBE128:
 1288               	.LBE127:
 586:../../os/hal/osal/rt-nil/osal.h **** }
 1289               		.loc 2 586 16 discriminator 1 view .LVU309
 1290               	.LBE126:
 428:../../os/hal/src/hal_queues.c ****   return max - n;
 1291               		.loc 1 428 3 view .LVU310
 1292               	/* epilogue start */
 429:../../os/hal/src/hal_queues.c **** }
 1293               		.loc 1 429 1 is_stmt 0 view .LVU311
 1294 0066 DF91      		pop r29
 1295 0068 CF91      		pop r28
 1296 006a 1F91      		pop r17
 1297 006c 0F91      		pop r16
 1298               	.LVL88:
 1299               		.loc 1 429 1 view .LVU312
 1300 006e FF90      		pop r15
 1301 0070 EF90      		pop r14
 1302               	.LVL89:
 1303               		.loc 1 429 1 view .LVU313
 1304 0072 DF90      		pop r13
 1305 0074 CF90      		pop r12
 1306               	.LVL90:
 1307               		.loc 1 429 1 view .LVU314
 1308 0076 BF90      		pop r11
 1309 0078 AF90      		pop r10
 1310               	.LVL91:
 1311               		.loc 1 429 1 view .LVU315
 1312 007a 9F90      		pop r9
 1313 007c 8F90      		pop r8
 1314               	.LVL92:
 1315               		.loc 1 429 1 view .LVU316
 1316 007e 7F90      		pop r7
 1317 0080 6F90      		pop r6
 1318 0082 0895      		ret
 1319               	.LVL93:
 1320               	.L69:
 1321               	.LBB129:
 1322               	.LBB123:
 403:../../os/hal/src/hal_queues.c **** 
 1323               		.loc 1 403 7 is_stmt 1 view .LVU317
 1324               	.LBB124:
 1325               	.LBI124:
 892:../../os/hal/osal/rt-nil/osal.h ****                                               sysinterval_t timeout) {
 1326               		.loc 2 892 21 view .LVU318
 1327               	.LBB125:
 895:../../os/hal/osal/rt-nil/osal.h **** }
 1328               		.loc 2 895 3 view .LVU319
 895:../../os/hal/osal/rt-nil/osal.h **** }
 1329               		.loc 2 895 10 is_stmt 0 view .LVU320
 1330 0084 672D      		mov r22,r7
 1331 0086 762D      		mov r23,r6
 1332 0088 C601      		movw r24,r12
 1333               	.LVL94:
 895:../../os/hal/osal/rt-nil/osal.h **** }
 1334               		.loc 2 895 10 view .LVU321
 1335 008a 0E94 0000 		call chThdEnqueueTimeoutS
 1336               	.LVL95:
 895:../../os/hal/osal/rt-nil/osal.h **** }
 1337               		.loc 2 895 10 view .LVU322
 1338               	.LBE125:
 1339               	.LBE124:
 406:../../os/hal/src/hal_queues.c ****         break;
 1340               		.loc 1 406 7 is_stmt 1 view .LVU323
 406:../../os/hal/src/hal_queues.c ****         break;
 1341               		.loc 1 406 10 is_stmt 0 view .LVU324
 1342 008e 892B      		or r24,r25
 1343 0090 01F0      		breq .L53
 1344               	.LBE123:
 1345               	.LBE129:
 428:../../os/hal/src/hal_queues.c **** }
 1346               		.loc 1 428 14 view .LVU325
 1347 0092 C401      		movw r24,r8
 1348               	.LVL96:
 428:../../os/hal/src/hal_queues.c **** }
 1349               		.loc 1 428 14 view .LVU326
 1350 0094 801B      		sub r24,r16
 1351 0096 910B      		sbc r25,r17
 1352 0098 00C0      		rjmp .L54
 1353               		.cfi_endproc
 1354               	.LFE154:
 1356               		.section	.text.oqObjectInit,"ax",@progbits
 1357               	.global	oqObjectInit
 1359               	oqObjectInit:
 1360               	.LVL97:
 1361               	.LFB155:
 430:../../os/hal/src/hal_queues.c **** 
 431:../../os/hal/src/hal_queues.c **** /**
 432:../../os/hal/src/hal_queues.c ****  * @brief   Initializes an output queue.
 433:../../os/hal/src/hal_queues.c ****  * @details A Semaphore is internally initialized and works as a counter of
 434:../../os/hal/src/hal_queues.c ****  *          the free bytes in the queue.
 435:../../os/hal/src/hal_queues.c ****  * @note    The callback is invoked from within the S-Locked system state.
 436:../../os/hal/src/hal_queues.c ****  *
 437:../../os/hal/src/hal_queues.c ****  * @param[out] oqp      pointer to an @p output_queue_t structure
 438:../../os/hal/src/hal_queues.c ****  * @param[in] bp        pointer to a memory area allocated as queue buffer
 439:../../os/hal/src/hal_queues.c ****  * @param[in] size      size of the queue buffer
 440:../../os/hal/src/hal_queues.c ****  * @param[in] onfy      pointer to a callback function that is invoked when
 441:../../os/hal/src/hal_queues.c ****  *                      data is written to the queue. The value can be @p NULL.
 442:../../os/hal/src/hal_queues.c ****  * @param[in] link      application defined pointer
 443:../../os/hal/src/hal_queues.c ****  *
 444:../../os/hal/src/hal_queues.c ****  * @init
 445:../../os/hal/src/hal_queues.c ****  */
 446:../../os/hal/src/hal_queues.c **** void oqObjectInit(output_queue_t *oqp, uint8_t *bp, size_t size,
 447:../../os/hal/src/hal_queues.c ****                   qnotify_t onfy, void *link) {
 1362               		.loc 1 447 47 is_stmt 1 view -0
 1363               		.cfi_startproc
 1364               		.loc 1 447 47 is_stmt 0 view .LVU328
 1365 0000 0F93      		push r16
 1366               	.LCFI49:
 1367               		.cfi_def_cfa_offset 3
 1368               		.cfi_offset 16, -2
 1369 0002 1F93      		push r17
 1370               	.LCFI50:
 1371               		.cfi_def_cfa_offset 4
 1372               		.cfi_offset 17, -3
 1373 0004 CF93      		push r28
 1374               	.LCFI51:
 1375               		.cfi_def_cfa_offset 5
 1376               		.cfi_offset 28, -4
 1377 0006 DF93      		push r29
 1378               	.LCFI52:
 1379               		.cfi_def_cfa_offset 6
 1380               		.cfi_offset 29, -5
 1381               	/* prologue: function */
 1382               	/* frame size = 0 */
 1383               	/* stack size = 4 */
 1384               	.L__stack_usage = 4
 1385 0008 FC01      		movw r30,r24
 1386 000a DB01      		movw r26,r22
 448:../../os/hal/src/hal_queues.c **** 
 449:../../os/hal/src/hal_queues.c ****   osalThreadQueueObjectInit(&oqp->q_waiting);
 1387               		.loc 1 449 3 is_stmt 1 view .LVU329
 1388               	.LVL98:
 1389               	.LBB130:
 1390               	.LBI130:
 864:../../os/hal/osal/rt-nil/osal.h **** 
 1391               		.loc 2 864 20 view .LVU330
 1392               	.LBB131:
 866:../../os/hal/osal/rt-nil/osal.h **** }
 1393               		.loc 2 866 3 view .LVU331
 1394 000c 1082      		st Z,__zero_reg__
 1395               	.LVL99:
 866:../../os/hal/osal/rt-nil/osal.h **** }
 1396               		.loc 2 866 3 is_stmt 0 view .LVU332
 1397               	.LBE131:
 1398               	.LBE130:
 450:../../os/hal/src/hal_queues.c ****   oqp->q_counter = size;
 1399               		.loc 1 450 3 is_stmt 1 view .LVU333
 1400               		.loc 1 450 18 is_stmt 0 view .LVU334
 1401 000e 5283      		std Z+2,r21
 1402 0010 4183      		std Z+1,r20
 451:../../os/hal/src/hal_queues.c ****   oqp->q_buffer  = bp;
 1403               		.loc 1 451 3 is_stmt 1 view .LVU335
 1404               		.loc 1 451 18 is_stmt 0 view .LVU336
 1405 0012 7483      		std Z+4,r23
 1406 0014 6383      		std Z+3,r22
 452:../../os/hal/src/hal_queues.c ****   oqp->q_rdptr   = bp;
 1407               		.loc 1 452 3 is_stmt 1 view .LVU337
 1408               		.loc 1 452 18 is_stmt 0 view .LVU338
 1409 0016 7287      		std Z+10,r23
 1410 0018 6187      		std Z+9,r22
 453:../../os/hal/src/hal_queues.c ****   oqp->q_wrptr   = bp;
 1411               		.loc 1 453 3 is_stmt 1 view .LVU339
 1412               		.loc 1 453 18 is_stmt 0 view .LVU340
 1413 001a 7087      		std Z+8,r23
 1414 001c 6783      		std Z+7,r22
 454:../../os/hal/src/hal_queues.c ****   oqp->q_top     = bp + size;
 1415               		.loc 1 454 3 is_stmt 1 view .LVU341
 1416               		.loc 1 454 23 is_stmt 0 view .LVU342
 1417 001e A40F      		add r26,r20
 1418 0020 B51F      		adc r27,r21
 1419               		.loc 1 454 18 view .LVU343
 1420 0022 B683      		std Z+6,r27
 1421 0024 A583      		std Z+5,r26
 455:../../os/hal/src/hal_queues.c ****   oqp->q_notify  = onfy;
 1422               		.loc 1 455 3 is_stmt 1 view .LVU344
 1423               		.loc 1 455 18 is_stmt 0 view .LVU345
 1424 0026 3487      		std Z+12,r19
 1425 0028 2387      		std Z+11,r18
 456:../../os/hal/src/hal_queues.c ****   oqp->q_link    = link;
 1426               		.loc 1 456 3 is_stmt 1 view .LVU346
 1427               		.loc 1 456 18 is_stmt 0 view .LVU347
 1428 002a 1687      		std Z+14,r17
 1429 002c 0587      		std Z+13,r16
 1430               	/* epilogue start */
 457:../../os/hal/src/hal_queues.c **** }
 1431               		.loc 1 457 1 view .LVU348
 1432 002e DF91      		pop r29
 1433 0030 CF91      		pop r28
 1434 0032 1F91      		pop r17
 1435 0034 0F91      		pop r16
 1436               	.LVL100:
 1437               		.loc 1 457 1 view .LVU349
 1438 0036 0895      		ret
 1439               		.cfi_endproc
 1440               	.LFE155:
 1442               		.section	.text.oqResetI,"ax",@progbits
 1443               	.global	oqResetI
 1445               	oqResetI:
 1446               	.LVL101:
 1447               	.LFB156:
 458:../../os/hal/src/hal_queues.c **** 
 459:../../os/hal/src/hal_queues.c **** /**
 460:../../os/hal/src/hal_queues.c ****  * @brief   Resets an output queue.
 461:../../os/hal/src/hal_queues.c ****  * @details All the data in the output queue is erased and lost, any waiting
 462:../../os/hal/src/hal_queues.c ****  *          thread is resumed with status @p MSG_RESET.
 463:../../os/hal/src/hal_queues.c ****  * @note    A reset operation can be used by a low level driver in order to
 464:../../os/hal/src/hal_queues.c ****  *          obtain immediate attention from the high level layers.
 465:../../os/hal/src/hal_queues.c ****  *
 466:../../os/hal/src/hal_queues.c ****  * @param[in] oqp       pointer to an @p output_queue_t structure
 467:../../os/hal/src/hal_queues.c ****  *
 468:../../os/hal/src/hal_queues.c ****  * @iclass
 469:../../os/hal/src/hal_queues.c ****  */
 470:../../os/hal/src/hal_queues.c **** void oqResetI(output_queue_t *oqp) {
 1448               		.loc 1 470 36 is_stmt 1 view -0
 1449               		.cfi_startproc
 1450               	/* prologue: function */
 1451               	/* frame size = 0 */
 1452               	/* stack size = 0 */
 1453               	.L__stack_usage = 0
 1454               		.loc 1 470 36 is_stmt 0 view .LVU351
 1455 0000 FC01      		movw r30,r24
 471:../../os/hal/src/hal_queues.c **** 
 472:../../os/hal/src/hal_queues.c ****   osalDbgCheckClassI();
 1456               		.loc 1 472 23 is_stmt 1 view .LVU352
 473:../../os/hal/src/hal_queues.c **** 
 474:../../os/hal/src/hal_queues.c ****   oqp->q_rdptr = oqp->q_buffer;
 1457               		.loc 1 474 3 view .LVU353
 1458               		.loc 1 474 21 is_stmt 0 view .LVU354
 1459 0002 2381      		ldd r18,Z+3
 1460 0004 3481      		ldd r19,Z+4
 1461               		.loc 1 474 16 view .LVU355
 1462 0006 3287      		std Z+10,r19
 1463 0008 2187      		std Z+9,r18
 475:../../os/hal/src/hal_queues.c ****   oqp->q_wrptr = oqp->q_buffer;
 1464               		.loc 1 475 3 is_stmt 1 view .LVU356
 1465               		.loc 1 475 16 is_stmt 0 view .LVU357
 1466 000a 3087      		std Z+8,r19
 1467 000c 2783      		std Z+7,r18
 476:../../os/hal/src/hal_queues.c ****   oqp->q_counter = qSizeX(oqp);
 1468               		.loc 1 476 3 is_stmt 1 view .LVU358
 1469               		.loc 1 476 20 is_stmt 0 view .LVU359
 1470 000e 8581      		ldd r24,Z+5
 1471 0010 9681      		ldd r25,Z+6
 1472               	.LVL102:
 1473               		.loc 1 476 20 view .LVU360
 1474 0012 821B      		sub r24,r18
 1475 0014 930B      		sbc r25,r19
 1476               		.loc 1 476 18 view .LVU361
 1477 0016 9283      		std Z+2,r25
 1478 0018 8183      		std Z+1,r24
 477:../../os/hal/src/hal_queues.c ****   osalThreadDequeueAllI(&oqp->q_waiting, MSG_RESET);
 1479               		.loc 1 477 3 is_stmt 1 view .LVU362
 1480               	.LVL103:
 1481               	.LBB132:
 1482               	.LBI132:
 919:../../os/hal/osal/rt-nil/osal.h **** 
 1483               		.loc 2 919 20 view .LVU363
 1484               	.LBB133:
 1485               		.loc 2 921 3 view .LVU364
 1486 001a 6EEF      		ldi r22,lo8(-2)
 1487 001c 7FEF      		ldi r23,lo8(-1)
 1488 001e CF01      		movw r24,r30
 1489 0020 0C94 0000 		jmp chThdDequeueAllI
 1490               	.LVL104:
 1491               		.loc 2 921 3 is_stmt 0 view .LVU365
 1492               	.LBE133:
 1493               	.LBE132:
 1494               		.cfi_endproc
 1495               	.LFE156:
 1497               		.section	.text.oqPutI,"ax",@progbits
 1498               	.global	oqPutI
 1500               	oqPutI:
 1501               	.LVL105:
 1502               	.LFB157:
 478:../../os/hal/src/hal_queues.c **** }
 479:../../os/hal/src/hal_queues.c **** 
 480:../../os/hal/src/hal_queues.c **** /**
 481:../../os/hal/src/hal_queues.c ****  * @brief   Output queue non-blocking write.
 482:../../os/hal/src/hal_queues.c ****  * @details This function writes a byte value to an output queue. The
 483:../../os/hal/src/hal_queues.c ****  *          operation completes immediately.
 484:../../os/hal/src/hal_queues.c ****  *
 485:../../os/hal/src/hal_queues.c ****  * @param[in] oqp       pointer to an @p output_queue_t structure
 486:../../os/hal/src/hal_queues.c ****  * @param[in] b         the byte value to be written in the queue
 487:../../os/hal/src/hal_queues.c ****  * @return              The operation status.
 488:../../os/hal/src/hal_queues.c ****  * @retval MSG_OK       if the operation succeeded.
 489:../../os/hal/src/hal_queues.c ****  * @retval MSG_TIMEOUT  if the queue is full.
 490:../../os/hal/src/hal_queues.c ****  * @retval MSG_RESET    if the queue has been reset.
 491:../../os/hal/src/hal_queues.c ****  *
 492:../../os/hal/src/hal_queues.c ****  * @iclass
 493:../../os/hal/src/hal_queues.c ****  */
 494:../../os/hal/src/hal_queues.c **** msg_t oqPutI(output_queue_t *oqp, uint8_t b) {
 1503               		.loc 1 494 46 is_stmt 1 view -0
 1504               		.cfi_startproc
 1505               	/* prologue: function */
 1506               	/* frame size = 0 */
 1507               	/* stack size = 0 */
 1508               	.L__stack_usage = 0
 1509               		.loc 1 494 46 is_stmt 0 view .LVU367
 1510 0000 DC01      		movw r26,r24
 495:../../os/hal/src/hal_queues.c **** 
 496:../../os/hal/src/hal_queues.c ****   osalDbgCheckClassI();
 1511               		.loc 1 496 23 is_stmt 1 view .LVU368
 497:../../os/hal/src/hal_queues.c **** 
 498:../../os/hal/src/hal_queues.c ****   /* Queue space check.*/
 499:../../os/hal/src/hal_queues.c ****   while (!oqIsFullI(oqp)) {
 1512               		.loc 1 499 3 view .LVU369
 1513               		.loc 1 499 10 view .LVU370
 1514               		.loc 1 499 11 is_stmt 0 view .LVU371
 1515 0002 1196      		adiw r26,1
 1516 0004 8D91      		ld r24,X+
 1517 0006 9C91      		ld r25,X
 1518 0008 1297      		sbiw r26,1+1
 1519               	.LVL106:
 1520               		.loc 1 499 10 view .LVU372
 1521 000a 892B      		or r24,r25
 1522 000c 01F0      		breq .L77
 500:../../os/hal/src/hal_queues.c ****     /* Putting the character into the queue.*/
 501:../../os/hal/src/hal_queues.c ****     oqp->q_counter--;
 1523               		.loc 1 501 5 is_stmt 1 view .LVU373
 1524               		.loc 1 501 8 is_stmt 0 view .LVU374
 1525 000e 1196      		adiw r26,1
 1526 0010 8D91      		ld r24,X+
 1527 0012 9C91      		ld r25,X
 1528 0014 1297      		sbiw r26,1+1
 1529               		.loc 1 501 19 view .LVU375
 1530 0016 0197      		sbiw r24,1
 1531 0018 1296      		adiw r26,1+1
 1532 001a 9C93      		st X,r25
 1533 001c 8E93      		st -X,r24
 1534 001e 1197      		sbiw r26,1
 502:../../os/hal/src/hal_queues.c ****     *oqp->q_wrptr++ = b;
 1535               		.loc 1 502 5 is_stmt 1 view .LVU376
 1536               		.loc 1 502 9 is_stmt 0 view .LVU377
 1537 0020 1796      		adiw r26,7
 1538 0022 ED91      		ld r30,X+
 1539 0024 FC91      		ld r31,X
 1540 0026 1897      		sbiw r26,7+1
 1541               		.loc 1 502 18 view .LVU378
 1542 0028 CF01      		movw r24,r30
 1543 002a 0196      		adiw r24,1
 1544 002c 1896      		adiw r26,7+1
 1545 002e 9C93      		st X,r25
 1546 0030 8E93      		st -X,r24
 1547 0032 1797      		sbiw r26,7
 1548               		.loc 1 502 21 view .LVU379
 1549 0034 6083      		st Z,r22
 503:../../os/hal/src/hal_queues.c ****     if (oqp->q_wrptr >= oqp->q_top) {
 1550               		.loc 1 503 5 is_stmt 1 view .LVU380
 1551               		.loc 1 503 8 is_stmt 0 view .LVU381
 1552 0036 1796      		adiw r26,7
 1553 0038 2D91      		ld r18,X+
 1554 003a 3C91      		ld r19,X
 1555 003c 1897      		sbiw r26,7+1
 1556 003e 1596      		adiw r26,5
 1557 0040 8D91      		ld r24,X+
 1558 0042 9C91      		ld r25,X
 1559 0044 1697      		sbiw r26,5+1
 1560 0046 2817      		cp r18,r24
 1561 0048 3907      		cpc r19,r25
 1562 004a 00F4      		brsh .L78
 1563               	.L74:
 504:../../os/hal/src/hal_queues.c ****       oqp->q_wrptr = oqp->q_buffer;
 505:../../os/hal/src/hal_queues.c ****     }
 506:../../os/hal/src/hal_queues.c **** 
 507:../../os/hal/src/hal_queues.c ****     /* Inform the low side that the queue has at least one character available.*/
 508:../../os/hal/src/hal_queues.c ****     if (oqp->q_notify != NULL) {
 1564               		.loc 1 508 5 is_stmt 1 view .LVU382
 1565               		.loc 1 508 12 is_stmt 0 view .LVU383
 1566 004c 1B96      		adiw r26,11
 1567 004e ED91      		ld r30,X+
 1568 0050 FC91      		ld r31,X
 1569 0052 1C97      		sbiw r26,11+1
 1570               		.loc 1 508 8 view .LVU384
 1571 0054 3097      		sbiw r30,0
 1572 0056 01F0      		breq .L76
 509:../../os/hal/src/hal_queues.c ****       oqp->q_notify(oqp);
 1573               		.loc 1 509 7 is_stmt 1 view .LVU385
 1574 0058 CD01      		movw r24,r26
 1575 005a 0995      		icall
 1576               	.LVL107:
 1577               	.L76:
 510:../../os/hal/src/hal_queues.c ****     }
 511:../../os/hal/src/hal_queues.c **** 
 512:../../os/hal/src/hal_queues.c ****     return MSG_OK;
 1578               		.loc 1 512 12 is_stmt 0 view .LVU386
 1579 005c 80E0      		ldi r24,0
 1580 005e 90E0      		ldi r25,0
 1581 0060 0895      		ret
 1582               	.LVL108:
 1583               	.L78:
 504:../../os/hal/src/hal_queues.c ****     }
 1584               		.loc 1 504 7 is_stmt 1 view .LVU387
 504:../../os/hal/src/hal_queues.c ****     }
 1585               		.loc 1 504 20 is_stmt 0 view .LVU388
 1586 0062 1396      		adiw r26,3
 1587 0064 8D91      		ld r24,X+
 1588 0066 9C91      		ld r25,X
 1589 0068 1497      		sbiw r26,3+1
 1590 006a 1896      		adiw r26,7+1
 1591 006c 9C93      		st X,r25
 1592 006e 8E93      		st -X,r24
 1593 0070 1797      		sbiw r26,7
 1594 0072 00C0      		rjmp .L74
 1595               	.L77:
 513:../../os/hal/src/hal_queues.c ****   }
 514:../../os/hal/src/hal_queues.c **** 
 515:../../os/hal/src/hal_queues.c ****   return MSG_TIMEOUT;
 1596               		.loc 1 515 10 view .LVU389
 1597 0074 8FEF      		ldi r24,lo8(-1)
 1598 0076 9FEF      		ldi r25,lo8(-1)
 1599               	/* epilogue start */
 516:../../os/hal/src/hal_queues.c **** }
 1600               		.loc 1 516 1 view .LVU390
 1601 0078 0895      		ret
 1602               		.cfi_endproc
 1603               	.LFE157:
 1605               		.section	.text.oqPutTimeout,"ax",@progbits
 1606               	.global	oqPutTimeout
 1608               	oqPutTimeout:
 1609               	.LVL109:
 1610               	.LFB158:
 517:../../os/hal/src/hal_queues.c **** 
 518:../../os/hal/src/hal_queues.c **** /**
 519:../../os/hal/src/hal_queues.c ****  * @brief   Output queue write with timeout.
 520:../../os/hal/src/hal_queues.c ****  * @details This function writes a byte value to an output queue. If the queue
 521:../../os/hal/src/hal_queues.c ****  *          is full then the calling thread is suspended until there is space
 522:../../os/hal/src/hal_queues.c ****  *          in the queue or a timeout occurs.
 523:../../os/hal/src/hal_queues.c ****  * @note    The callback is invoked after putting the character into the
 524:../../os/hal/src/hal_queues.c ****  *          queue.
 525:../../os/hal/src/hal_queues.c ****  *
 526:../../os/hal/src/hal_queues.c ****  * @param[in] oqp       pointer to an @p output_queue_t structure
 527:../../os/hal/src/hal_queues.c ****  * @param[in] b         the byte value to be written in the queue
 528:../../os/hal/src/hal_queues.c ****  * @param[in] timeout   the number of ticks before the operation timeouts,
 529:../../os/hal/src/hal_queues.c ****  *                      the following special values are allowed:
 530:../../os/hal/src/hal_queues.c ****  *                      - @a TIME_IMMEDIATE immediate timeout.
 531:../../os/hal/src/hal_queues.c ****  *                      - @a TIME_INFINITE no timeout.
 532:../../os/hal/src/hal_queues.c ****  *                      .
 533:../../os/hal/src/hal_queues.c ****  * @return              The operation status.
 534:../../os/hal/src/hal_queues.c ****  * @retval MSG_OK       if the operation succeeded.
 535:../../os/hal/src/hal_queues.c ****  * @retval MSG_TIMEOUT  if the specified time expired.
 536:../../os/hal/src/hal_queues.c ****  * @retval MSG_RESET    if the queue has been reset.
 537:../../os/hal/src/hal_queues.c ****  *
 538:../../os/hal/src/hal_queues.c ****  * @api
 539:../../os/hal/src/hal_queues.c ****  */
 540:../../os/hal/src/hal_queues.c **** msg_t oqPutTimeout(output_queue_t *oqp, uint8_t b, sysinterval_t timeout) {
 1611               		.loc 1 540 75 is_stmt 1 view -0
 1612               		.cfi_startproc
 1613               		.loc 1 540 75 is_stmt 0 view .LVU392
 1614 0000 DF92      		push r13
 1615               	.LCFI53:
 1616               		.cfi_def_cfa_offset 3
 1617               		.cfi_offset 13, -2
 1618 0002 EF92      		push r14
 1619               	.LCFI54:
 1620               		.cfi_def_cfa_offset 4
 1621               		.cfi_offset 14, -3
 1622 0004 FF92      		push r15
 1623               	.LCFI55:
 1624               		.cfi_def_cfa_offset 5
 1625               		.cfi_offset 15, -4
 1626 0006 0F93      		push r16
 1627               	.LCFI56:
 1628               		.cfi_def_cfa_offset 6
 1629               		.cfi_offset 16, -5
 1630 0008 1F93      		push r17
 1631               	.LCFI57:
 1632               		.cfi_def_cfa_offset 7
 1633               		.cfi_offset 17, -6
 1634 000a CF93      		push r28
 1635               	.LCFI58:
 1636               		.cfi_def_cfa_offset 8
 1637               		.cfi_offset 28, -7
 1638 000c DF93      		push r29
 1639               	.LCFI59:
 1640               		.cfi_def_cfa_offset 9
 1641               		.cfi_offset 29, -8
 1642               	/* prologue: function */
 1643               	/* frame size = 0 */
 1644               	/* stack size = 7 */
 1645               	.L__stack_usage = 7
 1646 000e 8C01      		movw r16,r24
 1647 0010 D62E      		mov r13,r22
 1648 0012 7A01      		movw r14,r20
 541:../../os/hal/src/hal_queues.c **** 
 542:../../os/hal/src/hal_queues.c ****   osalSysLock();
 1649               		.loc 1 542 3 is_stmt 1 view .LVU393
 1650               	.LBB134:
 1651               	.LBI134:
 573:../../os/hal/osal/rt-nil/osal.h **** 
 1652               		.loc 2 573 20 view .LVU394
 1653               	.LBB135:
 575:../../os/hal/osal/rt-nil/osal.h **** }
 1654               		.loc 2 575 3 view .LVU395
 1655               	.LBB136:
 1656               	.LBI136:
 428:../../os/common/ports/AVR/chcore.h **** 
 1657               		.loc 3 428 20 view .LVU396
 1658               	.LBB137:
 430:../../os/common/ports/AVR/chcore.h **** }
 1659               		.loc 3 430 3 view .LVU397
 1660               	/* #APP */
 1661               	 ;  430 "../../os/common/ports/AVR/chcore.h" 1
 1662 0014 F894      		cli
 1663               	 ;  0 "" 2
 1664               	/* #NOAPP */
 1665               	.LBE137:
 1666               	.LBE136:
 575:../../os/hal/osal/rt-nil/osal.h **** }
 1667               		.loc 2 575 3 discriminator 1 view .LVU398
 575:../../os/hal/osal/rt-nil/osal.h **** }
 1668               		.loc 2 575 14 discriminator 1 view .LVU399
 1669               	.LBE135:
 1670               	.LBE134:
 543:../../os/hal/src/hal_queues.c **** 
 544:../../os/hal/src/hal_queues.c ****   /* Waiting until there is a slot available or a timeout occurs.*/
 545:../../os/hal/src/hal_queues.c ****   while (oqIsFullI(oqp)) {
 1671               		.loc 1 545 3 view .LVU400
 1672               	.LBB139:
 1673               	.LBB138:
 576:../../os/hal/osal/rt-nil/osal.h **** 
 1674               		.loc 2 576 1 is_stmt 0 view .LVU401
 1675 0016 00C0      		rjmp .L80
 1676               	.LVL110:
 1677               	.L82:
 576:../../os/hal/osal/rt-nil/osal.h **** 
 1678               		.loc 2 576 1 view .LVU402
 1679               	.LBE138:
 1680               	.LBE139:
 1681               	.LBB140:
 546:../../os/hal/src/hal_queues.c ****     msg_t msg = osalThreadEnqueueTimeoutS(&oqp->q_waiting, timeout);
 1682               		.loc 1 546 5 is_stmt 1 view .LVU403
 1683               	.LBB141:
 1684               	.LBI141:
 892:../../os/hal/osal/rt-nil/osal.h ****                                               sysinterval_t timeout) {
 1685               		.loc 2 892 21 view .LVU404
 1686               	.LBB142:
 895:../../os/hal/osal/rt-nil/osal.h **** }
 1687               		.loc 2 895 3 view .LVU405
 895:../../os/hal/osal/rt-nil/osal.h **** }
 1688               		.loc 2 895 10 is_stmt 0 view .LVU406
 1689 0018 B701      		movw r22,r14
 1690 001a C801      		movw r24,r16
 1691 001c 0E94 0000 		call chThdEnqueueTimeoutS
 1692               	.LVL111:
 1693 0020 EC01      		movw r28,r24
 1694               	.LVL112:
 895:../../os/hal/osal/rt-nil/osal.h **** }
 1695               		.loc 2 895 10 view .LVU407
 1696               	.LBE142:
 1697               	.LBE141:
 547:../../os/hal/src/hal_queues.c ****     if (msg < MSG_OK) {
 1698               		.loc 1 547 5 is_stmt 1 view .LVU408
 1699               		.loc 1 547 8 is_stmt 0 view .LVU409
 1700 0022 97FD      		sbrc r25,7
 1701 0024 00C0      		rjmp .L89
 1702               	.LVL113:
 1703               	.L80:
 1704               		.loc 1 547 8 view .LVU410
 1705               	.LBE140:
 545:../../os/hal/src/hal_queues.c ****     msg_t msg = osalThreadEnqueueTimeoutS(&oqp->q_waiting, timeout);
 1706               		.loc 1 545 10 is_stmt 1 view .LVU411
 1707 0026 D801      		movw r26,r16
 1708 0028 1196      		adiw r26,1
 1709 002a 8D91      		ld r24,X+
 1710 002c 9C91      		ld r25,X
 1711 002e 1297      		sbiw r26,1+1
 1712 0030 892B      		or r24,r25
 1713 0032 01F0      		breq .L82
 548:../../os/hal/src/hal_queues.c ****       osalSysUnlock();
 549:../../os/hal/src/hal_queues.c ****       return msg;
 550:../../os/hal/src/hal_queues.c ****     }
 551:../../os/hal/src/hal_queues.c ****   }
 552:../../os/hal/src/hal_queues.c **** 
 553:../../os/hal/src/hal_queues.c ****   /* Putting the character into the queue.*/
 554:../../os/hal/src/hal_queues.c ****   oqp->q_counter--;
 1714               		.loc 1 554 3 view .LVU412
 1715               		.loc 1 554 6 is_stmt 0 view .LVU413
 1716 0034 1196      		adiw r26,1
 1717 0036 8D91      		ld r24,X+
 1718 0038 9C91      		ld r25,X
 1719 003a 1297      		sbiw r26,1+1
 1720               		.loc 1 554 17 view .LVU414
 1721 003c 0197      		sbiw r24,1
 1722 003e 1296      		adiw r26,1+1
 1723 0040 9C93      		st X,r25
 1724 0042 8E93      		st -X,r24
 1725 0044 1197      		sbiw r26,1
 555:../../os/hal/src/hal_queues.c ****   *oqp->q_wrptr++ = b;
 1726               		.loc 1 555 3 is_stmt 1 view .LVU415
 1727               		.loc 1 555 7 is_stmt 0 view .LVU416
 1728 0046 1796      		adiw r26,7
 1729 0048 ED91      		ld r30,X+
 1730 004a FC91      		ld r31,X
 1731 004c 1897      		sbiw r26,7+1
 1732               		.loc 1 555 16 view .LVU417
 1733 004e CF01      		movw r24,r30
 1734 0050 0196      		adiw r24,1
 1735 0052 1896      		adiw r26,7+1
 1736 0054 9C93      		st X,r25
 1737 0056 8E93      		st -X,r24
 1738 0058 1797      		sbiw r26,7
 1739               		.loc 1 555 19 view .LVU418
 1740 005a D082      		st Z,r13
 556:../../os/hal/src/hal_queues.c ****   if (oqp->q_wrptr >= oqp->q_top) {
 1741               		.loc 1 556 3 is_stmt 1 view .LVU419
 1742               		.loc 1 556 6 is_stmt 0 view .LVU420
 1743 005c 1796      		adiw r26,7
 1744 005e 2D91      		ld r18,X+
 1745 0060 3C91      		ld r19,X
 1746 0062 1897      		sbiw r26,7+1
 1747 0064 1596      		adiw r26,5
 1748 0066 8D91      		ld r24,X+
 1749 0068 9C91      		ld r25,X
 1750 006a 1697      		sbiw r26,5+1
 1751 006c 2817      		cp r18,r24
 1752 006e 3907      		cpc r19,r25
 1753 0070 00F0      		brlo .L83
 557:../../os/hal/src/hal_queues.c ****     oqp->q_wrptr = oqp->q_buffer;
 1754               		.loc 1 557 5 is_stmt 1 view .LVU421
 1755               		.loc 1 557 18 is_stmt 0 view .LVU422
 1756 0072 1396      		adiw r26,3
 1757 0074 8D91      		ld r24,X+
 1758 0076 9C91      		ld r25,X
 1759 0078 1497      		sbiw r26,3+1
 1760 007a 1896      		adiw r26,7+1
 1761 007c 9C93      		st X,r25
 1762 007e 8E93      		st -X,r24
 1763 0080 1797      		sbiw r26,7
 1764               	.L83:
 558:../../os/hal/src/hal_queues.c ****   }
 559:../../os/hal/src/hal_queues.c **** 
 560:../../os/hal/src/hal_queues.c ****   /* Inform the low side that the queue has at least one character available.*/
 561:../../os/hal/src/hal_queues.c ****   if (oqp->q_notify != NULL) {
 1765               		.loc 1 561 3 is_stmt 1 view .LVU423
 1766               		.loc 1 561 10 is_stmt 0 view .LVU424
 1767 0082 D801      		movw r26,r16
 1768 0084 1B96      		adiw r26,11
 1769 0086 ED91      		ld r30,X+
 1770 0088 FC91      		ld r31,X
 1771               		.loc 1 561 6 view .LVU425
 1772 008a 3097      		sbiw r30,0
 1773 008c 01F0      		breq .L84
 562:../../os/hal/src/hal_queues.c ****     oqp->q_notify(oqp);
 1774               		.loc 1 562 5 is_stmt 1 view .LVU426
 1775 008e C801      		movw r24,r16
 1776 0090 0995      		icall
 1777               	.LVL114:
 1778               	.L84:
 563:../../os/hal/src/hal_queues.c ****   }
 564:../../os/hal/src/hal_queues.c **** 
 565:../../os/hal/src/hal_queues.c ****   osalSysUnlock();
 1779               		.loc 1 565 3 view .LVU427
 1780               	.LBB146:
 1781               	.LBI146:
 584:../../os/hal/osal/rt-nil/osal.h **** 
 1782               		.loc 2 584 20 view .LVU428
 586:../../os/hal/osal/rt-nil/osal.h **** }
 1783               		.loc 2 586 3 view .LVU429
 586:../../os/hal/osal/rt-nil/osal.h **** }
 1784               		.loc 2 586 3 view .LVU430
 1785               	.LBB147:
 1786               	.LBI147:
 438:../../os/common/ports/AVR/chcore.h **** 
 1787               		.loc 3 438 20 view .LVU431
 1788               	.LBB148:
 1789               		.loc 3 440 3 view .LVU432
 1790               	/* #APP */
 1791               	 ;  440 "../../os/common/ports/AVR/chcore.h" 1
 1792 0092 7894      		sei
 1793               	 ;  0 "" 2
 1794               	/* #NOAPP */
 1795               	.LBE148:
 1796               	.LBE147:
 586:../../os/hal/osal/rt-nil/osal.h **** }
 1797               		.loc 2 586 16 discriminator 1 view .LVU433
 1798               	.LBE146:
 566:../../os/hal/src/hal_queues.c **** 
 567:../../os/hal/src/hal_queues.c ****   return MSG_OK;
 1799               		.loc 1 567 3 view .LVU434
 1800               		.loc 1 567 10 is_stmt 0 view .LVU435
 1801 0094 C0E0      		ldi r28,0
 1802 0096 D0E0      		ldi r29,0
 1803               	.L79:
 568:../../os/hal/src/hal_queues.c **** }
 1804               		.loc 1 568 1 view .LVU436
 1805 0098 CE01      		movw r24,r28
 1806               	/* epilogue start */
 1807 009a DF91      		pop r29
 1808 009c CF91      		pop r28
 1809 009e 1F91      		pop r17
 1810 00a0 0F91      		pop r16
 1811               	.LVL115:
 1812               		.loc 1 568 1 view .LVU437
 1813 00a2 FF90      		pop r15
 1814 00a4 EF90      		pop r14
 1815               	.LVL116:
 1816               		.loc 1 568 1 view .LVU438
 1817 00a6 DF90      		pop r13
 1818               	.LVL117:
 1819               		.loc 1 568 1 view .LVU439
 1820 00a8 0895      		ret
 1821               	.LVL118:
 1822               	.L89:
 1823               	.LBB149:
 548:../../os/hal/src/hal_queues.c ****       return msg;
 1824               		.loc 1 548 7 is_stmt 1 view .LVU440
 1825               	.LBB143:
 1826               	.LBI143:
 584:../../os/hal/osal/rt-nil/osal.h **** 
 1827               		.loc 2 584 20 view .LVU441
 586:../../os/hal/osal/rt-nil/osal.h **** }
 1828               		.loc 2 586 3 view .LVU442
 586:../../os/hal/osal/rt-nil/osal.h **** }
 1829               		.loc 2 586 3 view .LVU443
 1830               	.LBB144:
 1831               	.LBI144:
 438:../../os/common/ports/AVR/chcore.h **** 
 1832               		.loc 3 438 20 view .LVU444
 1833               	.LBB145:
 1834               		.loc 3 440 3 view .LVU445
 1835               	/* #APP */
 1836               	 ;  440 "../../os/common/ports/AVR/chcore.h" 1
 1837 00aa 7894      		sei
 1838               	 ;  0 "" 2
 1839               	/* #NOAPP */
 1840               	.LBE145:
 1841               	.LBE144:
 586:../../os/hal/osal/rt-nil/osal.h **** }
 1842               		.loc 2 586 16 discriminator 1 view .LVU446
 1843               	.LBE143:
 549:../../os/hal/src/hal_queues.c ****     }
 1844               		.loc 1 549 7 view .LVU447
 549:../../os/hal/src/hal_queues.c ****     }
 1845               		.loc 1 549 14 is_stmt 0 view .LVU448
 1846 00ac 00C0      		rjmp .L79
 1847               	.LBE149:
 1848               		.cfi_endproc
 1849               	.LFE158:
 1851               		.section	.text.oqGetI,"ax",@progbits
 1852               	.global	oqGetI
 1854               	oqGetI:
 1855               	.LVL119:
 1856               	.LFB159:
 569:../../os/hal/src/hal_queues.c **** 
 570:../../os/hal/src/hal_queues.c **** /**
 571:../../os/hal/src/hal_queues.c ****  * @brief   Output queue read.
 572:../../os/hal/src/hal_queues.c ****  * @details A byte value is read from the low end of an output queue. The
 573:../../os/hal/src/hal_queues.c ****  *          operation completes immediately.
 574:../../os/hal/src/hal_queues.c ****  *
 575:../../os/hal/src/hal_queues.c ****  * @param[in] oqp       pointer to an @p output_queue_t structure
 576:../../os/hal/src/hal_queues.c ****  * @return              The byte value from the queue.
 577:../../os/hal/src/hal_queues.c ****  * @retval MSG_TIMEOUT  if the queue is empty.
 578:../../os/hal/src/hal_queues.c ****  *
 579:../../os/hal/src/hal_queues.c ****  * @iclass
 580:../../os/hal/src/hal_queues.c ****  */
 581:../../os/hal/src/hal_queues.c **** msg_t oqGetI(output_queue_t *oqp) {
 1857               		.loc 1 581 35 is_stmt 1 view -0
 1858               		.cfi_startproc
 1859               		.loc 1 581 35 is_stmt 0 view .LVU450
 1860 0000 CF93      		push r28
 1861               	.LCFI60:
 1862               		.cfi_def_cfa_offset 3
 1863               		.cfi_offset 28, -2
 1864               	/* prologue: function */
 1865               	/* frame size = 0 */
 1866               	/* stack size = 1 */
 1867               	.L__stack_usage = 1
 1868 0002 FC01      		movw r30,r24
 582:../../os/hal/src/hal_queues.c **** 
 583:../../os/hal/src/hal_queues.c ****   osalDbgCheckClassI();
 1869               		.loc 1 583 23 is_stmt 1 view .LVU451
 584:../../os/hal/src/hal_queues.c **** 
 585:../../os/hal/src/hal_queues.c ****   /* Queue data check.*/
 586:../../os/hal/src/hal_queues.c ****   if (!oqIsEmptyI(oqp)) {
 1870               		.loc 1 586 3 view .LVU452
 1871               		.loc 1 586 8 is_stmt 0 view .LVU453
 1872 0004 A185      		ldd r26,Z+9
 1873 0006 B285      		ldd r27,Z+10
 1874 0008 8781      		ldd r24,Z+7
 1875 000a 9085      		ldd r25,Z+8
 1876               	.LVL120:
 1877               		.loc 1 586 8 view .LVU454
 1878 000c 8A17      		cp r24,r26
 1879 000e 9B07      		cpc r25,r27
 1880 0010 01F0      		breq .L95
 1881               	.L91:
 1882               	.LBB150:
 587:../../os/hal/src/hal_queues.c ****     uint8_t b;
 1883               		.loc 1 587 5 is_stmt 1 view .LVU455
 588:../../os/hal/src/hal_queues.c **** 
 589:../../os/hal/src/hal_queues.c ****     oqp->q_counter++;
 1884               		.loc 1 589 5 view .LVU456
 1885               		.loc 1 589 8 is_stmt 0 view .LVU457
 1886 0012 8181      		ldd r24,Z+1
 1887 0014 9281      		ldd r25,Z+2
 1888               		.loc 1 589 19 view .LVU458
 1889 0016 0196      		adiw r24,1
 1890 0018 9283      		std Z+2,r25
 1891 001a 8183      		std Z+1,r24
 590:../../os/hal/src/hal_queues.c ****     b = *oqp->q_rdptr++;
 1892               		.loc 1 590 5 is_stmt 1 view .LVU459
 1893               		.loc 1 590 22 is_stmt 0 view .LVU460
 1894 001c CD01      		movw r24,r26
 1895 001e 0196      		adiw r24,1
 1896 0020 9287      		std Z+10,r25
 1897 0022 8187      		std Z+9,r24
 1898               		.loc 1 590 7 view .LVU461
 1899 0024 CC91      		ld r28,X
 1900               	.LVL121:
 591:../../os/hal/src/hal_queues.c ****     if (oqp->q_rdptr >= oqp->q_top) {
 1901               		.loc 1 591 5 is_stmt 1 view .LVU462
 1902               		.loc 1 591 8 is_stmt 0 view .LVU463
 1903 0026 2581      		ldd r18,Z+5
 1904 0028 3681      		ldd r19,Z+6
 1905 002a 8217      		cp r24,r18
 1906 002c 9307      		cpc r25,r19
 1907 002e 00F4      		brsh .L96
 1908               	.L93:
 592:../../os/hal/src/hal_queues.c ****       oqp->q_rdptr = oqp->q_buffer;
 593:../../os/hal/src/hal_queues.c ****     }
 594:../../os/hal/src/hal_queues.c **** 
 595:../../os/hal/src/hal_queues.c ****     osalThreadDequeueNextI(&oqp->q_waiting, MSG_OK);
 1909               		.loc 1 595 5 is_stmt 1 view .LVU464
 1910               	.LVL122:
 1911               	.LBB151:
 1912               	.LBI151:
 906:../../os/hal/osal/rt-nil/osal.h **** 
 1913               		.loc 2 906 20 view .LVU465
 1914               	.LBB152:
 908:../../os/hal/osal/rt-nil/osal.h **** }
 1915               		.loc 2 908 3 view .LVU466
 1916 0030 60E0      		ldi r22,0
 1917 0032 70E0      		ldi r23,0
 1918 0034 CF01      		movw r24,r30
 1919 0036 0E94 0000 		call chThdDequeueNextI
 1920               	.LVL123:
 908:../../os/hal/osal/rt-nil/osal.h **** }
 1921               		.loc 2 908 3 is_stmt 0 view .LVU467
 1922               	.LBE152:
 1923               	.LBE151:
 596:../../os/hal/src/hal_queues.c **** 
 597:../../os/hal/src/hal_queues.c ****     return (msg_t)b;
 1924               		.loc 1 597 5 is_stmt 1 view .LVU468
 1925               		.loc 1 597 12 is_stmt 0 view .LVU469
 1926 003a 8C2F      		mov r24,r28
 1927 003c 90E0      		ldi r25,0
 1928               	.LVL124:
 1929               	.L90:
 1930               	/* epilogue start */
 1931               		.loc 1 597 12 view .LVU470
 1932               	.LBE150:
 598:../../os/hal/src/hal_queues.c ****   }
 599:../../os/hal/src/hal_queues.c **** 
 600:../../os/hal/src/hal_queues.c ****   return MSG_TIMEOUT;
 601:../../os/hal/src/hal_queues.c **** }
 1933               		.loc 1 601 1 view .LVU471
 1934 003e CF91      		pop r28
 1935 0040 0895      		ret
 1936               	.LVL125:
 1937               	.L96:
 1938               	.LBB153:
 592:../../os/hal/src/hal_queues.c ****     }
 1939               		.loc 1 592 7 is_stmt 1 view .LVU472
 592:../../os/hal/src/hal_queues.c ****     }
 1940               		.loc 1 592 20 is_stmt 0 view .LVU473
 1941 0042 8381      		ldd r24,Z+3
 1942 0044 9481      		ldd r25,Z+4
 1943 0046 9287      		std Z+10,r25
 1944 0048 8187      		std Z+9,r24
 1945 004a 00C0      		rjmp .L93
 1946               	.LVL126:
 1947               	.L95:
 592:../../os/hal/src/hal_queues.c ****     }
 1948               		.loc 1 592 20 view .LVU474
 1949               	.LBE153:
 586:../../os/hal/src/hal_queues.c ****     uint8_t b;
 1950               		.loc 1 586 8 discriminator 1 view .LVU475
 1951 004c 8181      		ldd r24,Z+1
 1952 004e 9281      		ldd r25,Z+2
 1953 0050 892B      		or r24,r25
 1954 0052 01F0      		breq .L91
 600:../../os/hal/src/hal_queues.c **** }
 1955               		.loc 1 600 10 view .LVU476
 1956 0054 8FEF      		ldi r24,lo8(-1)
 1957 0056 9FEF      		ldi r25,lo8(-1)
 1958 0058 00C0      		rjmp .L90
 1959               		.cfi_endproc
 1960               	.LFE159:
 1962               		.section	.text.oqWriteI,"ax",@progbits
 1963               	.global	oqWriteI
 1965               	oqWriteI:
 1966               	.LVL127:
 1967               	.LFB160:
 602:../../os/hal/src/hal_queues.c **** 
 603:../../os/hal/src/hal_queues.c **** /**
 604:../../os/hal/src/hal_queues.c ****  * @brief   Output queue non-blocking write.
 605:../../os/hal/src/hal_queues.c ****  * @details The function writes data from a buffer to an output queue. The
 606:../../os/hal/src/hal_queues.c ****  *          operation completes immediately.
 607:../../os/hal/src/hal_queues.c ****  *
 608:../../os/hal/src/hal_queues.c ****  * @param[in] oqp       pointer to an @p output_queue_t structure
 609:../../os/hal/src/hal_queues.c ****  * @param[in] bp        pointer to the data buffer
 610:../../os/hal/src/hal_queues.c ****  * @param[in] n         the maximum amount of data to be transferred, the
 611:../../os/hal/src/hal_queues.c ****  *                      value 0 is reserved
 612:../../os/hal/src/hal_queues.c ****  * @return              The number of bytes effectively transferred.
 613:../../os/hal/src/hal_queues.c ****  *
 614:../../os/hal/src/hal_queues.c ****  * @iclass
 615:../../os/hal/src/hal_queues.c ****  */
 616:../../os/hal/src/hal_queues.c **** size_t oqWriteI(output_queue_t *oqp, const uint8_t *bp, size_t n) {
 1968               		.loc 1 616 67 is_stmt 1 view -0
 1969               		.cfi_startproc
 1970               		.loc 1 616 67 is_stmt 0 view .LVU478
 1971 0000 EF92      		push r14
 1972               	.LCFI61:
 1973               		.cfi_def_cfa_offset 3
 1974               		.cfi_offset 14, -2
 1975 0002 FF92      		push r15
 1976               	.LCFI62:
 1977               		.cfi_def_cfa_offset 4
 1978               		.cfi_offset 15, -3
 1979 0004 0F93      		push r16
 1980               	.LCFI63:
 1981               		.cfi_def_cfa_offset 5
 1982               		.cfi_offset 16, -4
 1983 0006 1F93      		push r17
 1984               	.LCFI64:
 1985               		.cfi_def_cfa_offset 6
 1986               		.cfi_offset 17, -5
 1987 0008 CF93      		push r28
 1988               	.LCFI65:
 1989               		.cfi_def_cfa_offset 7
 1990               		.cfi_offset 28, -6
 1991 000a DF93      		push r29
 1992               	.LCFI66:
 1993               		.cfi_def_cfa_offset 8
 1994               		.cfi_offset 29, -7
 1995               	/* prologue: function */
 1996               	/* frame size = 0 */
 1997               	/* stack size = 6 */
 1998               	.L__stack_usage = 6
 1999 000c EC01      		movw r28,r24
 617:../../os/hal/src/hal_queues.c ****   qnotify_t nfy = oqp->q_notify;
 2000               		.loc 1 617 3 is_stmt 1 view .LVU479
 2001               		.loc 1 617 13 is_stmt 0 view .LVU480
 2002 000e EB84      		ldd r14,Y+11
 2003 0010 FC84      		ldd r15,Y+12
 2004               	.LVL128:
 618:../../os/hal/src/hal_queues.c ****   size_t wr;
 2005               		.loc 1 618 3 is_stmt 1 view .LVU481
 619:../../os/hal/src/hal_queues.c **** 
 620:../../os/hal/src/hal_queues.c ****   osalDbgCheckClassI();
 2006               		.loc 1 620 23 view .LVU482
 621:../../os/hal/src/hal_queues.c **** 
 622:../../os/hal/src/hal_queues.c ****   wr = oq_write(oqp, bp, n);
 2007               		.loc 1 622 3 view .LVU483
 2008               		.loc 1 622 8 is_stmt 0 view .LVU484
 2009 0012 0E94 0000 		call oq_write
 2010               	.LVL129:
 2011               		.loc 1 622 8 view .LVU485
 2012 0016 8C01      		movw r16,r24
 2013               	.LVL130:
 623:../../os/hal/src/hal_queues.c **** 
 624:../../os/hal/src/hal_queues.c ****   /* Inform the low side that the queue has at least one character
 625:../../os/hal/src/hal_queues.c ****      available.*/
 626:../../os/hal/src/hal_queues.c ****   if ((wr > (size_t)0) && (nfy != NULL)) {
 2014               		.loc 1 626 3 is_stmt 1 view .LVU486
 2015               		.loc 1 626 6 is_stmt 0 view .LVU487
 2016 0018 892B      		or r24,r25
 2017 001a 01F0      		breq .L97
 2018               		.loc 1 626 24 discriminator 1 view .LVU488
 2019 001c E114      		cp r14,__zero_reg__
 2020 001e F104      		cpc r15,__zero_reg__
 2021 0020 01F0      		breq .L97
 627:../../os/hal/src/hal_queues.c ****     nfy(oqp);
 2022               		.loc 1 627 5 is_stmt 1 view .LVU489
 2023 0022 CE01      		movw r24,r28
 2024 0024 F701      		movw r30,r14
 2025 0026 0995      		icall
 2026               	.LVL131:
 628:../../os/hal/src/hal_queues.c ****   }
 629:../../os/hal/src/hal_queues.c **** 
 630:../../os/hal/src/hal_queues.c ****   return wr;
 2027               		.loc 1 630 3 view .LVU490
 2028               	.L97:
 631:../../os/hal/src/hal_queues.c **** }
 2029               		.loc 1 631 1 is_stmt 0 view .LVU491
 2030 0028 C801      		movw r24,r16
 2031               	/* epilogue start */
 2032 002a DF91      		pop r29
 2033 002c CF91      		pop r28
 2034               	.LVL132:
 2035               		.loc 1 631 1 view .LVU492
 2036 002e 1F91      		pop r17
 2037 0030 0F91      		pop r16
 2038               	.LVL133:
 2039               		.loc 1 631 1 view .LVU493
 2040 0032 FF90      		pop r15
 2041 0034 EF90      		pop r14
 2042               	.LVL134:
 2043               		.loc 1 631 1 view .LVU494
 2044 0036 0895      		ret
 2045               		.cfi_endproc
 2046               	.LFE160:
 2048               		.section	.text.oqWriteTimeout,"ax",@progbits
 2049               	.global	oqWriteTimeout
 2051               	oqWriteTimeout:
 2052               	.LVL135:
 2053               	.LFB161:
 632:../../os/hal/src/hal_queues.c **** 
 633:../../os/hal/src/hal_queues.c **** /**
 634:../../os/hal/src/hal_queues.c ****  * @brief   Output queue write with timeout.
 635:../../os/hal/src/hal_queues.c ****  * @details The function writes data from a buffer to an output queue. The
 636:../../os/hal/src/hal_queues.c ****  *          operation completes when the specified amount of data has been
 637:../../os/hal/src/hal_queues.c ****  *          transferred or after the specified timeout or if the queue has
 638:../../os/hal/src/hal_queues.c ****  *          been reset.
 639:../../os/hal/src/hal_queues.c ****  * @note    The function is not atomic, if you need atomicity it is suggested
 640:../../os/hal/src/hal_queues.c ****  *          to use a semaphore or a mutex for mutual exclusion.
 641:../../os/hal/src/hal_queues.c ****  * @note    The callback is invoked after putting each character into the
 642:../../os/hal/src/hal_queues.c ****  *          queue.
 643:../../os/hal/src/hal_queues.c ****  *
 644:../../os/hal/src/hal_queues.c ****  * @param[in] oqp       pointer to an @p output_queue_t structure
 645:../../os/hal/src/hal_queues.c ****  * @param[in] bp        pointer to the data buffer
 646:../../os/hal/src/hal_queues.c ****  * @param[in] n         the maximum amount of data to be transferred, the
 647:../../os/hal/src/hal_queues.c ****  *                      value 0 is reserved
 648:../../os/hal/src/hal_queues.c ****  * @param[in] timeout   the number of ticks before the operation timeouts,
 649:../../os/hal/src/hal_queues.c ****  *                      the following special values are allowed:
 650:../../os/hal/src/hal_queues.c ****  *                      - @a TIME_IMMEDIATE immediate timeout.
 651:../../os/hal/src/hal_queues.c ****  *                      - @a TIME_INFINITE no timeout.
 652:../../os/hal/src/hal_queues.c ****  *                      .
 653:../../os/hal/src/hal_queues.c ****  * @return              The number of bytes effectively transferred.
 654:../../os/hal/src/hal_queues.c ****  *
 655:../../os/hal/src/hal_queues.c ****  * @api
 656:../../os/hal/src/hal_queues.c ****  */
 657:../../os/hal/src/hal_queues.c **** size_t oqWriteTimeout(output_queue_t *oqp, const uint8_t *bp,
 658:../../os/hal/src/hal_queues.c ****                       size_t n, sysinterval_t timeout) {
 2054               		.loc 1 658 56 is_stmt 1 view -0
 2055               		.cfi_startproc
 2056               		.loc 1 658 56 is_stmt 0 view .LVU496
 2057 0000 6F92      		push r6
 2058               	.LCFI67:
 2059               		.cfi_def_cfa_offset 3
 2060               		.cfi_offset 6, -2
 2061 0002 7F92      		push r7
 2062               	.LCFI68:
 2063               		.cfi_def_cfa_offset 4
 2064               		.cfi_offset 7, -3
 2065 0004 8F92      		push r8
 2066               	.LCFI69:
 2067               		.cfi_def_cfa_offset 5
 2068               		.cfi_offset 8, -4
 2069 0006 9F92      		push r9
 2070               	.LCFI70:
 2071               		.cfi_def_cfa_offset 6
 2072               		.cfi_offset 9, -5
 2073 0008 AF92      		push r10
 2074               	.LCFI71:
 2075               		.cfi_def_cfa_offset 7
 2076               		.cfi_offset 10, -6
 2077 000a BF92      		push r11
 2078               	.LCFI72:
 2079               		.cfi_def_cfa_offset 8
 2080               		.cfi_offset 11, -7
 2081 000c CF92      		push r12
 2082               	.LCFI73:
 2083               		.cfi_def_cfa_offset 9
 2084               		.cfi_offset 12, -8
 2085 000e DF92      		push r13
 2086               	.LCFI74:
 2087               		.cfi_def_cfa_offset 10
 2088               		.cfi_offset 13, -9
 2089 0010 EF92      		push r14
 2090               	.LCFI75:
 2091               		.cfi_def_cfa_offset 11
 2092               		.cfi_offset 14, -10
 2093 0012 FF92      		push r15
 2094               	.LCFI76:
 2095               		.cfi_def_cfa_offset 12
 2096               		.cfi_offset 15, -11
 2097 0014 0F93      		push r16
 2098               	.LCFI77:
 2099               		.cfi_def_cfa_offset 13
 2100               		.cfi_offset 16, -12
 2101 0016 1F93      		push r17
 2102               	.LCFI78:
 2103               		.cfi_def_cfa_offset 14
 2104               		.cfi_offset 17, -13
 2105 0018 CF93      		push r28
 2106               	.LCFI79:
 2107               		.cfi_def_cfa_offset 15
 2108               		.cfi_offset 28, -14
 2109 001a DF93      		push r29
 2110               	.LCFI80:
 2111               		.cfi_def_cfa_offset 16
 2112               		.cfi_offset 29, -15
 2113               	/* prologue: function */
 2114               	/* frame size = 0 */
 2115               	/* stack size = 14 */
 2116               	.L__stack_usage = 14
 2117 001c 6C01      		movw r12,r24
 2118 001e 7B01      		movw r14,r22
 2119 0020 4A01      		movw r8,r20
 2120 0022 722E      		mov r7,r18
 2121 0024 632E      		mov r6,r19
 659:../../os/hal/src/hal_queues.c ****   qnotify_t nfy = oqp->q_notify;
 2122               		.loc 1 659 3 is_stmt 1 view .LVU497
 2123               		.loc 1 659 13 is_stmt 0 view .LVU498
 2124 0026 FC01      		movw r30,r24
 2125 0028 A384      		ldd r10,Z+11
 2126 002a B484      		ldd r11,Z+12
 2127               	.LVL136:
 660:../../os/hal/src/hal_queues.c ****   size_t max = n;
 2128               		.loc 1 660 3 is_stmt 1 view .LVU499
 661:../../os/hal/src/hal_queues.c **** 
 662:../../os/hal/src/hal_queues.c ****   osalDbgCheck(n > 0U);
 2129               		.loc 1 662 3 view .LVU500
 2130               		.loc 1 662 3 view .LVU501
 2131               		.loc 1 662 3 discriminator 5 view .LVU502
 663:../../os/hal/src/hal_queues.c **** 
 664:../../os/hal/src/hal_queues.c ****   osalSysLock();
 2132               		.loc 1 664 3 view .LVU503
 2133               	.LBB154:
 2134               	.LBI154:
 573:../../os/hal/osal/rt-nil/osal.h **** 
 2135               		.loc 2 573 20 view .LVU504
 575:../../os/hal/osal/rt-nil/osal.h **** }
 2136               		.loc 2 575 3 view .LVU505
 2137               	.LBB155:
 2138               	.LBI155:
 428:../../os/common/ports/AVR/chcore.h **** 
 2139               		.loc 3 428 20 view .LVU506
 2140               	.LBB156:
 430:../../os/common/ports/AVR/chcore.h **** }
 2141               		.loc 3 430 3 view .LVU507
 2142               	/* #APP */
 2143               	 ;  430 "../../os/common/ports/AVR/chcore.h" 1
 2144 002c F894      		cli
 2145               	 ;  0 "" 2
 2146               	/* #NOAPP */
 2147               	.LBE156:
 2148               	.LBE155:
 575:../../os/hal/osal/rt-nil/osal.h **** }
 2149               		.loc 2 575 3 discriminator 1 view .LVU508
 575:../../os/hal/osal/rt-nil/osal.h **** }
 2150               		.loc 2 575 14 discriminator 1 view .LVU509
 2151               	.LBE154:
 665:../../os/hal/src/hal_queues.c **** 
 666:../../os/hal/src/hal_queues.c ****   while (n > 0U) {
 2152               		.loc 1 666 3 view .LVU510
 2153               		.loc 1 666 12 view .LVU511
 2154 002e 8A01      		movw r16,r20
 2155 0030 452B      		or r20,r21
 2156 0032 01F0      		breq .L111
 2157               	.LVL137:
 2158               	.L106:
 2159               	.LBB157:
 667:../../os/hal/src/hal_queues.c ****     size_t done;
 2160               		.loc 1 667 5 view .LVU512
 668:../../os/hal/src/hal_queues.c **** 
 669:../../os/hal/src/hal_queues.c ****     done = oq_write(oqp, bp, n);
 2161               		.loc 1 669 5 view .LVU513
 2162               		.loc 1 669 12 is_stmt 0 view .LVU514
 2163 0034 A801      		movw r20,r16
 2164 0036 B701      		movw r22,r14
 2165 0038 C601      		movw r24,r12
 2166 003a 0E94 0000 		call oq_write
 2167               	.LVL138:
 2168 003e EC01      		movw r28,r24
 2169               	.LVL139:
 670:../../os/hal/src/hal_queues.c ****     if (done == (size_t)0) {
 2170               		.loc 1 670 5 is_stmt 1 view .LVU515
 2171               		.loc 1 670 8 is_stmt 0 view .LVU516
 2172 0040 892B      		or r24,r25
 2173 0042 01F0      		breq .L122
 671:../../os/hal/src/hal_queues.c ****       msg_t msg = osalThreadEnqueueTimeoutS(&oqp->q_waiting, timeout);
 672:../../os/hal/src/hal_queues.c **** 
 673:../../os/hal/src/hal_queues.c ****       /* Anything except MSG_OK causes the operation to stop.*/
 674:../../os/hal/src/hal_queues.c ****       if (msg != MSG_OK) {
 675:../../os/hal/src/hal_queues.c ****         break;
 676:../../os/hal/src/hal_queues.c ****       }
 677:../../os/hal/src/hal_queues.c ****     }
 678:../../os/hal/src/hal_queues.c ****     else {
 679:../../os/hal/src/hal_queues.c ****       /* Inform the low side that the queue has at least one character
 680:../../os/hal/src/hal_queues.c ****          available.*/
 681:../../os/hal/src/hal_queues.c ****       if (nfy != NULL) {
 2174               		.loc 1 681 7 is_stmt 1 view .LVU517
 2175               		.loc 1 681 10 is_stmt 0 view .LVU518
 2176 0044 A114      		cp r10,__zero_reg__
 2177 0046 B104      		cpc r11,__zero_reg__
 2178 0048 01F0      		breq .L110
 682:../../os/hal/src/hal_queues.c ****         nfy(oqp);
 2179               		.loc 1 682 9 is_stmt 1 view .LVU519
 2180 004a C601      		movw r24,r12
 2181               	.LVL140:
 2182               		.loc 1 682 9 is_stmt 0 view .LVU520
 2183 004c F501      		movw r30,r10
 2184 004e 0995      		icall
 2185               	.LVL141:
 2186               	.L110:
 683:../../os/hal/src/hal_queues.c ****       }
 684:../../os/hal/src/hal_queues.c **** 
 685:../../os/hal/src/hal_queues.c ****       /* Giving a preemption chance in a controlled point.*/
 686:../../os/hal/src/hal_queues.c ****       osalSysUnlock();
 2187               		.loc 1 686 7 is_stmt 1 view .LVU521
 2188               	.LBB158:
 2189               	.LBI158:
 584:../../os/hal/osal/rt-nil/osal.h **** 
 2190               		.loc 2 584 20 view .LVU522
 586:../../os/hal/osal/rt-nil/osal.h **** }
 2191               		.loc 2 586 3 view .LVU523
 586:../../os/hal/osal/rt-nil/osal.h **** }
 2192               		.loc 2 586 3 view .LVU524
 2193               	.LBB159:
 2194               	.LBI159:
 438:../../os/common/ports/AVR/chcore.h **** 
 2195               		.loc 3 438 20 view .LVU525
 2196               	.LBB160:
 2197               		.loc 3 440 3 view .LVU526
 2198               	/* #APP */
 2199               	 ;  440 "../../os/common/ports/AVR/chcore.h" 1
 2200 0050 7894      		sei
 2201               	 ;  0 "" 2
 2202               	/* #NOAPP */
 2203               	.LBE160:
 2204               	.LBE159:
 586:../../os/hal/osal/rt-nil/osal.h **** }
 2205               		.loc 2 586 16 discriminator 1 view .LVU527
 2206               	.LBE158:
 687:../../os/hal/src/hal_queues.c **** 
 688:../../os/hal/src/hal_queues.c ****       n  -= done;
 2207               		.loc 1 688 7 view .LVU528
 2208               		.loc 1 688 10 is_stmt 0 view .LVU529
 2209 0052 0C1B      		sub r16,r28
 2210 0054 1D0B      		sbc r17,r29
 2211               	.LVL142:
 689:../../os/hal/src/hal_queues.c ****       bp += done;
 2212               		.loc 1 689 7 is_stmt 1 view .LVU530
 2213               		.loc 1 689 10 is_stmt 0 view .LVU531
 2214 0056 EC0E      		add r14,r28
 2215 0058 FD1E      		adc r15,r29
 2216               	.LVL143:
 690:../../os/hal/src/hal_queues.c **** 
 691:../../os/hal/src/hal_queues.c ****       osalSysLock();
 2217               		.loc 1 691 7 is_stmt 1 view .LVU532
 2218               	.LBB161:
 2219               	.LBI161:
 573:../../os/hal/osal/rt-nil/osal.h **** 
 2220               		.loc 2 573 20 view .LVU533
 575:../../os/hal/osal/rt-nil/osal.h **** }
 2221               		.loc 2 575 3 view .LVU534
 2222               	.LBB162:
 2223               	.LBI162:
 428:../../os/common/ports/AVR/chcore.h **** 
 2224               		.loc 3 428 20 view .LVU535
 2225               	.LBB163:
 430:../../os/common/ports/AVR/chcore.h **** }
 2226               		.loc 3 430 3 view .LVU536
 2227               	/* #APP */
 2228               	 ;  430 "../../os/common/ports/AVR/chcore.h" 1
 2229 005a F894      		cli
 2230               	 ;  0 "" 2
 2231               	/* #NOAPP */
 2232               	.LBE163:
 2233               	.LBE162:
 575:../../os/hal/osal/rt-nil/osal.h **** }
 2234               		.loc 2 575 3 discriminator 1 view .LVU537
 575:../../os/hal/osal/rt-nil/osal.h **** }
 2235               		.loc 2 575 14 discriminator 1 view .LVU538
 575:../../os/hal/osal/rt-nil/osal.h **** }
 2236               		.loc 2 575 14 is_stmt 0 discriminator 1 view .LVU539
 2237               	.LBE161:
 2238               	.LBE157:
 666:../../os/hal/src/hal_queues.c ****     size_t done;
 2239               		.loc 1 666 12 is_stmt 1 view .LVU540
 2240 005c 0115      		cp r16,__zero_reg__
 2241 005e 1105      		cpc r17,__zero_reg__
 2242 0060 01F4      		brne .L106
 2243               	.LVL144:
 2244               	.L111:
 666:../../os/hal/src/hal_queues.c ****     size_t done;
 2245               		.loc 1 666 12 is_stmt 0 view .LVU541
 2246 0062 C401      		movw r24,r8
 2247               	.L107:
 692:../../os/hal/src/hal_queues.c ****     }
 693:../../os/hal/src/hal_queues.c ****   }
 694:../../os/hal/src/hal_queues.c **** 
 695:../../os/hal/src/hal_queues.c ****   osalSysUnlock();
 2248               		.loc 1 695 3 is_stmt 1 view .LVU542
 2249               	.LBB167:
 2250               	.LBI167:
 584:../../os/hal/osal/rt-nil/osal.h **** 
 2251               		.loc 2 584 20 view .LVU543
 586:../../os/hal/osal/rt-nil/osal.h **** }
 2252               		.loc 2 586 3 view .LVU544
 586:../../os/hal/osal/rt-nil/osal.h **** }
 2253               		.loc 2 586 3 view .LVU545
 2254               	.LBB168:
 2255               	.LBI168:
 438:../../os/common/ports/AVR/chcore.h **** 
 2256               		.loc 3 438 20 view .LVU546
 2257               	.LBB169:
 2258               		.loc 3 440 3 view .LVU547
 2259               	/* #APP */
 2260               	 ;  440 "../../os/common/ports/AVR/chcore.h" 1
 2261 0064 7894      		sei
 2262               	 ;  0 "" 2
 2263               	/* #NOAPP */
 2264               	.LBE169:
 2265               	.LBE168:
 586:../../os/hal/osal/rt-nil/osal.h **** }
 2266               		.loc 2 586 16 discriminator 1 view .LVU548
 2267               	.LBE167:
 696:../../os/hal/src/hal_queues.c ****   return max - n;
 2268               		.loc 1 696 3 view .LVU549
 2269               	/* epilogue start */
 697:../../os/hal/src/hal_queues.c **** }
 2270               		.loc 1 697 1 is_stmt 0 view .LVU550
 2271 0066 DF91      		pop r29
 2272 0068 CF91      		pop r28
 2273 006a 1F91      		pop r17
 2274 006c 0F91      		pop r16
 2275               	.LVL145:
 2276               		.loc 1 697 1 view .LVU551
 2277 006e FF90      		pop r15
 2278 0070 EF90      		pop r14
 2279               	.LVL146:
 2280               		.loc 1 697 1 view .LVU552
 2281 0072 DF90      		pop r13
 2282 0074 CF90      		pop r12
 2283               	.LVL147:
 2284               		.loc 1 697 1 view .LVU553
 2285 0076 BF90      		pop r11
 2286 0078 AF90      		pop r10
 2287               	.LVL148:
 2288               		.loc 1 697 1 view .LVU554
 2289 007a 9F90      		pop r9
 2290 007c 8F90      		pop r8
 2291               	.LVL149:
 2292               		.loc 1 697 1 view .LVU555
 2293 007e 7F90      		pop r7
 2294 0080 6F90      		pop r6
 2295 0082 0895      		ret
 2296               	.LVL150:
 2297               	.L122:
 2298               	.LBB170:
 2299               	.LBB164:
 671:../../os/hal/src/hal_queues.c **** 
 2300               		.loc 1 671 7 is_stmt 1 view .LVU556
 2301               	.LBB165:
 2302               	.LBI165:
 892:../../os/hal/osal/rt-nil/osal.h ****                                               sysinterval_t timeout) {
 2303               		.loc 2 892 21 view .LVU557
 2304               	.LBB166:
 895:../../os/hal/osal/rt-nil/osal.h **** }
 2305               		.loc 2 895 3 view .LVU558
 895:../../os/hal/osal/rt-nil/osal.h **** }
 2306               		.loc 2 895 10 is_stmt 0 view .LVU559
 2307 0084 672D      		mov r22,r7
 2308 0086 762D      		mov r23,r6
 2309 0088 C601      		movw r24,r12
 2310               	.LVL151:
 895:../../os/hal/osal/rt-nil/osal.h **** }
 2311               		.loc 2 895 10 view .LVU560
 2312 008a 0E94 0000 		call chThdEnqueueTimeoutS
 2313               	.LVL152:
 895:../../os/hal/osal/rt-nil/osal.h **** }
 2314               		.loc 2 895 10 view .LVU561
 2315               	.LBE166:
 2316               	.LBE165:
 674:../../os/hal/src/hal_queues.c ****         break;
 2317               		.loc 1 674 7 is_stmt 1 view .LVU562
 674:../../os/hal/src/hal_queues.c ****         break;
 2318               		.loc 1 674 10 is_stmt 0 view .LVU563
 2319 008e 892B      		or r24,r25
 2320 0090 01F0      		breq .L106
 2321               	.LBE164:
 2322               	.LBE170:
 696:../../os/hal/src/hal_queues.c **** }
 2323               		.loc 1 696 14 view .LVU564
 2324 0092 C401      		movw r24,r8
 2325               	.LVL153:
 696:../../os/hal/src/hal_queues.c **** }
 2326               		.loc 1 696 14 view .LVU565
 2327 0094 801B      		sub r24,r16
 2328 0096 910B      		sbc r25,r17
 2329 0098 00C0      		rjmp .L107
 2330               		.cfi_endproc
 2331               	.LFE161:
 2333               		.text
 2334               	.Letext0:
 2335               		.file 4 "/usr/lib/gcc/avr/14.1.0/include/stddef.h"
 2336               		.file 5 "/usr/avr/include/stdint.h"
 2337               		.file 6 "../../os/common/ports/AVR/compilers/GCC/chtypes.h"
 2338               		.file 7 "../../os/nil/include/ch.h"
 2339               		.file 8 "../../os/hal/include/hal_queues.h"
 2340               		.file 9 "/usr/avr/include/string.h"
 2341               		.file 10 "<built-in>"