   1               		.file	"main.c"
   2               	__SP_H__ = 0x3e
   3               	__SP_L__ = 0x3d
   4               	__SREG__ = 0x3f
   5               	__tmp_reg__ = 0
   6               	__zero_reg__ = 1
   7               		.text
   8               	.Ltext0:
   9               		.cfi_sections	.debug_frame
  10               		.file 1 "main.c"
  11               		.section	.text.Thread_Led,"ax",@progbits
  12               	.global	Thread_Led
  14               	Thread_Led:
  15               	.LVL0:
  16               	.LFB146:
   1:main.c        **** #include "hal.h"
   2:main.c        **** #include "ch.h"
   3:main.c        **** 
   4:main.c        **** #define LED_YLW 2
   5:main.c        **** #define LED_GRN 3
   6:main.c        **** #define LED_PWM 3
   7:main.c        **** 
   8:main.c        **** /*
   9:main.c        **** //Called at the start of the period
  10:main.c        **** static void cb_pwm_start(PWMDriver* pwmp) {
  11:main.c        **** 	(void) pwmp;
  12:main.c        **** 	palSetPad(IOPORT2, LED_PWM);
  13:main.c        **** }
  14:main.c        **** 
  15:main.c        **** //Called at the end of the period
  16:main.c        **** static void cb_pwm_end(PWMDriver* pwmp) {
  17:main.c        **** 	(void) pwmp;
  18:main.c        **** 	palClearPad(IOPORT2, LED_PWM);
  19:main.c        **** }
  20:main.c        **** */
  21:main.c        **** 
  22:main.c        **** /*
  23:main.c        ****  * Thread 1.
  24:main.c        ****  */
  25:main.c        **** THD_WORKING_AREA(waLed, 128);
  26:main.c        **** THD_FUNCTION(Thread_Led, arg) {
  17               		.loc 1 26 31 view -0
  18               		.cfi_startproc
  19               	/* prologue: function */
  20               	/* frame size = 0 */
  21               	/* stack size = 0 */
  22               	.L__stack_usage = 0
  27:main.c        **** 
  28:main.c        **** 	(void)arg;
  29:main.c        **** 
  30:main.c        **** 	while (true) {
  31:main.c        **** 		palTogglePad(IOPORT4, LED_YLW);
  23               		.loc 1 31 3 is_stmt 0 view .LVU1
  24 0000 D4E0      		ldi r29,lo8(4)
  32:main.c        **** 		palTogglePad(IOPORT4, LED_GRN);
  25               		.loc 1 32 3 view .LVU2
  26 0002 C8E0      		ldi r28,lo8(8)
  27               	.LVL1:
  28               	.L2:
  28:main.c        **** 
  29               		.loc 1 28 2 is_stmt 1 view .LVU3
  30:main.c        **** 		palTogglePad(IOPORT4, LED_YLW);
  30               		.loc 1 30 2 view .LVU4
  31:main.c        **** 		palTogglePad(IOPORT4, LED_GRN);
  31               		.loc 1 31 3 view .LVU5
  32 0004 8BB1      		in r24,0xb
  33 0006 8D27      		eor r24,r29
  34 0008 8BB9      		out 0xb,r24
  35               		.loc 1 32 3 view .LVU6
  36 000a 8BB1      		in r24,0xb
  37 000c 8C27      		eor r24,r28
  38 000e 8BB9      		out 0xb,r24
  33:main.c        **** 		chThdSleepMilliseconds(500);
  39               		.loc 1 33 3 discriminator 1 view .LVU7
  40 0010 84E8      		ldi r24,lo8(-124)
  41 0012 9EE1      		ldi r25,lo8(30)
  42 0014 0E94 0000 		call chThdSleep
  43               	.LVL2:
  30:main.c        **** 		palTogglePad(IOPORT4, LED_YLW);
  44               		.loc 1 30 8 view .LVU8
  45 0018 00C0      		rjmp .L2
  46               		.cfi_endproc
  47               	.LFE146:
  49               		.section	.text.Thread_Pwm,"ax",@progbits
  50               	.global	Thread_Pwm
  52               	Thread_Pwm:
  53               	.LFB147:
  34:main.c        **** 	}
  35:main.c        **** }
  36:main.c        **** 
  37:main.c        **** /*
  38:main.c        ****  * Thread 2.
  39:main.c        ****  */
  40:main.c        **** THD_WORKING_AREA(waPwm, 128);
  41:main.c        **** THD_FUNCTION(Thread_Pwm, arg) {
  54               		.loc 1 41 31 view -0
  55               		.cfi_startproc
  56               	/* prologue: function */
  57               	/* frame size = 0 */
  58               	/* stack size = 0 */
  59               	.L__stack_usage = 0
  60               	.LVL3:
  61               	.L6:
  42:main.c        **** 
  43:main.c        **** 	(void)arg;
  62               		.loc 1 43 2 view .LVU10
  44:main.c        **** 
  45:main.c        **** 	while (true) {
  63               		.loc 1 45 2 view .LVU11
  46:main.c        **** 		for (uint16_t i = 1000; i < 10000; i += 1000) {
  64               		.loc 1 46 3 view .LVU12
  65               	.LBB2:
  66               		.loc 1 46 8 view .LVU13
  67               		.loc 1 46 29 discriminator 1 view .LVU14
  68               		.loc 1 46 17 is_stmt 0 view .LVU15
  69 0000 C8EE      		ldi r28,lo8(-24)
  70 0002 D3E0      		ldi r29,lo8(3)
  71               	.LVL4:
  72               	.L5:
  47:main.c        **** 			pwmEnableChannel(&PWMD2, 0, PWM_PERCENTAGE_TO_WIDTH(&PWMD2, i));
  73               		.loc 1 47 4 is_stmt 1 view .LVU16
  74               		.loc 1 47 32 is_stmt 0 view .LVU17
  75 0004 8091 0000 		lds r24,PWMD2+3
  76 0008 9091 0000 		lds r25,PWMD2+3+1
  77 000c C89F      		mul r28,r24
  78 000e 9001      		movw r18,r0
  79 0010 C99F      		mul r28,r25
  80 0012 300D      		add r19,r0
  81 0014 D89F      		mul r29,r24
  82 0016 300D      		add r19,r0
  83 0018 1124      		clr r1
  84               		.loc 1 47 4 view .LVU18
  85 001a 3295      		swap r19
  86 001c 2295      		swap r18
  87 001e 2F70      		andi r18,0x0f
  88 0020 2327      		eor r18,r19
  89 0022 3F70      		andi r19,0x0f
  90 0024 2327      		eor r18,r19
  91 0026 A7E4      		ldi r26,lo8(71)
  92 0028 B3E0      		ldi r27,lo8(3)
  93 002a 0E94 0000 		call __umulhisi3
  94 002e AC01      		movw r20,r24
  95 0030 5695      		lsr r21
  96 0032 4795      		ror r20
  97 0034 5695      		lsr r21
  98 0036 4795      		ror r20
  99 0038 5695      		lsr r21
 100 003a 4795      		ror r20
 101 003c 60E0      		ldi r22,0
 102 003e 80E0      		ldi r24,lo8(PWMD2)
 103 0040 90E0      		ldi r25,hi8(PWMD2)
 104 0042 0E94 0000 		call pwmEnableChannel
 105               	.LVL5:
  48:main.c        **** 			chThdSleepMilliseconds(100);
 106               		.loc 1 48 4 is_stmt 1 view .LVU19
 107 0046 8BE1      		ldi r24,lo8(27)
 108 0048 96E0      		ldi r25,lo8(6)
 109 004a 0E94 0000 		call chThdSleep
 110               	.LVL6:
  46:main.c        **** 		for (uint16_t i = 1000; i < 10000; i += 1000) {
 111               		.loc 1 46 40 discriminator 3 view .LVU20
 112 004e C851      		subi r28,24
 113 0050 DC4F      		sbci r29,-4
 114               	.LVL7:
  46:main.c        **** 		for (uint16_t i = 1000; i < 10000; i += 1000) {
 115               		.loc 1 46 29 discriminator 1 view .LVU21
 116 0052 C031      		cpi r28,16
 117 0054 87E2      		ldi r24,39
 118 0056 D807      		cpc r29,r24
 119 0058 01F4      		brne .L5
 120 005a 00C0      		rjmp .L6
 121               	.LBE2:
 122               		.cfi_endproc
 123               	.LFE147:
 125               		.section	.rodata
 126               	.LC0:
 127 0000 E8        		.byte	-24
 128 0001 03        		.byte	3
 129 0002 00        		.byte	0
 130 0003 00        		.byte	0
 131 0004 E803      		.word	1000
 132 0006 0000      		.word	0
 133 0008 01        		.byte	1
 134 0009 0000      		.word	0
 135 000b 00        		.byte	0
 136 000c 0000      		.word	0
 137               		.section	.text.startup.main,"ax",@progbits
 138               	.global	main
 140               	main:
 141               	.LFB148:
  49:main.c        **** 		}
  50:main.c        **** 	}
  51:main.c        **** }
  52:main.c        **** 
  53:main.c        **** /*
  54:main.c        ****  * Threads static table, one entry per thread. The number of entries must
  55:main.c        ****  * match NIL_CFG_NUM_THREADS.
  56:main.c        ****  */
  57:main.c        **** THD_TABLE_BEGIN
  58:main.c        **** 	THD_TABLE_THREAD(1, "blink_leds",  waLed,  Thread_Led,  NULL)
  59:main.c        **** 	THD_TABLE_THREAD(0, "pwm_led",    waPwm,  Thread_Pwm,  NULL)
  60:main.c        **** THD_TABLE_END
  61:main.c        **** 
  62:main.c        **** /*
  63:main.c        ****  * Application entry point.
  64:main.c        ****  */
  65:main.c        **** int main(void) {
 142               		.loc 1 65 16 view -0
 143               		.cfi_startproc
 144 0000 CDB7      		in r28,__SP_L__
 145 0002 DEB7      		in r29,__SP_H__
 146               	.LCFI0:
 147               		.cfi_def_cfa_register 28
 148 0004 2E97      		sbiw r28,14
 149               	.LCFI1:
 150               		.cfi_def_cfa_offset 16
 151 0006 0FB6      		in __tmp_reg__,__SREG__
 152 0008 F894      		cli
 153 000a DEBF      		out __SP_H__,r29
 154 000c 0FBE      		out __SREG__,__tmp_reg__
 155 000e CDBF      		out __SP_L__,r28
 156               	/* prologue: function */
 157               	/* frame size = 14 */
 158               	/* stack size = 14 */
 159               	.L__stack_usage = 14
  66:main.c        **** 	halInit();
 160               		.loc 1 66 2 view .LVU23
 161 0010 0E94 0000 		call halInit
 162               	.LVL8:
  67:main.c        **** 	chSysInit();
 163               		.loc 1 67 2 view .LVU24
 164 0014 0E94 0000 		call chSysInit
 165               	.LVL9:
  68:main.c        **** 
  69:main.c        **** 	palSetPadMode(IOPORT4, LED_YLW, PAL_MODE_OUTPUT_PUSHPULL);
 166               		.loc 1 69 2 view .LVU25
 167 0018 46E0      		ldi r20,lo8(6)
 168 001a 64E0      		ldi r22,lo8(4)
 169 001c 89E2      		ldi r24,lo8(41)
 170 001e 90E0      		ldi r25,0
 171 0020 0E94 0000 		call _pal_lld_setgroupmode
 172               	.LVL10:
  70:main.c        **** 	palSetPadMode(IOPORT4, LED_GRN, PAL_MODE_OUTPUT_PUSHPULL);
 173               		.loc 1 70 2 view .LVU26
 174 0024 46E0      		ldi r20,lo8(6)
 175 0026 68E0      		ldi r22,lo8(8)
 176 0028 89E2      		ldi r24,lo8(41)
 177 002a 90E0      		ldi r25,0
 178 002c 0E94 0000 		call _pal_lld_setgroupmode
 179               	.LVL11:
  71:main.c        **** 	palSetPadMode(IOPORT2, LED_PWM, PAL_MODE_OUTPUT_PUSHPULL);
 180               		.loc 1 71 2 view .LVU27
 181 0030 46E0      		ldi r20,lo8(6)
 182 0032 68E0      		ldi r22,lo8(8)
 183 0034 83E2      		ldi r24,lo8(35)
 184 0036 90E0      		ldi r25,0
 185 0038 0E94 0000 		call _pal_lld_setgroupmode
 186               	.LVL12:
  72:main.c        **** 
  73:main.c        **** 	// PWM configuration
  74:main.c        **** 
  75:main.c        **** 	PWMConfig pwm_driver = {
 187               		.loc 1 75 2 view .LVU28
 188               		.loc 1 75 12 is_stmt 0 view .LVU29
 189 003c 8EE0      		ldi r24,lo8(14)
 190 003e E0E0      		ldi r30,lo8(.LC0)
 191 0040 F0E0      		ldi r31,hi8(.LC0)
 192 0042 DE01      		movw r26,r28
 193 0044 1196      		adiw r26,1
 194               		0:
 195 0046 0190      		ld r0,Z+
 196 0048 0D92      		st X+,r0
 197 004a 8A95      		dec r24
 198 004c 01F4      		brne 0b
  76:main.c        **** 		.frequency = 1000, // Hz
  77:main.c        **** 		.period = 1000,     // 100ms in ticks
  78:main.c        **** 		.callback = NULL,
  79:main.c        **** 		.channels = {
  80:main.c        **** 			{PWM_OUTPUT_ACTIVE_HIGH, NULL},
  81:main.c        **** 			{PWM_OUTPUT_DISABLED, NULL}
  82:main.c        **** 		}
  83:main.c        **** 	};
  84:main.c        **** 
  85:main.c        **** 	pwmStart(&PWMD2, &pwm_driver);
 199               		.loc 1 85 2 is_stmt 1 view .LVU30
 200 004e BE01      		movw r22,r28
 201 0050 6F5F      		subi r22,-1
 202 0052 7F4F      		sbci r23,-1
 203 0054 80E0      		ldi r24,lo8(PWMD2)
 204 0056 90E0      		ldi r25,hi8(PWMD2)
 205 0058 0E94 0000 		call pwmStart
 206               	.LVL13:
 207               	.L9:
  86:main.c        **** 
  87:main.c        **** 	while (1) ;
 208               		.loc 1 87 2 view .LVU31
 209               		.loc 1 87 8 view .LVU32
 210               		.loc 1 87 2 view .LVU33
 211               		.loc 1 87 8 view .LVU34
 212 005c 00C0      		rjmp .L9
 213               		.cfi_endproc
 214               	.LFE148:
 216               	.global	nil_thd_configs
 217               		.section	.rodata.str1.1,"aMS",@progbits,1
 218               	.LC1:
 219 0000 626C 696E 		.string	"blink_leds"
 219      6B5F 6C65 
 219      6473 00
 220               	.LC2:
 221 000b 7077 6D5F 		.string	"pwm_led"
 221      6C65 6400 
 222               	.LC3:
 223 0013 6964 6C65 		.string	"idle"
 223      00
 224               		.section	.rodata.nil_thd_configs,"a"
 227               	nil_thd_configs:
 228 0000 0000      		.word	.LC1
 229 0002 0000      		.word	waLed
 230 0004 0000      		.word	waLed+197
 231 0006 01        		.byte	1
 232 0007 0000      		.word	gs(Thread_Led)
 233 0009 0000      		.word	0
 234 000b 0000      		.word	.LC2
 235 000d 0000      		.word	waPwm
 236 000f 0000      		.word	waPwm+197
 237 0011 00        		.byte	0
 238 0012 0000      		.word	gs(Thread_Pwm)
 239 0014 0000      		.word	0
 240 0016 0000      		.word	.LC3
 241 0018 0000      		.word	0
 242 001a 0000      		.word	0
 243 001c 04        		.byte	4
 244 001d 0000      		.word	0
 245 001f 0000      		.word	0
 246               	.global	waPwm
 247               		.section	.bss.waPwm,"aw",@nobits
 250               	waPwm:
 251 0000 0000 0000 		.zero	197
 251      0000 0000 
 251      0000 0000 
 251      0000 0000 
 251      0000 0000 
 252               	.global	waLed
 253               		.section	.bss.waLed,"aw",@nobits
 256               	waLed:
 257 0000 0000 0000 		.zero	197
 257      0000 0000 
 257      0000 0000 
 257      0000 0000 
 257      0000 0000 
 258               		.text
 259               	.Letext0:
 260               		.file 2 "/usr/lib/gcc/avr/14.1.0/include/stddef.h"
 261               		.file 3 "/usr/avr/include/stdint.h"
 262               		.file 4 "../../os/common/ports/AVR/compilers/GCC/chtypes.h"
 263               		.file 5 "../../os/nil/include/ch.h"
 264               		.file 6 "../../os/common/ports/AVR/chcore.h"
 265               		.file 7 "../../os/hal/ports/AVR/MEGA/LLD/GPIOv1/hal_pal_lld.h"
 266               		.file 8 "../../os/hal/include/hal_pwm.h"
 267               		.file 9 "../../os/hal/ports/AVR/MEGA/LLD/TIMv1/hal_pwm_lld.h"
 268               		.file 10 "../../os/hal/include/hal.h"
DEFINED SYMBOLS
                            *ABS*:00000000 main.c
     /tmp/cc4hJ2qI.s:2      *ABS*:0000003e __SP_H__
     /tmp/cc4hJ2qI.s:3      *ABS*:0000003d __SP_L__
     /tmp/cc4hJ2qI.s:4      *ABS*:0000003f __SREG__
     /tmp/cc4hJ2qI.s:5      *ABS*:00000000 __tmp_reg__
     /tmp/cc4hJ2qI.s:6      *ABS*:00000001 __zero_reg__
     /tmp/cc4hJ2qI.s:14     .text.Thread_Led:00000000 Thread_Led
     /tmp/cc4hJ2qI.s:17     .text.Thread_Led:00000000 .Loc.0
     /tmp/cc4hJ2qI.s:18     .text.Thread_Led:00000000 L0
     /tmp/cc4hJ2qI.s:23     .text.Thread_Led:00000000 .Loc.1
     /tmp/cc4hJ2qI.s:25     .text.Thread_Led:00000002 .Loc.2
     /tmp/cc4hJ2qI.s:29     .text.Thread_Led:00000004 .Loc.3
     /tmp/cc4hJ2qI.s:30     .text.Thread_Led:00000004 .Loc.4
     /tmp/cc4hJ2qI.s:31     .text.Thread_Led:00000004 .Loc.5
     /tmp/cc4hJ2qI.s:35     .text.Thread_Led:0000000a .Loc.6
     /tmp/cc4hJ2qI.s:39     .text.Thread_Led:00000010 .Loc.7
     /tmp/cc4hJ2qI.s:44     .text.Thread_Led:00000018 .Loc.8
     /tmp/cc4hJ2qI.s:46     .text.Thread_Led:0000001a L0
     /tmp/cc4hJ2qI.s:52     .text.Thread_Pwm:00000000 Thread_Pwm
     /tmp/cc4hJ2qI.s:54     .text.Thread_Pwm:00000000 .Loc.9
     /tmp/cc4hJ2qI.s:55     .text.Thread_Pwm:00000000 L0
     /tmp/cc4hJ2qI.s:62     .text.Thread_Pwm:00000000 .Loc.10
     /tmp/cc4hJ2qI.s:63     .text.Thread_Pwm:00000000 .Loc.11
     /tmp/cc4hJ2qI.s:64     .text.Thread_Pwm:00000000 .Loc.12
     /tmp/cc4hJ2qI.s:66     .text.Thread_Pwm:00000000 .Loc.13
     /tmp/cc4hJ2qI.s:67     .text.Thread_Pwm:00000000 .Loc.14
     /tmp/cc4hJ2qI.s:68     .text.Thread_Pwm:00000000 .Loc.15
     /tmp/cc4hJ2qI.s:73     .text.Thread_Pwm:00000004 .Loc.16
     /tmp/cc4hJ2qI.s:74     .text.Thread_Pwm:00000004 .Loc.17
     /tmp/cc4hJ2qI.s:84     .text.Thread_Pwm:0000001a .Loc.18
     /tmp/cc4hJ2qI.s:106    .text.Thread_Pwm:00000046 .Loc.19
     /tmp/cc4hJ2qI.s:111    .text.Thread_Pwm:0000004e .Loc.20
     /tmp/cc4hJ2qI.s:115    .text.Thread_Pwm:00000052 .Loc.21
     /tmp/cc4hJ2qI.s:122    .text.Thread_Pwm:0000005c L0
     /tmp/cc4hJ2qI.s:140    .text.startup.main:00000000 main
     /tmp/cc4hJ2qI.s:142    .text.startup.main:00000000 .Loc.22
     /tmp/cc4hJ2qI.s:143    .text.startup.main:00000000 L0
     /tmp/cc4hJ2qI.s:160    .text.startup.main:00000010 .Loc.23
     /tmp/cc4hJ2qI.s:163    .text.startup.main:00000014 .Loc.24
     /tmp/cc4hJ2qI.s:166    .text.startup.main:00000018 .Loc.25
     /tmp/cc4hJ2qI.s:173    .text.startup.main:00000024 .Loc.26
     /tmp/cc4hJ2qI.s:180    .text.startup.main:00000030 .Loc.27
     /tmp/cc4hJ2qI.s:187    .text.startup.main:0000003c .Loc.28
     /tmp/cc4hJ2qI.s:188    .text.startup.main:0000003c .Loc.29
     /tmp/cc4hJ2qI.s:199    .text.startup.main:0000004e .Loc.30
     /tmp/cc4hJ2qI.s:208    .text.startup.main:0000005c .Loc.31
     /tmp/cc4hJ2qI.s:209    .text.startup.main:0000005c .Loc.32
     /tmp/cc4hJ2qI.s:210    .text.startup.main:0000005c .Loc.33
     /tmp/cc4hJ2qI.s:211    .text.startup.main:0000005c .Loc.34
     /tmp/cc4hJ2qI.s:213    .text.startup.main:0000005e L0
     /tmp/cc4hJ2qI.s:227    .rodata.nil_thd_configs:00000000 nil_thd_configs
     /tmp/cc4hJ2qI.s:256    .bss.waLed:00000000 waLed
     /tmp/cc4hJ2qI.s:250    .bss.waPwm:00000000 waPwm
     /tmp/cc4hJ2qI.s:49     .text.Thread_Led:0000001a L0
     /tmp/cc4hJ2qI.s:125    .text.Thread_Pwm:0000005c L0
     /tmp/cc4hJ2qI.s:217    .text.startup.main:0000005e L0
                     .debug_frame:00000000 L0
     /tmp/cc4hJ2qI.s:28     .text.Thread_Led:00000004 .L2
     /tmp/cc4hJ2qI.s:72     .text.Thread_Pwm:00000004 .L5
     /tmp/cc4hJ2qI.s:61     .text.Thread_Pwm:00000000 .L6
     /tmp/cc4hJ2qI.s:126    .rodata:00000000 .LC0
     /tmp/cc4hJ2qI.s:194    .text.startup.main:00000046 .L01
     /tmp/cc4hJ2qI.s:207    .text.startup.main:0000005c .L9
     /tmp/cc4hJ2qI.s:1131   .debug_abbrev:00000000 .Ldebug_abbrev0
     /tmp/cc4hJ2qI.s:1869   .debug_ranges:00000000 .Ldebug_ranges0
     /tmp/cc4hJ2qI.s:1879   .debug_line:00000000 .Ldebug_line0
     /tmp/cc4hJ2qI.s:141    .text.startup.main:00000000 .LFB148
     /tmp/cc4hJ2qI.s:214    .text.startup.main:0000005e .LFE148
     /tmp/cc4hJ2qI.s:1761   .debug_loc:00000000 .LLST3
     /tmp/cc4hJ2qI.s:162    .text.startup.main:00000014 .LVL8
     /tmp/cc4hJ2qI.s:165    .text.startup.main:00000018 .LVL9
     /tmp/cc4hJ2qI.s:172    .text.startup.main:00000024 .LVL10
     /tmp/cc4hJ2qI.s:179    .text.startup.main:00000030 .LVL11
     /tmp/cc4hJ2qI.s:186    .text.startup.main:0000003c .LVL12
     /tmp/cc4hJ2qI.s:206    .text.startup.main:0000005c .LVL13
     /tmp/cc4hJ2qI.s:53     .text.Thread_Pwm:00000000 .LFB147
     /tmp/cc4hJ2qI.s:123    .text.Thread_Pwm:0000005c .LFE147
     /tmp/cc4hJ2qI.s:1783   .debug_loc:0000002f .LLST1
     /tmp/cc4hJ2qI.s:1780   .debug_loc:0000002d .LVUS1
     /tmp/cc4hJ2qI.s:65     .text.Thread_Pwm:00000000 .LBB2
     /tmp/cc4hJ2qI.s:121    .text.Thread_Pwm:0000005c .LBE2
     /tmp/cc4hJ2qI.s:1804   .debug_loc:0000004f .LLST2
     /tmp/cc4hJ2qI.s:1799   .debug_loc:0000004b .LVUS2
     /tmp/cc4hJ2qI.s:105    .text.Thread_Pwm:00000046 .LVL5
     /tmp/cc4hJ2qI.s:110    .text.Thread_Pwm:0000004e .LVL6
     /tmp/cc4hJ2qI.s:16     .text.Thread_Led:00000000 .LFB146
     /tmp/cc4hJ2qI.s:47     .text.Thread_Led:0000001a .LFE146
     /tmp/cc4hJ2qI.s:1827   .debug_loc:00000079 .LLST0
     /tmp/cc4hJ2qI.s:1822   .debug_loc:00000075 .LVUS0
     /tmp/cc4hJ2qI.s:43     .text.Thread_Led:00000018 .LVL2
     /tmp/cc4hJ2qI.s:146    .text.startup.main:00000004 .LCFI0
     /tmp/cc4hJ2qI.s:149    .text.startup.main:00000006 .LCFI1
     /tmp/cc4hJ2qI.s:60     .text.Thread_Pwm:00000000 .LVL3
     /tmp/cc4hJ2qI.s:71     .text.Thread_Pwm:00000004 .LVL4
     /tmp/cc4hJ2qI.s:15     .text.Thread_Led:00000000 .LVL0
     /tmp/cc4hJ2qI.s:27     .text.Thread_Led:00000004 .LVL1
     /tmp/cc4hJ2qI.s:270    .debug_info:00000000 .Ldebug_info0

UNDEFINED SYMBOLS
chThdSleep
PWMD2
__umulhisi3
pwmEnableChannel
halInit
chSysInit
_pal_lld_setgroupmode
pwmStart
__do_copy_data
__do_clear_bss
